
STM32F303_PWM_LL.elf:     file format elf32-littlearm

Sections:
Idx Name          Size      VMA       LMA       File off  Algn
  0 .isr_vector   00000188  08000000  08000000  00010000  2**0
                  CONTENTS, ALLOC, LOAD, READONLY, DATA
  1 .text         00006b34  08000188  08000188  00010188  2**3
                  CONTENTS, ALLOC, LOAD, READONLY, CODE
  2 .rodata       00000248  08006cc0  08006cc0  00016cc0  2**3
                  CONTENTS, ALLOC, LOAD, READONLY, DATA
  3 .ARM.extab    00000000  08006f08  08006f08  00020070  2**0
                  CONTENTS
  4 .ARM          00000000  08006f08  08006f08  00020070  2**0
                  CONTENTS
  5 .preinit_array 00000000  08006f08  08006f08  00020070  2**0
                  CONTENTS, ALLOC, LOAD, DATA
  6 .init_array   00000004  08006f08  08006f08  00016f08  2**2
                  CONTENTS, ALLOC, LOAD, DATA
  7 .fini_array   00000004  08006f0c  08006f0c  00016f0c  2**2
                  CONTENTS, ALLOC, LOAD, DATA
  8 .data         00000070  20000000  08006f10  00020000  2**2
                  CONTENTS, ALLOC, LOAD, DATA
  9 .bss          000000a4  20000070  08006f80  00020070  2**2
                  ALLOC
 10 ._user_heap_stack 00000604  20000114  08006f80  00020114  2**0
                  ALLOC
 11 .ARM.attributes 00000030  00000000  00000000  00020070  2**0
                  CONTENTS, READONLY
 12 .debug_info   0001a547  00000000  00000000  000200a0  2**0
                  CONTENTS, READONLY, DEBUGGING
 13 .debug_abbrev 00003691  00000000  00000000  0003a5e7  2**0
                  CONTENTS, READONLY, DEBUGGING
 14 .debug_aranges 00000d68  00000000  00000000  0003dc78  2**3
                  CONTENTS, READONLY, DEBUGGING
 15 .debug_ranges 00000c10  00000000  00000000  0003e9e0  2**3
                  CONTENTS, READONLY, DEBUGGING
 16 .debug_macro  0001cbe6  00000000  00000000  0003f5f0  2**0
                  CONTENTS, READONLY, DEBUGGING
 17 .debug_line   0000e810  00000000  00000000  0005c1d6  2**0
                  CONTENTS, READONLY, DEBUGGING
 18 .debug_str    0009ee66  00000000  00000000  0006a9e6  2**0
                  CONTENTS, READONLY, DEBUGGING
 19 .comment      0000007b  00000000  00000000  0010984c  2**0
                  CONTENTS, READONLY
 20 .debug_frame  00003f18  00000000  00000000  001098c8  2**2
                  CONTENTS, READONLY, DEBUGGING

Disassembly of section .text:

08000188 <__do_global_dtors_aux>:
 8000188:	b510      	push	{r4, lr}
 800018a:	4c05      	ldr	r4, [pc, #20]	; (80001a0 <__do_global_dtors_aux+0x18>)
 800018c:	7823      	ldrb	r3, [r4, #0]
 800018e:	b933      	cbnz	r3, 800019e <__do_global_dtors_aux+0x16>
 8000190:	4b04      	ldr	r3, [pc, #16]	; (80001a4 <__do_global_dtors_aux+0x1c>)
 8000192:	b113      	cbz	r3, 800019a <__do_global_dtors_aux+0x12>
 8000194:	4804      	ldr	r0, [pc, #16]	; (80001a8 <__do_global_dtors_aux+0x20>)
 8000196:	f3af 8000 	nop.w
 800019a:	2301      	movs	r3, #1
 800019c:	7023      	strb	r3, [r4, #0]
 800019e:	bd10      	pop	{r4, pc}
 80001a0:	20000070 	.word	0x20000070
 80001a4:	00000000 	.word	0x00000000
 80001a8:	08006ca4 	.word	0x08006ca4

080001ac <frame_dummy>:
 80001ac:	b508      	push	{r3, lr}
 80001ae:	4b03      	ldr	r3, [pc, #12]	; (80001bc <frame_dummy+0x10>)
 80001b0:	b11b      	cbz	r3, 80001ba <frame_dummy+0xe>
 80001b2:	4903      	ldr	r1, [pc, #12]	; (80001c0 <frame_dummy+0x14>)
 80001b4:	4803      	ldr	r0, [pc, #12]	; (80001c4 <frame_dummy+0x18>)
 80001b6:	f3af 8000 	nop.w
 80001ba:	bd08      	pop	{r3, pc}
 80001bc:	00000000 	.word	0x00000000
 80001c0:	20000074 	.word	0x20000074
 80001c4:	08006ca4 	.word	0x08006ca4

080001c8 <__aeabi_drsub>:
 80001c8:	f081 4100 	eor.w	r1, r1, #2147483648	; 0x80000000
 80001cc:	e002      	b.n	80001d4 <__adddf3>
 80001ce:	bf00      	nop

080001d0 <__aeabi_dsub>:
 80001d0:	f083 4300 	eor.w	r3, r3, #2147483648	; 0x80000000

080001d4 <__adddf3>:
 80001d4:	b530      	push	{r4, r5, lr}
 80001d6:	ea4f 0441 	mov.w	r4, r1, lsl #1
 80001da:	ea4f 0543 	mov.w	r5, r3, lsl #1
 80001de:	ea94 0f05 	teq	r4, r5
 80001e2:	bf08      	it	eq
 80001e4:	ea90 0f02 	teqeq	r0, r2
 80001e8:	bf1f      	itttt	ne
 80001ea:	ea54 0c00 	orrsne.w	ip, r4, r0
 80001ee:	ea55 0c02 	orrsne.w	ip, r5, r2
 80001f2:	ea7f 5c64 	mvnsne.w	ip, r4, asr #21
 80001f6:	ea7f 5c65 	mvnsne.w	ip, r5, asr #21
 80001fa:	f000 80e2 	beq.w	80003c2 <__adddf3+0x1ee>
 80001fe:	ea4f 5454 	mov.w	r4, r4, lsr #21
 8000202:	ebd4 5555 	rsbs	r5, r4, r5, lsr #21
 8000206:	bfb8      	it	lt
 8000208:	426d      	neglt	r5, r5
 800020a:	dd0c      	ble.n	8000226 <__adddf3+0x52>
 800020c:	442c      	add	r4, r5
 800020e:	ea80 0202 	eor.w	r2, r0, r2
 8000212:	ea81 0303 	eor.w	r3, r1, r3
 8000216:	ea82 0000 	eor.w	r0, r2, r0
 800021a:	ea83 0101 	eor.w	r1, r3, r1
 800021e:	ea80 0202 	eor.w	r2, r0, r2
 8000222:	ea81 0303 	eor.w	r3, r1, r3
 8000226:	2d36      	cmp	r5, #54	; 0x36
 8000228:	bf88      	it	hi
 800022a:	bd30      	pophi	{r4, r5, pc}
 800022c:	f011 4f00 	tst.w	r1, #2147483648	; 0x80000000
 8000230:	ea4f 3101 	mov.w	r1, r1, lsl #12
 8000234:	f44f 1c80 	mov.w	ip, #1048576	; 0x100000
 8000238:	ea4c 3111 	orr.w	r1, ip, r1, lsr #12
 800023c:	d002      	beq.n	8000244 <__adddf3+0x70>
 800023e:	4240      	negs	r0, r0
 8000240:	eb61 0141 	sbc.w	r1, r1, r1, lsl #1
 8000244:	f013 4f00 	tst.w	r3, #2147483648	; 0x80000000
 8000248:	ea4f 3303 	mov.w	r3, r3, lsl #12
 800024c:	ea4c 3313 	orr.w	r3, ip, r3, lsr #12
 8000250:	d002      	beq.n	8000258 <__adddf3+0x84>
 8000252:	4252      	negs	r2, r2
 8000254:	eb63 0343 	sbc.w	r3, r3, r3, lsl #1
 8000258:	ea94 0f05 	teq	r4, r5
 800025c:	f000 80a7 	beq.w	80003ae <__adddf3+0x1da>
 8000260:	f1a4 0401 	sub.w	r4, r4, #1
 8000264:	f1d5 0e20 	rsbs	lr, r5, #32
 8000268:	db0d      	blt.n	8000286 <__adddf3+0xb2>
 800026a:	fa02 fc0e 	lsl.w	ip, r2, lr
 800026e:	fa22 f205 	lsr.w	r2, r2, r5
 8000272:	1880      	adds	r0, r0, r2
 8000274:	f141 0100 	adc.w	r1, r1, #0
 8000278:	fa03 f20e 	lsl.w	r2, r3, lr
 800027c:	1880      	adds	r0, r0, r2
 800027e:	fa43 f305 	asr.w	r3, r3, r5
 8000282:	4159      	adcs	r1, r3
 8000284:	e00e      	b.n	80002a4 <__adddf3+0xd0>
 8000286:	f1a5 0520 	sub.w	r5, r5, #32
 800028a:	f10e 0e20 	add.w	lr, lr, #32
 800028e:	2a01      	cmp	r2, #1
 8000290:	fa03 fc0e 	lsl.w	ip, r3, lr
 8000294:	bf28      	it	cs
 8000296:	f04c 0c02 	orrcs.w	ip, ip, #2
 800029a:	fa43 f305 	asr.w	r3, r3, r5
 800029e:	18c0      	adds	r0, r0, r3
 80002a0:	eb51 71e3 	adcs.w	r1, r1, r3, asr #31
 80002a4:	f001 4500 	and.w	r5, r1, #2147483648	; 0x80000000
 80002a8:	d507      	bpl.n	80002ba <__adddf3+0xe6>
 80002aa:	f04f 0e00 	mov.w	lr, #0
 80002ae:	f1dc 0c00 	rsbs	ip, ip, #0
 80002b2:	eb7e 0000 	sbcs.w	r0, lr, r0
 80002b6:	eb6e 0101 	sbc.w	r1, lr, r1
 80002ba:	f5b1 1f80 	cmp.w	r1, #1048576	; 0x100000
 80002be:	d31b      	bcc.n	80002f8 <__adddf3+0x124>
 80002c0:	f5b1 1f00 	cmp.w	r1, #2097152	; 0x200000
 80002c4:	d30c      	bcc.n	80002e0 <__adddf3+0x10c>
 80002c6:	0849      	lsrs	r1, r1, #1
 80002c8:	ea5f 0030 	movs.w	r0, r0, rrx
 80002cc:	ea4f 0c3c 	mov.w	ip, ip, rrx
 80002d0:	f104 0401 	add.w	r4, r4, #1
 80002d4:	ea4f 5244 	mov.w	r2, r4, lsl #21
 80002d8:	f512 0f80 	cmn.w	r2, #4194304	; 0x400000
 80002dc:	f080 809a 	bcs.w	8000414 <__adddf3+0x240>
 80002e0:	f1bc 4f00 	cmp.w	ip, #2147483648	; 0x80000000
 80002e4:	bf08      	it	eq
 80002e6:	ea5f 0c50 	movseq.w	ip, r0, lsr #1
 80002ea:	f150 0000 	adcs.w	r0, r0, #0
 80002ee:	eb41 5104 	adc.w	r1, r1, r4, lsl #20
 80002f2:	ea41 0105 	orr.w	r1, r1, r5
 80002f6:	bd30      	pop	{r4, r5, pc}
 80002f8:	ea5f 0c4c 	movs.w	ip, ip, lsl #1
 80002fc:	4140      	adcs	r0, r0
 80002fe:	eb41 0101 	adc.w	r1, r1, r1
 8000302:	f411 1f80 	tst.w	r1, #1048576	; 0x100000
 8000306:	f1a4 0401 	sub.w	r4, r4, #1
 800030a:	d1e9      	bne.n	80002e0 <__adddf3+0x10c>
 800030c:	f091 0f00 	teq	r1, #0
 8000310:	bf04      	itt	eq
 8000312:	4601      	moveq	r1, r0
 8000314:	2000      	moveq	r0, #0
 8000316:	fab1 f381 	clz	r3, r1
 800031a:	bf08      	it	eq
 800031c:	3320      	addeq	r3, #32
 800031e:	f1a3 030b 	sub.w	r3, r3, #11
 8000322:	f1b3 0220 	subs.w	r2, r3, #32
 8000326:	da0c      	bge.n	8000342 <__adddf3+0x16e>
 8000328:	320c      	adds	r2, #12
 800032a:	dd08      	ble.n	800033e <__adddf3+0x16a>
 800032c:	f102 0c14 	add.w	ip, r2, #20
 8000330:	f1c2 020c 	rsb	r2, r2, #12
 8000334:	fa01 f00c 	lsl.w	r0, r1, ip
 8000338:	fa21 f102 	lsr.w	r1, r1, r2
 800033c:	e00c      	b.n	8000358 <__adddf3+0x184>
 800033e:	f102 0214 	add.w	r2, r2, #20
 8000342:	bfd8      	it	le
 8000344:	f1c2 0c20 	rsble	ip, r2, #32
 8000348:	fa01 f102 	lsl.w	r1, r1, r2
 800034c:	fa20 fc0c 	lsr.w	ip, r0, ip
 8000350:	bfdc      	itt	le
 8000352:	ea41 010c 	orrle.w	r1, r1, ip
 8000356:	4090      	lslle	r0, r2
 8000358:	1ae4      	subs	r4, r4, r3
 800035a:	bfa2      	ittt	ge
 800035c:	eb01 5104 	addge.w	r1, r1, r4, lsl #20
 8000360:	4329      	orrge	r1, r5
 8000362:	bd30      	popge	{r4, r5, pc}
 8000364:	ea6f 0404 	mvn.w	r4, r4
 8000368:	3c1f      	subs	r4, #31
 800036a:	da1c      	bge.n	80003a6 <__adddf3+0x1d2>
 800036c:	340c      	adds	r4, #12
 800036e:	dc0e      	bgt.n	800038e <__adddf3+0x1ba>
 8000370:	f104 0414 	add.w	r4, r4, #20
 8000374:	f1c4 0220 	rsb	r2, r4, #32
 8000378:	fa20 f004 	lsr.w	r0, r0, r4
 800037c:	fa01 f302 	lsl.w	r3, r1, r2
 8000380:	ea40 0003 	orr.w	r0, r0, r3
 8000384:	fa21 f304 	lsr.w	r3, r1, r4
 8000388:	ea45 0103 	orr.w	r1, r5, r3
 800038c:	bd30      	pop	{r4, r5, pc}
 800038e:	f1c4 040c 	rsb	r4, r4, #12
 8000392:	f1c4 0220 	rsb	r2, r4, #32
 8000396:	fa20 f002 	lsr.w	r0, r0, r2
 800039a:	fa01 f304 	lsl.w	r3, r1, r4
 800039e:	ea40 0003 	orr.w	r0, r0, r3
 80003a2:	4629      	mov	r1, r5
 80003a4:	bd30      	pop	{r4, r5, pc}
 80003a6:	fa21 f004 	lsr.w	r0, r1, r4
 80003aa:	4629      	mov	r1, r5
 80003ac:	bd30      	pop	{r4, r5, pc}
 80003ae:	f094 0f00 	teq	r4, #0
 80003b2:	f483 1380 	eor.w	r3, r3, #1048576	; 0x100000
 80003b6:	bf06      	itte	eq
 80003b8:	f481 1180 	eoreq.w	r1, r1, #1048576	; 0x100000
 80003bc:	3401      	addeq	r4, #1
 80003be:	3d01      	subne	r5, #1
 80003c0:	e74e      	b.n	8000260 <__adddf3+0x8c>
 80003c2:	ea7f 5c64 	mvns.w	ip, r4, asr #21
 80003c6:	bf18      	it	ne
 80003c8:	ea7f 5c65 	mvnsne.w	ip, r5, asr #21
 80003cc:	d029      	beq.n	8000422 <__adddf3+0x24e>
 80003ce:	ea94 0f05 	teq	r4, r5
 80003d2:	bf08      	it	eq
 80003d4:	ea90 0f02 	teqeq	r0, r2
 80003d8:	d005      	beq.n	80003e6 <__adddf3+0x212>
 80003da:	ea54 0c00 	orrs.w	ip, r4, r0
 80003de:	bf04      	itt	eq
 80003e0:	4619      	moveq	r1, r3
 80003e2:	4610      	moveq	r0, r2
 80003e4:	bd30      	pop	{r4, r5, pc}
 80003e6:	ea91 0f03 	teq	r1, r3
 80003ea:	bf1e      	ittt	ne
 80003ec:	2100      	movne	r1, #0
 80003ee:	2000      	movne	r0, #0
 80003f0:	bd30      	popne	{r4, r5, pc}
 80003f2:	ea5f 5c54 	movs.w	ip, r4, lsr #21
 80003f6:	d105      	bne.n	8000404 <__adddf3+0x230>
 80003f8:	0040      	lsls	r0, r0, #1
 80003fa:	4149      	adcs	r1, r1
 80003fc:	bf28      	it	cs
 80003fe:	f041 4100 	orrcs.w	r1, r1, #2147483648	; 0x80000000
 8000402:	bd30      	pop	{r4, r5, pc}
 8000404:	f514 0480 	adds.w	r4, r4, #4194304	; 0x400000
 8000408:	bf3c      	itt	cc
 800040a:	f501 1180 	addcc.w	r1, r1, #1048576	; 0x100000
 800040e:	bd30      	popcc	{r4, r5, pc}
 8000410:	f001 4500 	and.w	r5, r1, #2147483648	; 0x80000000
 8000414:	f045 41fe 	orr.w	r1, r5, #2130706432	; 0x7f000000
 8000418:	f441 0170 	orr.w	r1, r1, #15728640	; 0xf00000
 800041c:	f04f 0000 	mov.w	r0, #0
 8000420:	bd30      	pop	{r4, r5, pc}
 8000422:	ea7f 5c64 	mvns.w	ip, r4, asr #21
 8000426:	bf1a      	itte	ne
 8000428:	4619      	movne	r1, r3
 800042a:	4610      	movne	r0, r2
 800042c:	ea7f 5c65 	mvnseq.w	ip, r5, asr #21
 8000430:	bf1c      	itt	ne
 8000432:	460b      	movne	r3, r1
 8000434:	4602      	movne	r2, r0
 8000436:	ea50 3401 	orrs.w	r4, r0, r1, lsl #12
 800043a:	bf06      	itte	eq
 800043c:	ea52 3503 	orrseq.w	r5, r2, r3, lsl #12
 8000440:	ea91 0f03 	teqeq	r1, r3
 8000444:	f441 2100 	orrne.w	r1, r1, #524288	; 0x80000
 8000448:	bd30      	pop	{r4, r5, pc}
 800044a:	bf00      	nop

0800044c <__aeabi_ui2d>:
 800044c:	f090 0f00 	teq	r0, #0
 8000450:	bf04      	itt	eq
 8000452:	2100      	moveq	r1, #0
 8000454:	4770      	bxeq	lr
 8000456:	b530      	push	{r4, r5, lr}
 8000458:	f44f 6480 	mov.w	r4, #1024	; 0x400
 800045c:	f104 0432 	add.w	r4, r4, #50	; 0x32
 8000460:	f04f 0500 	mov.w	r5, #0
 8000464:	f04f 0100 	mov.w	r1, #0
 8000468:	e750      	b.n	800030c <__adddf3+0x138>
 800046a:	bf00      	nop

0800046c <__aeabi_i2d>:
 800046c:	f090 0f00 	teq	r0, #0
 8000470:	bf04      	itt	eq
 8000472:	2100      	moveq	r1, #0
 8000474:	4770      	bxeq	lr
 8000476:	b530      	push	{r4, r5, lr}
 8000478:	f44f 6480 	mov.w	r4, #1024	; 0x400
 800047c:	f104 0432 	add.w	r4, r4, #50	; 0x32
 8000480:	f010 4500 	ands.w	r5, r0, #2147483648	; 0x80000000
 8000484:	bf48      	it	mi
 8000486:	4240      	negmi	r0, r0
 8000488:	f04f 0100 	mov.w	r1, #0
 800048c:	e73e      	b.n	800030c <__adddf3+0x138>
 800048e:	bf00      	nop

08000490 <__aeabi_f2d>:
 8000490:	0042      	lsls	r2, r0, #1
 8000492:	ea4f 01e2 	mov.w	r1, r2, asr #3
 8000496:	ea4f 0131 	mov.w	r1, r1, rrx
 800049a:	ea4f 7002 	mov.w	r0, r2, lsl #28
 800049e:	bf1f      	itttt	ne
 80004a0:	f012 437f 	andsne.w	r3, r2, #4278190080	; 0xff000000
 80004a4:	f093 4f7f 	teqne	r3, #4278190080	; 0xff000000
 80004a8:	f081 5160 	eorne.w	r1, r1, #939524096	; 0x38000000
 80004ac:	4770      	bxne	lr
 80004ae:	f032 427f 	bics.w	r2, r2, #4278190080	; 0xff000000
 80004b2:	bf08      	it	eq
 80004b4:	4770      	bxeq	lr
 80004b6:	f093 4f7f 	teq	r3, #4278190080	; 0xff000000
 80004ba:	bf04      	itt	eq
 80004bc:	f441 2100 	orreq.w	r1, r1, #524288	; 0x80000
 80004c0:	4770      	bxeq	lr
 80004c2:	b530      	push	{r4, r5, lr}
 80004c4:	f44f 7460 	mov.w	r4, #896	; 0x380
 80004c8:	f001 4500 	and.w	r5, r1, #2147483648	; 0x80000000
 80004cc:	f021 4100 	bic.w	r1, r1, #2147483648	; 0x80000000
 80004d0:	e71c      	b.n	800030c <__adddf3+0x138>
 80004d2:	bf00      	nop

080004d4 <__aeabi_ul2d>:
 80004d4:	ea50 0201 	orrs.w	r2, r0, r1
 80004d8:	bf08      	it	eq
 80004da:	4770      	bxeq	lr
 80004dc:	b530      	push	{r4, r5, lr}
 80004de:	f04f 0500 	mov.w	r5, #0
 80004e2:	e00a      	b.n	80004fa <__aeabi_l2d+0x16>

080004e4 <__aeabi_l2d>:
 80004e4:	ea50 0201 	orrs.w	r2, r0, r1
 80004e8:	bf08      	it	eq
 80004ea:	4770      	bxeq	lr
 80004ec:	b530      	push	{r4, r5, lr}
 80004ee:	f011 4500 	ands.w	r5, r1, #2147483648	; 0x80000000
 80004f2:	d502      	bpl.n	80004fa <__aeabi_l2d+0x16>
 80004f4:	4240      	negs	r0, r0
 80004f6:	eb61 0141 	sbc.w	r1, r1, r1, lsl #1
 80004fa:	f44f 6480 	mov.w	r4, #1024	; 0x400
 80004fe:	f104 0432 	add.w	r4, r4, #50	; 0x32
 8000502:	ea5f 5c91 	movs.w	ip, r1, lsr #22
 8000506:	f43f aed8 	beq.w	80002ba <__adddf3+0xe6>
 800050a:	f04f 0203 	mov.w	r2, #3
 800050e:	ea5f 0cdc 	movs.w	ip, ip, lsr #3
 8000512:	bf18      	it	ne
 8000514:	3203      	addne	r2, #3
 8000516:	ea5f 0cdc 	movs.w	ip, ip, lsr #3
 800051a:	bf18      	it	ne
 800051c:	3203      	addne	r2, #3
 800051e:	eb02 02dc 	add.w	r2, r2, ip, lsr #3
 8000522:	f1c2 0320 	rsb	r3, r2, #32
 8000526:	fa00 fc03 	lsl.w	ip, r0, r3
 800052a:	fa20 f002 	lsr.w	r0, r0, r2
 800052e:	fa01 fe03 	lsl.w	lr, r1, r3
 8000532:	ea40 000e 	orr.w	r0, r0, lr
 8000536:	fa21 f102 	lsr.w	r1, r1, r2
 800053a:	4414      	add	r4, r2
 800053c:	e6bd      	b.n	80002ba <__adddf3+0xe6>
 800053e:	bf00      	nop

08000540 <__aeabi_dmul>:
 8000540:	b570      	push	{r4, r5, r6, lr}
 8000542:	f04f 0cff 	mov.w	ip, #255	; 0xff
 8000546:	f44c 6ce0 	orr.w	ip, ip, #1792	; 0x700
 800054a:	ea1c 5411 	ands.w	r4, ip, r1, lsr #20
 800054e:	bf1d      	ittte	ne
 8000550:	ea1c 5513 	andsne.w	r5, ip, r3, lsr #20
 8000554:	ea94 0f0c 	teqne	r4, ip
 8000558:	ea95 0f0c 	teqne	r5, ip
 800055c:	f000 f8de 	bleq	800071c <__aeabi_dmul+0x1dc>
 8000560:	442c      	add	r4, r5
 8000562:	ea81 0603 	eor.w	r6, r1, r3
 8000566:	ea21 514c 	bic.w	r1, r1, ip, lsl #21
 800056a:	ea23 534c 	bic.w	r3, r3, ip, lsl #21
 800056e:	ea50 3501 	orrs.w	r5, r0, r1, lsl #12
 8000572:	bf18      	it	ne
 8000574:	ea52 3503 	orrsne.w	r5, r2, r3, lsl #12
 8000578:	f441 1180 	orr.w	r1, r1, #1048576	; 0x100000
 800057c:	f443 1380 	orr.w	r3, r3, #1048576	; 0x100000
 8000580:	d038      	beq.n	80005f4 <__aeabi_dmul+0xb4>
 8000582:	fba0 ce02 	umull	ip, lr, r0, r2
 8000586:	f04f 0500 	mov.w	r5, #0
 800058a:	fbe1 e502 	umlal	lr, r5, r1, r2
 800058e:	f006 4200 	and.w	r2, r6, #2147483648	; 0x80000000
 8000592:	fbe0 e503 	umlal	lr, r5, r0, r3
 8000596:	f04f 0600 	mov.w	r6, #0
 800059a:	fbe1 5603 	umlal	r5, r6, r1, r3
 800059e:	f09c 0f00 	teq	ip, #0
 80005a2:	bf18      	it	ne
 80005a4:	f04e 0e01 	orrne.w	lr, lr, #1
 80005a8:	f1a4 04ff 	sub.w	r4, r4, #255	; 0xff
 80005ac:	f5b6 7f00 	cmp.w	r6, #512	; 0x200
 80005b0:	f564 7440 	sbc.w	r4, r4, #768	; 0x300
 80005b4:	d204      	bcs.n	80005c0 <__aeabi_dmul+0x80>
 80005b6:	ea5f 0e4e 	movs.w	lr, lr, lsl #1
 80005ba:	416d      	adcs	r5, r5
 80005bc:	eb46 0606 	adc.w	r6, r6, r6
 80005c0:	ea42 21c6 	orr.w	r1, r2, r6, lsl #11
 80005c4:	ea41 5155 	orr.w	r1, r1, r5, lsr #21
 80005c8:	ea4f 20c5 	mov.w	r0, r5, lsl #11
 80005cc:	ea40 505e 	orr.w	r0, r0, lr, lsr #21
 80005d0:	ea4f 2ece 	mov.w	lr, lr, lsl #11
 80005d4:	f1b4 0cfd 	subs.w	ip, r4, #253	; 0xfd
 80005d8:	bf88      	it	hi
 80005da:	f5bc 6fe0 	cmphi.w	ip, #1792	; 0x700
 80005de:	d81e      	bhi.n	800061e <__aeabi_dmul+0xde>
 80005e0:	f1be 4f00 	cmp.w	lr, #2147483648	; 0x80000000
 80005e4:	bf08      	it	eq
 80005e6:	ea5f 0e50 	movseq.w	lr, r0, lsr #1
 80005ea:	f150 0000 	adcs.w	r0, r0, #0
 80005ee:	eb41 5104 	adc.w	r1, r1, r4, lsl #20
 80005f2:	bd70      	pop	{r4, r5, r6, pc}
 80005f4:	f006 4600 	and.w	r6, r6, #2147483648	; 0x80000000
 80005f8:	ea46 0101 	orr.w	r1, r6, r1
 80005fc:	ea40 0002 	orr.w	r0, r0, r2
 8000600:	ea81 0103 	eor.w	r1, r1, r3
 8000604:	ebb4 045c 	subs.w	r4, r4, ip, lsr #1
 8000608:	bfc2      	ittt	gt
 800060a:	ebd4 050c 	rsbsgt	r5, r4, ip
 800060e:	ea41 5104 	orrgt.w	r1, r1, r4, lsl #20
 8000612:	bd70      	popgt	{r4, r5, r6, pc}
 8000614:	f441 1180 	orr.w	r1, r1, #1048576	; 0x100000
 8000618:	f04f 0e00 	mov.w	lr, #0
 800061c:	3c01      	subs	r4, #1
 800061e:	f300 80ab 	bgt.w	8000778 <__aeabi_dmul+0x238>
 8000622:	f114 0f36 	cmn.w	r4, #54	; 0x36
 8000626:	bfde      	ittt	le
 8000628:	2000      	movle	r0, #0
 800062a:	f001 4100 	andle.w	r1, r1, #2147483648	; 0x80000000
 800062e:	bd70      	pople	{r4, r5, r6, pc}
 8000630:	f1c4 0400 	rsb	r4, r4, #0
 8000634:	3c20      	subs	r4, #32
 8000636:	da35      	bge.n	80006a4 <__aeabi_dmul+0x164>
 8000638:	340c      	adds	r4, #12
 800063a:	dc1b      	bgt.n	8000674 <__aeabi_dmul+0x134>
 800063c:	f104 0414 	add.w	r4, r4, #20
 8000640:	f1c4 0520 	rsb	r5, r4, #32
 8000644:	fa00 f305 	lsl.w	r3, r0, r5
 8000648:	fa20 f004 	lsr.w	r0, r0, r4
 800064c:	fa01 f205 	lsl.w	r2, r1, r5
 8000650:	ea40 0002 	orr.w	r0, r0, r2
 8000654:	f001 4200 	and.w	r2, r1, #2147483648	; 0x80000000
 8000658:	f021 4100 	bic.w	r1, r1, #2147483648	; 0x80000000
 800065c:	eb10 70d3 	adds.w	r0, r0, r3, lsr #31
 8000660:	fa21 f604 	lsr.w	r6, r1, r4
 8000664:	eb42 0106 	adc.w	r1, r2, r6
 8000668:	ea5e 0e43 	orrs.w	lr, lr, r3, lsl #1
 800066c:	bf08      	it	eq
 800066e:	ea20 70d3 	biceq.w	r0, r0, r3, lsr #31
 8000672:	bd70      	pop	{r4, r5, r6, pc}
 8000674:	f1c4 040c 	rsb	r4, r4, #12
 8000678:	f1c4 0520 	rsb	r5, r4, #32
 800067c:	fa00 f304 	lsl.w	r3, r0, r4
 8000680:	fa20 f005 	lsr.w	r0, r0, r5
 8000684:	fa01 f204 	lsl.w	r2, r1, r4
 8000688:	ea40 0002 	orr.w	r0, r0, r2
 800068c:	f001 4100 	and.w	r1, r1, #2147483648	; 0x80000000
 8000690:	eb10 70d3 	adds.w	r0, r0, r3, lsr #31
 8000694:	f141 0100 	adc.w	r1, r1, #0
 8000698:	ea5e 0e43 	orrs.w	lr, lr, r3, lsl #1
 800069c:	bf08      	it	eq
 800069e:	ea20 70d3 	biceq.w	r0, r0, r3, lsr #31
 80006a2:	bd70      	pop	{r4, r5, r6, pc}
 80006a4:	f1c4 0520 	rsb	r5, r4, #32
 80006a8:	fa00 f205 	lsl.w	r2, r0, r5
 80006ac:	ea4e 0e02 	orr.w	lr, lr, r2
 80006b0:	fa20 f304 	lsr.w	r3, r0, r4
 80006b4:	fa01 f205 	lsl.w	r2, r1, r5
 80006b8:	ea43 0302 	orr.w	r3, r3, r2
 80006bc:	fa21 f004 	lsr.w	r0, r1, r4
 80006c0:	f001 4100 	and.w	r1, r1, #2147483648	; 0x80000000
 80006c4:	fa21 f204 	lsr.w	r2, r1, r4
 80006c8:	ea20 0002 	bic.w	r0, r0, r2
 80006cc:	eb00 70d3 	add.w	r0, r0, r3, lsr #31
 80006d0:	ea5e 0e43 	orrs.w	lr, lr, r3, lsl #1
 80006d4:	bf08      	it	eq
 80006d6:	ea20 70d3 	biceq.w	r0, r0, r3, lsr #31
 80006da:	bd70      	pop	{r4, r5, r6, pc}
 80006dc:	f094 0f00 	teq	r4, #0
 80006e0:	d10f      	bne.n	8000702 <__aeabi_dmul+0x1c2>
 80006e2:	f001 4600 	and.w	r6, r1, #2147483648	; 0x80000000
 80006e6:	0040      	lsls	r0, r0, #1
 80006e8:	eb41 0101 	adc.w	r1, r1, r1
 80006ec:	f411 1f80 	tst.w	r1, #1048576	; 0x100000
 80006f0:	bf08      	it	eq
 80006f2:	3c01      	subeq	r4, #1
 80006f4:	d0f7      	beq.n	80006e6 <__aeabi_dmul+0x1a6>
 80006f6:	ea41 0106 	orr.w	r1, r1, r6
 80006fa:	f095 0f00 	teq	r5, #0
 80006fe:	bf18      	it	ne
 8000700:	4770      	bxne	lr
 8000702:	f003 4600 	and.w	r6, r3, #2147483648	; 0x80000000
 8000706:	0052      	lsls	r2, r2, #1
 8000708:	eb43 0303 	adc.w	r3, r3, r3
 800070c:	f413 1f80 	tst.w	r3, #1048576	; 0x100000
 8000710:	bf08      	it	eq
 8000712:	3d01      	subeq	r5, #1
 8000714:	d0f7      	beq.n	8000706 <__aeabi_dmul+0x1c6>
 8000716:	ea43 0306 	orr.w	r3, r3, r6
 800071a:	4770      	bx	lr
 800071c:	ea94 0f0c 	teq	r4, ip
 8000720:	ea0c 5513 	and.w	r5, ip, r3, lsr #20
 8000724:	bf18      	it	ne
 8000726:	ea95 0f0c 	teqne	r5, ip
 800072a:	d00c      	beq.n	8000746 <__aeabi_dmul+0x206>
 800072c:	ea50 0641 	orrs.w	r6, r0, r1, lsl #1
 8000730:	bf18      	it	ne
 8000732:	ea52 0643 	orrsne.w	r6, r2, r3, lsl #1
 8000736:	d1d1      	bne.n	80006dc <__aeabi_dmul+0x19c>
 8000738:	ea81 0103 	eor.w	r1, r1, r3
 800073c:	f001 4100 	and.w	r1, r1, #2147483648	; 0x80000000
 8000740:	f04f 0000 	mov.w	r0, #0
 8000744:	bd70      	pop	{r4, r5, r6, pc}
 8000746:	ea50 0641 	orrs.w	r6, r0, r1, lsl #1
 800074a:	bf06      	itte	eq
 800074c:	4610      	moveq	r0, r2
 800074e:	4619      	moveq	r1, r3
 8000750:	ea52 0643 	orrsne.w	r6, r2, r3, lsl #1
 8000754:	d019      	beq.n	800078a <__aeabi_dmul+0x24a>
 8000756:	ea94 0f0c 	teq	r4, ip
 800075a:	d102      	bne.n	8000762 <__aeabi_dmul+0x222>
 800075c:	ea50 3601 	orrs.w	r6, r0, r1, lsl #12
 8000760:	d113      	bne.n	800078a <__aeabi_dmul+0x24a>
 8000762:	ea95 0f0c 	teq	r5, ip
 8000766:	d105      	bne.n	8000774 <__aeabi_dmul+0x234>
 8000768:	ea52 3603 	orrs.w	r6, r2, r3, lsl #12
 800076c:	bf1c      	itt	ne
 800076e:	4610      	movne	r0, r2
 8000770:	4619      	movne	r1, r3
 8000772:	d10a      	bne.n	800078a <__aeabi_dmul+0x24a>
 8000774:	ea81 0103 	eor.w	r1, r1, r3
 8000778:	f001 4100 	and.w	r1, r1, #2147483648	; 0x80000000
 800077c:	f041 41fe 	orr.w	r1, r1, #2130706432	; 0x7f000000
 8000780:	f441 0170 	orr.w	r1, r1, #15728640	; 0xf00000
 8000784:	f04f 0000 	mov.w	r0, #0
 8000788:	bd70      	pop	{r4, r5, r6, pc}
 800078a:	f041 41fe 	orr.w	r1, r1, #2130706432	; 0x7f000000
 800078e:	f441 0178 	orr.w	r1, r1, #16252928	; 0xf80000
 8000792:	bd70      	pop	{r4, r5, r6, pc}

08000794 <__aeabi_ddiv>:
 8000794:	b570      	push	{r4, r5, r6, lr}
 8000796:	f04f 0cff 	mov.w	ip, #255	; 0xff
 800079a:	f44c 6ce0 	orr.w	ip, ip, #1792	; 0x700
 800079e:	ea1c 5411 	ands.w	r4, ip, r1, lsr #20
 80007a2:	bf1d      	ittte	ne
 80007a4:	ea1c 5513 	andsne.w	r5, ip, r3, lsr #20
 80007a8:	ea94 0f0c 	teqne	r4, ip
 80007ac:	ea95 0f0c 	teqne	r5, ip
 80007b0:	f000 f8a7 	bleq	8000902 <__aeabi_ddiv+0x16e>
 80007b4:	eba4 0405 	sub.w	r4, r4, r5
 80007b8:	ea81 0e03 	eor.w	lr, r1, r3
 80007bc:	ea52 3503 	orrs.w	r5, r2, r3, lsl #12
 80007c0:	ea4f 3101 	mov.w	r1, r1, lsl #12
 80007c4:	f000 8088 	beq.w	80008d8 <__aeabi_ddiv+0x144>
 80007c8:	ea4f 3303 	mov.w	r3, r3, lsl #12
 80007cc:	f04f 5580 	mov.w	r5, #268435456	; 0x10000000
 80007d0:	ea45 1313 	orr.w	r3, r5, r3, lsr #4
 80007d4:	ea43 6312 	orr.w	r3, r3, r2, lsr #24
 80007d8:	ea4f 2202 	mov.w	r2, r2, lsl #8
 80007dc:	ea45 1511 	orr.w	r5, r5, r1, lsr #4
 80007e0:	ea45 6510 	orr.w	r5, r5, r0, lsr #24
 80007e4:	ea4f 2600 	mov.w	r6, r0, lsl #8
 80007e8:	f00e 4100 	and.w	r1, lr, #2147483648	; 0x80000000
 80007ec:	429d      	cmp	r5, r3
 80007ee:	bf08      	it	eq
 80007f0:	4296      	cmpeq	r6, r2
 80007f2:	f144 04fd 	adc.w	r4, r4, #253	; 0xfd
 80007f6:	f504 7440 	add.w	r4, r4, #768	; 0x300
 80007fa:	d202      	bcs.n	8000802 <__aeabi_ddiv+0x6e>
 80007fc:	085b      	lsrs	r3, r3, #1
 80007fe:	ea4f 0232 	mov.w	r2, r2, rrx
 8000802:	1ab6      	subs	r6, r6, r2
 8000804:	eb65 0503 	sbc.w	r5, r5, r3
 8000808:	085b      	lsrs	r3, r3, #1
 800080a:	ea4f 0232 	mov.w	r2, r2, rrx
 800080e:	f44f 1080 	mov.w	r0, #1048576	; 0x100000
 8000812:	f44f 2c00 	mov.w	ip, #524288	; 0x80000
 8000816:	ebb6 0e02 	subs.w	lr, r6, r2
 800081a:	eb75 0e03 	sbcs.w	lr, r5, r3
 800081e:	bf22      	ittt	cs
 8000820:	1ab6      	subcs	r6, r6, r2
 8000822:	4675      	movcs	r5, lr
 8000824:	ea40 000c 	orrcs.w	r0, r0, ip
 8000828:	085b      	lsrs	r3, r3, #1
 800082a:	ea4f 0232 	mov.w	r2, r2, rrx
 800082e:	ebb6 0e02 	subs.w	lr, r6, r2
 8000832:	eb75 0e03 	sbcs.w	lr, r5, r3
 8000836:	bf22      	ittt	cs
 8000838:	1ab6      	subcs	r6, r6, r2
 800083a:	4675      	movcs	r5, lr
 800083c:	ea40 005c 	orrcs.w	r0, r0, ip, lsr #1
 8000840:	085b      	lsrs	r3, r3, #1
 8000842:	ea4f 0232 	mov.w	r2, r2, rrx
 8000846:	ebb6 0e02 	subs.w	lr, r6, r2
 800084a:	eb75 0e03 	sbcs.w	lr, r5, r3
 800084e:	bf22      	ittt	cs
 8000850:	1ab6      	subcs	r6, r6, r2
 8000852:	4675      	movcs	r5, lr
 8000854:	ea40 009c 	orrcs.w	r0, r0, ip, lsr #2
 8000858:	085b      	lsrs	r3, r3, #1
 800085a:	ea4f 0232 	mov.w	r2, r2, rrx
 800085e:	ebb6 0e02 	subs.w	lr, r6, r2
 8000862:	eb75 0e03 	sbcs.w	lr, r5, r3
 8000866:	bf22      	ittt	cs
 8000868:	1ab6      	subcs	r6, r6, r2
 800086a:	4675      	movcs	r5, lr
 800086c:	ea40 00dc 	orrcs.w	r0, r0, ip, lsr #3
 8000870:	ea55 0e06 	orrs.w	lr, r5, r6
 8000874:	d018      	beq.n	80008a8 <__aeabi_ddiv+0x114>
 8000876:	ea4f 1505 	mov.w	r5, r5, lsl #4
 800087a:	ea45 7516 	orr.w	r5, r5, r6, lsr #28
 800087e:	ea4f 1606 	mov.w	r6, r6, lsl #4
 8000882:	ea4f 03c3 	mov.w	r3, r3, lsl #3
 8000886:	ea43 7352 	orr.w	r3, r3, r2, lsr #29
 800088a:	ea4f 02c2 	mov.w	r2, r2, lsl #3
 800088e:	ea5f 1c1c 	movs.w	ip, ip, lsr #4
 8000892:	d1c0      	bne.n	8000816 <__aeabi_ddiv+0x82>
 8000894:	f411 1f80 	tst.w	r1, #1048576	; 0x100000
 8000898:	d10b      	bne.n	80008b2 <__aeabi_ddiv+0x11e>
 800089a:	ea41 0100 	orr.w	r1, r1, r0
 800089e:	f04f 0000 	mov.w	r0, #0
 80008a2:	f04f 4c00 	mov.w	ip, #2147483648	; 0x80000000
 80008a6:	e7b6      	b.n	8000816 <__aeabi_ddiv+0x82>
 80008a8:	f411 1f80 	tst.w	r1, #1048576	; 0x100000
 80008ac:	bf04      	itt	eq
 80008ae:	4301      	orreq	r1, r0
 80008b0:	2000      	moveq	r0, #0
 80008b2:	f1b4 0cfd 	subs.w	ip, r4, #253	; 0xfd
 80008b6:	bf88      	it	hi
 80008b8:	f5bc 6fe0 	cmphi.w	ip, #1792	; 0x700
 80008bc:	f63f aeaf 	bhi.w	800061e <__aeabi_dmul+0xde>
 80008c0:	ebb5 0c03 	subs.w	ip, r5, r3
 80008c4:	bf04      	itt	eq
 80008c6:	ebb6 0c02 	subseq.w	ip, r6, r2
 80008ca:	ea5f 0c50 	movseq.w	ip, r0, lsr #1
 80008ce:	f150 0000 	adcs.w	r0, r0, #0
 80008d2:	eb41 5104 	adc.w	r1, r1, r4, lsl #20
 80008d6:	bd70      	pop	{r4, r5, r6, pc}
 80008d8:	f00e 4e00 	and.w	lr, lr, #2147483648	; 0x80000000
 80008dc:	ea4e 3111 	orr.w	r1, lr, r1, lsr #12
 80008e0:	eb14 045c 	adds.w	r4, r4, ip, lsr #1
 80008e4:	bfc2      	ittt	gt
 80008e6:	ebd4 050c 	rsbsgt	r5, r4, ip
 80008ea:	ea41 5104 	orrgt.w	r1, r1, r4, lsl #20
 80008ee:	bd70      	popgt	{r4, r5, r6, pc}
 80008f0:	f441 1180 	orr.w	r1, r1, #1048576	; 0x100000
 80008f4:	f04f 0e00 	mov.w	lr, #0
 80008f8:	3c01      	subs	r4, #1
 80008fa:	e690      	b.n	800061e <__aeabi_dmul+0xde>
 80008fc:	ea45 0e06 	orr.w	lr, r5, r6
 8000900:	e68d      	b.n	800061e <__aeabi_dmul+0xde>
 8000902:	ea0c 5513 	and.w	r5, ip, r3, lsr #20
 8000906:	ea94 0f0c 	teq	r4, ip
 800090a:	bf08      	it	eq
 800090c:	ea95 0f0c 	teqeq	r5, ip
 8000910:	f43f af3b 	beq.w	800078a <__aeabi_dmul+0x24a>
 8000914:	ea94 0f0c 	teq	r4, ip
 8000918:	d10a      	bne.n	8000930 <__aeabi_ddiv+0x19c>
 800091a:	ea50 3401 	orrs.w	r4, r0, r1, lsl #12
 800091e:	f47f af34 	bne.w	800078a <__aeabi_dmul+0x24a>
 8000922:	ea95 0f0c 	teq	r5, ip
 8000926:	f47f af25 	bne.w	8000774 <__aeabi_dmul+0x234>
 800092a:	4610      	mov	r0, r2
 800092c:	4619      	mov	r1, r3
 800092e:	e72c      	b.n	800078a <__aeabi_dmul+0x24a>
 8000930:	ea95 0f0c 	teq	r5, ip
 8000934:	d106      	bne.n	8000944 <__aeabi_ddiv+0x1b0>
 8000936:	ea52 3503 	orrs.w	r5, r2, r3, lsl #12
 800093a:	f43f aefd 	beq.w	8000738 <__aeabi_dmul+0x1f8>
 800093e:	4610      	mov	r0, r2
 8000940:	4619      	mov	r1, r3
 8000942:	e722      	b.n	800078a <__aeabi_dmul+0x24a>
 8000944:	ea50 0641 	orrs.w	r6, r0, r1, lsl #1
 8000948:	bf18      	it	ne
 800094a:	ea52 0643 	orrsne.w	r6, r2, r3, lsl #1
 800094e:	f47f aec5 	bne.w	80006dc <__aeabi_dmul+0x19c>
 8000952:	ea50 0441 	orrs.w	r4, r0, r1, lsl #1
 8000956:	f47f af0d 	bne.w	8000774 <__aeabi_dmul+0x234>
 800095a:	ea52 0543 	orrs.w	r5, r2, r3, lsl #1
 800095e:	f47f aeeb 	bne.w	8000738 <__aeabi_dmul+0x1f8>
 8000962:	e712      	b.n	800078a <__aeabi_dmul+0x24a>

08000964 <__gedf2>:
 8000964:	f04f 3cff 	mov.w	ip, #4294967295
 8000968:	e006      	b.n	8000978 <__cmpdf2+0x4>
 800096a:	bf00      	nop

0800096c <__ledf2>:
 800096c:	f04f 0c01 	mov.w	ip, #1
 8000970:	e002      	b.n	8000978 <__cmpdf2+0x4>
 8000972:	bf00      	nop

08000974 <__cmpdf2>:
 8000974:	f04f 0c01 	mov.w	ip, #1
 8000978:	f84d cd04 	str.w	ip, [sp, #-4]!
 800097c:	ea4f 0c41 	mov.w	ip, r1, lsl #1
 8000980:	ea7f 5c6c 	mvns.w	ip, ip, asr #21
 8000984:	ea4f 0c43 	mov.w	ip, r3, lsl #1
 8000988:	bf18      	it	ne
 800098a:	ea7f 5c6c 	mvnsne.w	ip, ip, asr #21
 800098e:	d01b      	beq.n	80009c8 <__cmpdf2+0x54>
 8000990:	b001      	add	sp, #4
 8000992:	ea50 0c41 	orrs.w	ip, r0, r1, lsl #1
 8000996:	bf0c      	ite	eq
 8000998:	ea52 0c43 	orrseq.w	ip, r2, r3, lsl #1
 800099c:	ea91 0f03 	teqne	r1, r3
 80009a0:	bf02      	ittt	eq
 80009a2:	ea90 0f02 	teqeq	r0, r2
 80009a6:	2000      	moveq	r0, #0
 80009a8:	4770      	bxeq	lr
 80009aa:	f110 0f00 	cmn.w	r0, #0
 80009ae:	ea91 0f03 	teq	r1, r3
 80009b2:	bf58      	it	pl
 80009b4:	4299      	cmppl	r1, r3
 80009b6:	bf08      	it	eq
 80009b8:	4290      	cmpeq	r0, r2
 80009ba:	bf2c      	ite	cs
 80009bc:	17d8      	asrcs	r0, r3, #31
 80009be:	ea6f 70e3 	mvncc.w	r0, r3, asr #31
 80009c2:	f040 0001 	orr.w	r0, r0, #1
 80009c6:	4770      	bx	lr
 80009c8:	ea4f 0c41 	mov.w	ip, r1, lsl #1
 80009cc:	ea7f 5c6c 	mvns.w	ip, ip, asr #21
 80009d0:	d102      	bne.n	80009d8 <__cmpdf2+0x64>
 80009d2:	ea50 3c01 	orrs.w	ip, r0, r1, lsl #12
 80009d6:	d107      	bne.n	80009e8 <__cmpdf2+0x74>
 80009d8:	ea4f 0c43 	mov.w	ip, r3, lsl #1
 80009dc:	ea7f 5c6c 	mvns.w	ip, ip, asr #21
 80009e0:	d1d6      	bne.n	8000990 <__cmpdf2+0x1c>
 80009e2:	ea52 3c03 	orrs.w	ip, r2, r3, lsl #12
 80009e6:	d0d3      	beq.n	8000990 <__cmpdf2+0x1c>
 80009e8:	f85d 0b04 	ldr.w	r0, [sp], #4
 80009ec:	4770      	bx	lr
 80009ee:	bf00      	nop

080009f0 <__aeabi_cdrcmple>:
 80009f0:	4684      	mov	ip, r0
 80009f2:	4610      	mov	r0, r2
 80009f4:	4662      	mov	r2, ip
 80009f6:	468c      	mov	ip, r1
 80009f8:	4619      	mov	r1, r3
 80009fa:	4663      	mov	r3, ip
 80009fc:	e000      	b.n	8000a00 <__aeabi_cdcmpeq>
 80009fe:	bf00      	nop

08000a00 <__aeabi_cdcmpeq>:
 8000a00:	b501      	push	{r0, lr}
 8000a02:	f7ff ffb7 	bl	8000974 <__cmpdf2>
 8000a06:	2800      	cmp	r0, #0
 8000a08:	bf48      	it	mi
 8000a0a:	f110 0f00 	cmnmi.w	r0, #0
 8000a0e:	bd01      	pop	{r0, pc}

08000a10 <__aeabi_dcmpeq>:
 8000a10:	f84d ed08 	str.w	lr, [sp, #-8]!
 8000a14:	f7ff fff4 	bl	8000a00 <__aeabi_cdcmpeq>
 8000a18:	bf0c      	ite	eq
 8000a1a:	2001      	moveq	r0, #1
 8000a1c:	2000      	movne	r0, #0
 8000a1e:	f85d fb08 	ldr.w	pc, [sp], #8
 8000a22:	bf00      	nop

08000a24 <__aeabi_dcmplt>:
 8000a24:	f84d ed08 	str.w	lr, [sp, #-8]!
 8000a28:	f7ff ffea 	bl	8000a00 <__aeabi_cdcmpeq>
 8000a2c:	bf34      	ite	cc
 8000a2e:	2001      	movcc	r0, #1
 8000a30:	2000      	movcs	r0, #0
 8000a32:	f85d fb08 	ldr.w	pc, [sp], #8
 8000a36:	bf00      	nop

08000a38 <__aeabi_dcmple>:
 8000a38:	f84d ed08 	str.w	lr, [sp, #-8]!
 8000a3c:	f7ff ffe0 	bl	8000a00 <__aeabi_cdcmpeq>
 8000a40:	bf94      	ite	ls
 8000a42:	2001      	movls	r0, #1
 8000a44:	2000      	movhi	r0, #0
 8000a46:	f85d fb08 	ldr.w	pc, [sp], #8
 8000a4a:	bf00      	nop

08000a4c <__aeabi_dcmpge>:
 8000a4c:	f84d ed08 	str.w	lr, [sp, #-8]!
 8000a50:	f7ff ffce 	bl	80009f0 <__aeabi_cdrcmple>
 8000a54:	bf94      	ite	ls
 8000a56:	2001      	movls	r0, #1
 8000a58:	2000      	movhi	r0, #0
 8000a5a:	f85d fb08 	ldr.w	pc, [sp], #8
 8000a5e:	bf00      	nop

08000a60 <__aeabi_dcmpgt>:
 8000a60:	f84d ed08 	str.w	lr, [sp, #-8]!
 8000a64:	f7ff ffc4 	bl	80009f0 <__aeabi_cdrcmple>
 8000a68:	bf34      	ite	cc
 8000a6a:	2001      	movcc	r0, #1
 8000a6c:	2000      	movcs	r0, #0
 8000a6e:	f85d fb08 	ldr.w	pc, [sp], #8
 8000a72:	bf00      	nop

08000a74 <__aeabi_d2iz>:
 8000a74:	ea4f 0241 	mov.w	r2, r1, lsl #1
 8000a78:	f512 1200 	adds.w	r2, r2, #2097152	; 0x200000
 8000a7c:	d215      	bcs.n	8000aaa <__aeabi_d2iz+0x36>
 8000a7e:	d511      	bpl.n	8000aa4 <__aeabi_d2iz+0x30>
 8000a80:	f46f 7378 	mvn.w	r3, #992	; 0x3e0
 8000a84:	ebb3 5262 	subs.w	r2, r3, r2, asr #21
 8000a88:	d912      	bls.n	8000ab0 <__aeabi_d2iz+0x3c>
 8000a8a:	ea4f 23c1 	mov.w	r3, r1, lsl #11
 8000a8e:	f043 4300 	orr.w	r3, r3, #2147483648	; 0x80000000
 8000a92:	ea43 5350 	orr.w	r3, r3, r0, lsr #21
 8000a96:	f011 4f00 	tst.w	r1, #2147483648	; 0x80000000
 8000a9a:	fa23 f002 	lsr.w	r0, r3, r2
 8000a9e:	bf18      	it	ne
 8000aa0:	4240      	negne	r0, r0
 8000aa2:	4770      	bx	lr
 8000aa4:	f04f 0000 	mov.w	r0, #0
 8000aa8:	4770      	bx	lr
 8000aaa:	ea50 3001 	orrs.w	r0, r0, r1, lsl #12
 8000aae:	d105      	bne.n	8000abc <__aeabi_d2iz+0x48>
 8000ab0:	f011 4000 	ands.w	r0, r1, #2147483648	; 0x80000000
 8000ab4:	bf08      	it	eq
 8000ab6:	f06f 4000 	mvneq.w	r0, #2147483648	; 0x80000000
 8000aba:	4770      	bx	lr
 8000abc:	f04f 0000 	mov.w	r0, #0
 8000ac0:	4770      	bx	lr
 8000ac2:	bf00      	nop

08000ac4 <__aeabi_d2f>:
 8000ac4:	ea4f 0241 	mov.w	r2, r1, lsl #1
 8000ac8:	f1b2 43e0 	subs.w	r3, r2, #1879048192	; 0x70000000
 8000acc:	bf24      	itt	cs
 8000ace:	f5b3 1c00 	subscs.w	ip, r3, #2097152	; 0x200000
 8000ad2:	f1dc 5cfe 	rsbscs	ip, ip, #532676608	; 0x1fc00000
 8000ad6:	d90d      	bls.n	8000af4 <__aeabi_d2f+0x30>
 8000ad8:	f001 4c00 	and.w	ip, r1, #2147483648	; 0x80000000
 8000adc:	ea4f 02c0 	mov.w	r2, r0, lsl #3
 8000ae0:	ea4c 7050 	orr.w	r0, ip, r0, lsr #29
 8000ae4:	f1b2 4f00 	cmp.w	r2, #2147483648	; 0x80000000
 8000ae8:	eb40 0083 	adc.w	r0, r0, r3, lsl #2
 8000aec:	bf08      	it	eq
 8000aee:	f020 0001 	biceq.w	r0, r0, #1
 8000af2:	4770      	bx	lr
 8000af4:	f011 4f80 	tst.w	r1, #1073741824	; 0x40000000
 8000af8:	d121      	bne.n	8000b3e <__aeabi_d2f+0x7a>
 8000afa:	f113 7238 	adds.w	r2, r3, #48234496	; 0x2e00000
 8000afe:	bfbc      	itt	lt
 8000b00:	f001 4000 	andlt.w	r0, r1, #2147483648	; 0x80000000
 8000b04:	4770      	bxlt	lr
 8000b06:	f441 1180 	orr.w	r1, r1, #1048576	; 0x100000
 8000b0a:	ea4f 5252 	mov.w	r2, r2, lsr #21
 8000b0e:	f1c2 0218 	rsb	r2, r2, #24
 8000b12:	f1c2 0c20 	rsb	ip, r2, #32
 8000b16:	fa10 f30c 	lsls.w	r3, r0, ip
 8000b1a:	fa20 f002 	lsr.w	r0, r0, r2
 8000b1e:	bf18      	it	ne
 8000b20:	f040 0001 	orrne.w	r0, r0, #1
 8000b24:	ea4f 23c1 	mov.w	r3, r1, lsl #11
 8000b28:	ea4f 23d3 	mov.w	r3, r3, lsr #11
 8000b2c:	fa03 fc0c 	lsl.w	ip, r3, ip
 8000b30:	ea40 000c 	orr.w	r0, r0, ip
 8000b34:	fa23 f302 	lsr.w	r3, r3, r2
 8000b38:	ea4f 0343 	mov.w	r3, r3, lsl #1
 8000b3c:	e7cc      	b.n	8000ad8 <__aeabi_d2f+0x14>
 8000b3e:	ea7f 5362 	mvns.w	r3, r2, asr #21
 8000b42:	d107      	bne.n	8000b54 <__aeabi_d2f+0x90>
 8000b44:	ea50 3301 	orrs.w	r3, r0, r1, lsl #12
 8000b48:	bf1e      	ittt	ne
 8000b4a:	f04f 40fe 	movne.w	r0, #2130706432	; 0x7f000000
 8000b4e:	f440 0040 	orrne.w	r0, r0, #12582912	; 0xc00000
 8000b52:	4770      	bxne	lr
 8000b54:	f001 4000 	and.w	r0, r1, #2147483648	; 0x80000000
 8000b58:	f040 40fe 	orr.w	r0, r0, #2130706432	; 0x7f000000
 8000b5c:	f440 0000 	orr.w	r0, r0, #8388608	; 0x800000
 8000b60:	4770      	bx	lr
 8000b62:	bf00      	nop

08000b64 <HAL_Init>:
  *         In the default implementation,Systick is used as source of time base.
  *       The tick variable is incremented each 1ms in its ISR.
  * @retval HAL status
  */
HAL_StatusTypeDef HAL_Init(void)
{
 8000b64:	b580      	push	{r7, lr}
 8000b66:	af00      	add	r7, sp, #0
  /* Configure Flash prefetch */
#if (PREFETCH_ENABLE != 0U)
  __HAL_FLASH_PREFETCH_BUFFER_ENABLE();
 8000b68:	4b08      	ldr	r3, [pc, #32]	; (8000b8c <HAL_Init+0x28>)
 8000b6a:	681b      	ldr	r3, [r3, #0]
 8000b6c:	4a07      	ldr	r2, [pc, #28]	; (8000b8c <HAL_Init+0x28>)
 8000b6e:	f043 0310 	orr.w	r3, r3, #16
 8000b72:	6013      	str	r3, [r2, #0]
#endif /* PREFETCH_ENABLE */

  /* Set Interrupt Group Priority */
  HAL_NVIC_SetPriorityGrouping(NVIC_PRIORITYGROUP_4);
 8000b74:	2003      	movs	r0, #3
 8000b76:	f000 f92f 	bl	8000dd8 <HAL_NVIC_SetPriorityGrouping>

  /* Enable systick and configure 1ms tick (default clock after Reset is HSI) */
  HAL_InitTick(TICK_INT_PRIORITY);
 8000b7a:	2000      	movs	r0, #0
 8000b7c:	f000 f808 	bl	8000b90 <HAL_InitTick>

  /* Init the low level hardware */
  HAL_MspInit();
 8000b80:	f004 faac 	bl	80050dc <HAL_MspInit>

  /* Return function status */
  return HAL_OK;
 8000b84:	2300      	movs	r3, #0
}
 8000b86:	4618      	mov	r0, r3
 8000b88:	bd80      	pop	{r7, pc}
 8000b8a:	bf00      	nop
 8000b8c:	40022000 	.word	0x40022000

08000b90 <HAL_InitTick>:
  *         implementation  in user file.
  * @param TickPriority Tick interrupt priority.
  * @retval HAL status
  */
__weak HAL_StatusTypeDef HAL_InitTick(uint32_t TickPriority)
{
 8000b90:	b580      	push	{r7, lr}
 8000b92:	b082      	sub	sp, #8
 8000b94:	af00      	add	r7, sp, #0
 8000b96:	6078      	str	r0, [r7, #4]
  /* Configure the SysTick to have interrupt in 1ms time basis*/
  if (HAL_SYSTICK_Config(SystemCoreClock / (1000U / uwTickFreq)) > 0U)
 8000b98:	4b12      	ldr	r3, [pc, #72]	; (8000be4 <HAL_InitTick+0x54>)
 8000b9a:	681a      	ldr	r2, [r3, #0]
 8000b9c:	4b12      	ldr	r3, [pc, #72]	; (8000be8 <HAL_InitTick+0x58>)
 8000b9e:	781b      	ldrb	r3, [r3, #0]
 8000ba0:	4619      	mov	r1, r3
 8000ba2:	f44f 737a 	mov.w	r3, #1000	; 0x3e8
 8000ba6:	fbb3 f3f1 	udiv	r3, r3, r1
 8000baa:	fbb2 f3f3 	udiv	r3, r2, r3
 8000bae:	4618      	mov	r0, r3
 8000bb0:	f000 f939 	bl	8000e26 <HAL_SYSTICK_Config>
 8000bb4:	4603      	mov	r3, r0
 8000bb6:	2b00      	cmp	r3, #0
 8000bb8:	d001      	beq.n	8000bbe <HAL_InitTick+0x2e>
  {
    return HAL_ERROR;
 8000bba:	2301      	movs	r3, #1
 8000bbc:	e00e      	b.n	8000bdc <HAL_InitTick+0x4c>
  }

  /* Configure the SysTick IRQ priority */
  if (TickPriority < (1UL << __NVIC_PRIO_BITS))
 8000bbe:	687b      	ldr	r3, [r7, #4]
 8000bc0:	2b0f      	cmp	r3, #15
 8000bc2:	d80a      	bhi.n	8000bda <HAL_InitTick+0x4a>
  {
    HAL_NVIC_SetPriority(SysTick_IRQn, TickPriority, 0U);
 8000bc4:	2200      	movs	r2, #0
 8000bc6:	6879      	ldr	r1, [r7, #4]
 8000bc8:	f04f 30ff 	mov.w	r0, #4294967295
 8000bcc:	f000 f90f 	bl	8000dee <HAL_NVIC_SetPriority>
    uwTickPrio = TickPriority;
 8000bd0:	4a06      	ldr	r2, [pc, #24]	; (8000bec <HAL_InitTick+0x5c>)
 8000bd2:	687b      	ldr	r3, [r7, #4]
 8000bd4:	6013      	str	r3, [r2, #0]
  else
  {
    return HAL_ERROR;
  }
   /* Return function status */
  return HAL_OK;
 8000bd6:	2300      	movs	r3, #0
 8000bd8:	e000      	b.n	8000bdc <HAL_InitTick+0x4c>
    return HAL_ERROR;
 8000bda:	2301      	movs	r3, #1
}
 8000bdc:	4618      	mov	r0, r3
 8000bde:	3708      	adds	r7, #8
 8000be0:	46bd      	mov	sp, r7
 8000be2:	bd80      	pop	{r7, pc}
 8000be4:	20000008 	.word	0x20000008
 8000be8:	20000004 	.word	0x20000004
 8000bec:	20000000 	.word	0x20000000

08000bf0 <HAL_IncTick>:
  * @note This function is declared as __weak to be overwritten in case of other 
  *         implementations  in user file.
  * @retval None
  */
__weak void HAL_IncTick(void)
{
 8000bf0:	b480      	push	{r7}
 8000bf2:	af00      	add	r7, sp, #0
  uwTick += uwTickFreq;
 8000bf4:	4b06      	ldr	r3, [pc, #24]	; (8000c10 <HAL_IncTick+0x20>)
 8000bf6:	781b      	ldrb	r3, [r3, #0]
 8000bf8:	461a      	mov	r2, r3
 8000bfa:	4b06      	ldr	r3, [pc, #24]	; (8000c14 <HAL_IncTick+0x24>)
 8000bfc:	681b      	ldr	r3, [r3, #0]
 8000bfe:	4413      	add	r3, r2
 8000c00:	4a04      	ldr	r2, [pc, #16]	; (8000c14 <HAL_IncTick+0x24>)
 8000c02:	6013      	str	r3, [r2, #0]
}
 8000c04:	bf00      	nop
 8000c06:	46bd      	mov	sp, r7
 8000c08:	f85d 7b04 	ldr.w	r7, [sp], #4
 8000c0c:	4770      	bx	lr
 8000c0e:	bf00      	nop
 8000c10:	20000004 	.word	0x20000004
 8000c14:	2000009c 	.word	0x2000009c

08000c18 <HAL_GetTick>:
  * @note   The function is declared as __Weak  to be overwritten  in case of other 
  *         implementations  in user file.
  * @retval tick value
  */
__weak uint32_t HAL_GetTick(void)
{
 8000c18:	b480      	push	{r7}
 8000c1a:	af00      	add	r7, sp, #0
  return uwTick;  
 8000c1c:	4b03      	ldr	r3, [pc, #12]	; (8000c2c <HAL_GetTick+0x14>)
 8000c1e:	681b      	ldr	r3, [r3, #0]
}
 8000c20:	4618      	mov	r0, r3
 8000c22:	46bd      	mov	sp, r7
 8000c24:	f85d 7b04 	ldr.w	r7, [sp], #4
 8000c28:	4770      	bx	lr
 8000c2a:	bf00      	nop
 8000c2c:	2000009c 	.word	0x2000009c

08000c30 <HAL_Delay>:
  *         implementations  in user file.
  * @param  Delay specifies the delay time length, in milliseconds.
  * @retval None
  */
__weak void HAL_Delay(uint32_t Delay)
{
 8000c30:	b580      	push	{r7, lr}
 8000c32:	b084      	sub	sp, #16
 8000c34:	af00      	add	r7, sp, #0
 8000c36:	6078      	str	r0, [r7, #4]
  uint32_t tickstart = HAL_GetTick();
 8000c38:	f7ff ffee 	bl	8000c18 <HAL_GetTick>
 8000c3c:	60b8      	str	r0, [r7, #8]
  uint32_t wait = Delay;
 8000c3e:	687b      	ldr	r3, [r7, #4]
 8000c40:	60fb      	str	r3, [r7, #12]
  
  /* Add freq to guarantee minimum wait */
  if (wait < HAL_MAX_DELAY)
 8000c42:	68fb      	ldr	r3, [r7, #12]
 8000c44:	f1b3 3fff 	cmp.w	r3, #4294967295
 8000c48:	d005      	beq.n	8000c56 <HAL_Delay+0x26>
  {
    wait += (uint32_t)(uwTickFreq);
 8000c4a:	4b09      	ldr	r3, [pc, #36]	; (8000c70 <HAL_Delay+0x40>)
 8000c4c:	781b      	ldrb	r3, [r3, #0]
 8000c4e:	461a      	mov	r2, r3
 8000c50:	68fb      	ldr	r3, [r7, #12]
 8000c52:	4413      	add	r3, r2
 8000c54:	60fb      	str	r3, [r7, #12]
  }
  
  while((HAL_GetTick() - tickstart) < wait)
 8000c56:	bf00      	nop
 8000c58:	f7ff ffde 	bl	8000c18 <HAL_GetTick>
 8000c5c:	4602      	mov	r2, r0
 8000c5e:	68bb      	ldr	r3, [r7, #8]
 8000c60:	1ad3      	subs	r3, r2, r3
 8000c62:	68fa      	ldr	r2, [r7, #12]
 8000c64:	429a      	cmp	r2, r3
 8000c66:	d8f7      	bhi.n	8000c58 <HAL_Delay+0x28>
  {
  }
}
 8000c68:	bf00      	nop
 8000c6a:	3710      	adds	r7, #16
 8000c6c:	46bd      	mov	sp, r7
 8000c6e:	bd80      	pop	{r7, pc}
 8000c70:	20000004 	.word	0x20000004

08000c74 <NVIC_SetPriorityGrouping>:
           In case of a conflict between priority grouping and available
           priority bits (__NVIC_PRIO_BITS), the smallest possible priority group is set.
  \param [in]      PriorityGroup  Priority grouping field.
 */
__STATIC_INLINE void NVIC_SetPriorityGrouping(uint32_t PriorityGroup)
{
 8000c74:	b480      	push	{r7}
 8000c76:	b085      	sub	sp, #20
 8000c78:	af00      	add	r7, sp, #0
 8000c7a:	6078      	str	r0, [r7, #4]
  uint32_t reg_value;
  uint32_t PriorityGroupTmp = (PriorityGroup & (uint32_t)0x07UL);             /* only values 0..7 are used          */
 8000c7c:	687b      	ldr	r3, [r7, #4]
 8000c7e:	f003 0307 	and.w	r3, r3, #7
 8000c82:	60fb      	str	r3, [r7, #12]

  reg_value  =  SCB->AIRCR;                                                   /* read old register configuration    */
 8000c84:	4b0c      	ldr	r3, [pc, #48]	; (8000cb8 <NVIC_SetPriorityGrouping+0x44>)
 8000c86:	68db      	ldr	r3, [r3, #12]
 8000c88:	60bb      	str	r3, [r7, #8]
  reg_value &= ~((uint32_t)(SCB_AIRCR_VECTKEY_Msk | SCB_AIRCR_PRIGROUP_Msk)); /* clear bits to change               */
 8000c8a:	68ba      	ldr	r2, [r7, #8]
 8000c8c:	f64f 03ff 	movw	r3, #63743	; 0xf8ff
 8000c90:	4013      	ands	r3, r2
 8000c92:	60bb      	str	r3, [r7, #8]
  reg_value  =  (reg_value                                   |
                ((uint32_t)0x5FAUL << SCB_AIRCR_VECTKEY_Pos) |
                (PriorityGroupTmp << 8U)                      );              /* Insert write key and priorty group */
 8000c94:	68fb      	ldr	r3, [r7, #12]
 8000c96:	021a      	lsls	r2, r3, #8
                ((uint32_t)0x5FAUL << SCB_AIRCR_VECTKEY_Pos) |
 8000c98:	68bb      	ldr	r3, [r7, #8]
 8000c9a:	4313      	orrs	r3, r2
  reg_value  =  (reg_value                                   |
 8000c9c:	f043 63bf 	orr.w	r3, r3, #100139008	; 0x5f80000
 8000ca0:	f443 3300 	orr.w	r3, r3, #131072	; 0x20000
 8000ca4:	60bb      	str	r3, [r7, #8]
  SCB->AIRCR =  reg_value;
 8000ca6:	4a04      	ldr	r2, [pc, #16]	; (8000cb8 <NVIC_SetPriorityGrouping+0x44>)
 8000ca8:	68bb      	ldr	r3, [r7, #8]
 8000caa:	60d3      	str	r3, [r2, #12]
}
 8000cac:	bf00      	nop
 8000cae:	3714      	adds	r7, #20
 8000cb0:	46bd      	mov	sp, r7
 8000cb2:	f85d 7b04 	ldr.w	r7, [sp], #4
 8000cb6:	4770      	bx	lr
 8000cb8:	e000ed00 	.word	0xe000ed00

08000cbc <NVIC_GetPriorityGrouping>:
  \brief   Get Priority Grouping
  \details Reads the priority grouping field from the NVIC Interrupt Controller.
  \return                Priority grouping field (SCB->AIRCR [10:8] PRIGROUP field).
 */
__STATIC_INLINE uint32_t NVIC_GetPriorityGrouping(void)
{
 8000cbc:	b480      	push	{r7}
 8000cbe:	af00      	add	r7, sp, #0
  return ((uint32_t)((SCB->AIRCR & SCB_AIRCR_PRIGROUP_Msk) >> SCB_AIRCR_PRIGROUP_Pos));
 8000cc0:	4b04      	ldr	r3, [pc, #16]	; (8000cd4 <NVIC_GetPriorityGrouping+0x18>)
 8000cc2:	68db      	ldr	r3, [r3, #12]
 8000cc4:	0a1b      	lsrs	r3, r3, #8
 8000cc6:	f003 0307 	and.w	r3, r3, #7
}
 8000cca:	4618      	mov	r0, r3
 8000ccc:	46bd      	mov	sp, r7
 8000cce:	f85d 7b04 	ldr.w	r7, [sp], #4
 8000cd2:	4770      	bx	lr
 8000cd4:	e000ed00 	.word	0xe000ed00

08000cd8 <NVIC_SetPriority>:
  \note    The priority cannot be set for every core interrupt.
  \param [in]      IRQn  Interrupt number.
  \param [in]  priority  Priority to set.
 */
__STATIC_INLINE void NVIC_SetPriority(IRQn_Type IRQn, uint32_t priority)
{
 8000cd8:	b480      	push	{r7}
 8000cda:	b083      	sub	sp, #12
 8000cdc:	af00      	add	r7, sp, #0
 8000cde:	4603      	mov	r3, r0
 8000ce0:	6039      	str	r1, [r7, #0]
 8000ce2:	71fb      	strb	r3, [r7, #7]
  if ((int32_t)(IRQn) < 0)
 8000ce4:	f997 3007 	ldrsb.w	r3, [r7, #7]
 8000ce8:	2b00      	cmp	r3, #0
 8000cea:	da0b      	bge.n	8000d04 <NVIC_SetPriority+0x2c>
  {
    SCB->SHP[(((uint32_t)(int32_t)IRQn) & 0xFUL)-4UL] = (uint8_t)((priority << (8U - __NVIC_PRIO_BITS)) & (uint32_t)0xFFUL);
 8000cec:	683b      	ldr	r3, [r7, #0]
 8000cee:	b2da      	uxtb	r2, r3
 8000cf0:	490c      	ldr	r1, [pc, #48]	; (8000d24 <NVIC_SetPriority+0x4c>)
 8000cf2:	79fb      	ldrb	r3, [r7, #7]
 8000cf4:	f003 030f 	and.w	r3, r3, #15
 8000cf8:	3b04      	subs	r3, #4
 8000cfa:	0112      	lsls	r2, r2, #4
 8000cfc:	b2d2      	uxtb	r2, r2
 8000cfe:	440b      	add	r3, r1
 8000d00:	761a      	strb	r2, [r3, #24]
  }
  else
  {
    NVIC->IP[((uint32_t)(int32_t)IRQn)]               = (uint8_t)((priority << (8U - __NVIC_PRIO_BITS)) & (uint32_t)0xFFUL);
  }
}
 8000d02:	e009      	b.n	8000d18 <NVIC_SetPriority+0x40>
    NVIC->IP[((uint32_t)(int32_t)IRQn)]               = (uint8_t)((priority << (8U - __NVIC_PRIO_BITS)) & (uint32_t)0xFFUL);
 8000d04:	683b      	ldr	r3, [r7, #0]
 8000d06:	b2da      	uxtb	r2, r3
 8000d08:	4907      	ldr	r1, [pc, #28]	; (8000d28 <NVIC_SetPriority+0x50>)
 8000d0a:	f997 3007 	ldrsb.w	r3, [r7, #7]
 8000d0e:	0112      	lsls	r2, r2, #4
 8000d10:	b2d2      	uxtb	r2, r2
 8000d12:	440b      	add	r3, r1
 8000d14:	f883 2300 	strb.w	r2, [r3, #768]	; 0x300
}
 8000d18:	bf00      	nop
 8000d1a:	370c      	adds	r7, #12
 8000d1c:	46bd      	mov	sp, r7
 8000d1e:	f85d 7b04 	ldr.w	r7, [sp], #4
 8000d22:	4770      	bx	lr
 8000d24:	e000ed00 	.word	0xe000ed00
 8000d28:	e000e100 	.word	0xe000e100

08000d2c <NVIC_EncodePriority>:
  \param [in]   PreemptPriority  Preemptive priority value (starting from 0).
  \param [in]       SubPriority  Subpriority value (starting from 0).
  \return                        Encoded priority. Value can be used in the function \ref NVIC_SetPriority().
 */
__STATIC_INLINE uint32_t NVIC_EncodePriority (uint32_t PriorityGroup, uint32_t PreemptPriority, uint32_t SubPriority)
{
 8000d2c:	b480      	push	{r7}
 8000d2e:	b089      	sub	sp, #36	; 0x24
 8000d30:	af00      	add	r7, sp, #0
 8000d32:	60f8      	str	r0, [r7, #12]
 8000d34:	60b9      	str	r1, [r7, #8]
 8000d36:	607a      	str	r2, [r7, #4]
  uint32_t PriorityGroupTmp = (PriorityGroup & (uint32_t)0x07UL);   /* only values 0..7 are used          */
 8000d38:	68fb      	ldr	r3, [r7, #12]
 8000d3a:	f003 0307 	and.w	r3, r3, #7
 8000d3e:	61fb      	str	r3, [r7, #28]
  uint32_t PreemptPriorityBits;
  uint32_t SubPriorityBits;

  PreemptPriorityBits = ((7UL - PriorityGroupTmp) > (uint32_t)(__NVIC_PRIO_BITS)) ? (uint32_t)(__NVIC_PRIO_BITS) : (uint32_t)(7UL - PriorityGroupTmp);
 8000d40:	69fb      	ldr	r3, [r7, #28]
 8000d42:	f1c3 0307 	rsb	r3, r3, #7
 8000d46:	2b04      	cmp	r3, #4
 8000d48:	bf28      	it	cs
 8000d4a:	2304      	movcs	r3, #4
 8000d4c:	61bb      	str	r3, [r7, #24]
  SubPriorityBits     = ((PriorityGroupTmp + (uint32_t)(__NVIC_PRIO_BITS)) < (uint32_t)7UL) ? (uint32_t)0UL : (uint32_t)((PriorityGroupTmp - 7UL) + (uint32_t)(__NVIC_PRIO_BITS));
 8000d4e:	69fb      	ldr	r3, [r7, #28]
 8000d50:	3304      	adds	r3, #4
 8000d52:	2b06      	cmp	r3, #6
 8000d54:	d902      	bls.n	8000d5c <NVIC_EncodePriority+0x30>
 8000d56:	69fb      	ldr	r3, [r7, #28]
 8000d58:	3b03      	subs	r3, #3
 8000d5a:	e000      	b.n	8000d5e <NVIC_EncodePriority+0x32>
 8000d5c:	2300      	movs	r3, #0
 8000d5e:	617b      	str	r3, [r7, #20]

  return (
           ((PreemptPriority & (uint32_t)((1UL << (PreemptPriorityBits)) - 1UL)) << SubPriorityBits) |
 8000d60:	f04f 32ff 	mov.w	r2, #4294967295
 8000d64:	69bb      	ldr	r3, [r7, #24]
 8000d66:	fa02 f303 	lsl.w	r3, r2, r3
 8000d6a:	43da      	mvns	r2, r3
 8000d6c:	68bb      	ldr	r3, [r7, #8]
 8000d6e:	401a      	ands	r2, r3
 8000d70:	697b      	ldr	r3, [r7, #20]
 8000d72:	409a      	lsls	r2, r3
           ((SubPriority     & (uint32_t)((1UL << (SubPriorityBits    )) - 1UL)))
 8000d74:	f04f 31ff 	mov.w	r1, #4294967295
 8000d78:	697b      	ldr	r3, [r7, #20]
 8000d7a:	fa01 f303 	lsl.w	r3, r1, r3
 8000d7e:	43d9      	mvns	r1, r3
 8000d80:	687b      	ldr	r3, [r7, #4]
 8000d82:	400b      	ands	r3, r1
           ((PreemptPriority & (uint32_t)((1UL << (PreemptPriorityBits)) - 1UL)) << SubPriorityBits) |
 8000d84:	4313      	orrs	r3, r2
         );
}
 8000d86:	4618      	mov	r0, r3
 8000d88:	3724      	adds	r7, #36	; 0x24
 8000d8a:	46bd      	mov	sp, r7
 8000d8c:	f85d 7b04 	ldr.w	r7, [sp], #4
 8000d90:	4770      	bx	lr
	...

08000d94 <SysTick_Config>:
  \note    When the variable <b>__Vendor_SysTickConfig</b> is set to 1, then the
           function <b>SysTick_Config</b> is not included. In this case, the file <b><i>device</i>.h</b>
           must contain a vendor-specific implementation of this function.
 */
__STATIC_INLINE uint32_t SysTick_Config(uint32_t ticks)
{
 8000d94:	b580      	push	{r7, lr}
 8000d96:	b082      	sub	sp, #8
 8000d98:	af00      	add	r7, sp, #0
 8000d9a:	6078      	str	r0, [r7, #4]
  if ((ticks - 1UL) > SysTick_LOAD_RELOAD_Msk)
 8000d9c:	687b      	ldr	r3, [r7, #4]
 8000d9e:	3b01      	subs	r3, #1
 8000da0:	f1b3 7f80 	cmp.w	r3, #16777216	; 0x1000000
 8000da4:	d301      	bcc.n	8000daa <SysTick_Config+0x16>
  {
    return (1UL);                                                   /* Reload value impossible */
 8000da6:	2301      	movs	r3, #1
 8000da8:	e00f      	b.n	8000dca <SysTick_Config+0x36>
  }

  SysTick->LOAD  = (uint32_t)(ticks - 1UL);                         /* set reload register */
 8000daa:	4a0a      	ldr	r2, [pc, #40]	; (8000dd4 <SysTick_Config+0x40>)
 8000dac:	687b      	ldr	r3, [r7, #4]
 8000dae:	3b01      	subs	r3, #1
 8000db0:	6053      	str	r3, [r2, #4]
  NVIC_SetPriority (SysTick_IRQn, (1UL << __NVIC_PRIO_BITS) - 1UL); /* set Priority for Systick Interrupt */
 8000db2:	210f      	movs	r1, #15
 8000db4:	f04f 30ff 	mov.w	r0, #4294967295
 8000db8:	f7ff ff8e 	bl	8000cd8 <NVIC_SetPriority>
  SysTick->VAL   = 0UL;                                             /* Load the SysTick Counter Value */
 8000dbc:	4b05      	ldr	r3, [pc, #20]	; (8000dd4 <SysTick_Config+0x40>)
 8000dbe:	2200      	movs	r2, #0
 8000dc0:	609a      	str	r2, [r3, #8]
  SysTick->CTRL  = SysTick_CTRL_CLKSOURCE_Msk |
 8000dc2:	4b04      	ldr	r3, [pc, #16]	; (8000dd4 <SysTick_Config+0x40>)
 8000dc4:	2207      	movs	r2, #7
 8000dc6:	601a      	str	r2, [r3, #0]
                   SysTick_CTRL_TICKINT_Msk   |
                   SysTick_CTRL_ENABLE_Msk;                         /* Enable SysTick IRQ and SysTick Timer */
  return (0UL);                                                     /* Function successful */
 8000dc8:	2300      	movs	r3, #0
}
 8000dca:	4618      	mov	r0, r3
 8000dcc:	3708      	adds	r7, #8
 8000dce:	46bd      	mov	sp, r7
 8000dd0:	bd80      	pop	{r7, pc}
 8000dd2:	bf00      	nop
 8000dd4:	e000e010 	.word	0xe000e010

08000dd8 <HAL_NVIC_SetPriorityGrouping>:
  * @note   When the NVIC_PriorityGroup_0 is selected, IRQ pre-emption is no more possible.
  *         The pending IRQ priority will be managed only by the subpriority.
  * @retval None
  */
void HAL_NVIC_SetPriorityGrouping(uint32_t PriorityGroup)
{
 8000dd8:	b580      	push	{r7, lr}
 8000dda:	b082      	sub	sp, #8
 8000ddc:	af00      	add	r7, sp, #0
 8000dde:	6078      	str	r0, [r7, #4]
  /* Check the parameters */
  assert_param(IS_NVIC_PRIORITY_GROUP(PriorityGroup));

  /* Set the PRIGROUP[10:8] bits according to the PriorityGroup parameter value */
  NVIC_SetPriorityGrouping(PriorityGroup);
 8000de0:	6878      	ldr	r0, [r7, #4]
 8000de2:	f7ff ff47 	bl	8000c74 <NVIC_SetPriorityGrouping>
}
 8000de6:	bf00      	nop
 8000de8:	3708      	adds	r7, #8
 8000dea:	46bd      	mov	sp, r7
 8000dec:	bd80      	pop	{r7, pc}

08000dee <HAL_NVIC_SetPriority>:
  *         This parameter can be a value between 0 and 15 as described in the table CORTEX_NVIC_Priority_Table
  *         A lower priority value indicates a higher priority.
  * @retval None
  */
void HAL_NVIC_SetPriority(IRQn_Type IRQn, uint32_t PreemptPriority, uint32_t SubPriority)
{
 8000dee:	b580      	push	{r7, lr}
 8000df0:	b086      	sub	sp, #24
 8000df2:	af00      	add	r7, sp, #0
 8000df4:	4603      	mov	r3, r0
 8000df6:	60b9      	str	r1, [r7, #8]
 8000df8:	607a      	str	r2, [r7, #4]
 8000dfa:	73fb      	strb	r3, [r7, #15]
  uint32_t prioritygroup = 0x00U;
 8000dfc:	2300      	movs	r3, #0
 8000dfe:	617b      	str	r3, [r7, #20]
  
  /* Check the parameters */
  assert_param(IS_NVIC_SUB_PRIORITY(SubPriority));
  assert_param(IS_NVIC_PREEMPTION_PRIORITY(PreemptPriority));
  
  prioritygroup = NVIC_GetPriorityGrouping();
 8000e00:	f7ff ff5c 	bl	8000cbc <NVIC_GetPriorityGrouping>
 8000e04:	6178      	str	r0, [r7, #20]
  
  NVIC_SetPriority(IRQn, NVIC_EncodePriority(prioritygroup, PreemptPriority, SubPriority));
 8000e06:	687a      	ldr	r2, [r7, #4]
 8000e08:	68b9      	ldr	r1, [r7, #8]
 8000e0a:	6978      	ldr	r0, [r7, #20]
 8000e0c:	f7ff ff8e 	bl	8000d2c <NVIC_EncodePriority>
 8000e10:	4602      	mov	r2, r0
 8000e12:	f997 300f 	ldrsb.w	r3, [r7, #15]
 8000e16:	4611      	mov	r1, r2
 8000e18:	4618      	mov	r0, r3
 8000e1a:	f7ff ff5d 	bl	8000cd8 <NVIC_SetPriority>
}
 8000e1e:	bf00      	nop
 8000e20:	3718      	adds	r7, #24
 8000e22:	46bd      	mov	sp, r7
 8000e24:	bd80      	pop	{r7, pc}

08000e26 <HAL_SYSTICK_Config>:
  * @param  TicksNumb Specifies the ticks Number of ticks between two interrupts.
  * @retval status:  - 0  Function succeeded.
  *                  - 1  Function failed.
  */
uint32_t HAL_SYSTICK_Config(uint32_t TicksNumb)
{
 8000e26:	b580      	push	{r7, lr}
 8000e28:	b082      	sub	sp, #8
 8000e2a:	af00      	add	r7, sp, #0
 8000e2c:	6078      	str	r0, [r7, #4]
   return SysTick_Config(TicksNumb);
 8000e2e:	6878      	ldr	r0, [r7, #4]
 8000e30:	f7ff ffb0 	bl	8000d94 <SysTick_Config>
 8000e34:	4603      	mov	r3, r0
}
 8000e36:	4618      	mov	r0, r3
 8000e38:	3708      	adds	r7, #8
 8000e3a:	46bd      	mov	sp, r7
 8000e3c:	bd80      	pop	{r7, pc}
	...

08000e40 <HAL_GPIO_Init>:
  * @param  GPIO_Init pointer to a GPIO_InitTypeDef structure that contains
  *         the configuration information for the specified GPIO peripheral.
  * @retval None
  */
void HAL_GPIO_Init(GPIO_TypeDef  *GPIOx, GPIO_InitTypeDef *GPIO_Init)
{
 8000e40:	b480      	push	{r7}
 8000e42:	b087      	sub	sp, #28
 8000e44:	af00      	add	r7, sp, #0
 8000e46:	6078      	str	r0, [r7, #4]
 8000e48:	6039      	str	r1, [r7, #0]
  uint32_t position = 0x00U;
 8000e4a:	2300      	movs	r3, #0
 8000e4c:	617b      	str	r3, [r7, #20]
  uint32_t iocurrent = 0x00U;
 8000e4e:	2300      	movs	r3, #0
 8000e50:	60fb      	str	r3, [r7, #12]
  uint32_t temp = 0x00U;
 8000e52:	2300      	movs	r3, #0
 8000e54:	613b      	str	r3, [r7, #16]
  assert_param(IS_GPIO_PIN(GPIO_Init->Pin));
  assert_param(IS_GPIO_MODE(GPIO_Init->Mode));
  assert_param(IS_GPIO_PULL(GPIO_Init->Pull));

  /* Configure the port pins */
  while (((GPIO_Init->Pin) >> position) != RESET)
 8000e56:	e14e      	b.n	80010f6 <HAL_GPIO_Init+0x2b6>
  {
    /* Get current io position */
    iocurrent = (GPIO_Init->Pin) & (1U << position);
 8000e58:	683b      	ldr	r3, [r7, #0]
 8000e5a:	681a      	ldr	r2, [r3, #0]
 8000e5c:	2101      	movs	r1, #1
 8000e5e:	697b      	ldr	r3, [r7, #20]
 8000e60:	fa01 f303 	lsl.w	r3, r1, r3
 8000e64:	4013      	ands	r3, r2
 8000e66:	60fb      	str	r3, [r7, #12]

    if(iocurrent)
 8000e68:	68fb      	ldr	r3, [r7, #12]
 8000e6a:	2b00      	cmp	r3, #0
 8000e6c:	f000 8140 	beq.w	80010f0 <HAL_GPIO_Init+0x2b0>
    {
      /*--------------------- GPIO Mode Configuration ------------------------*/
      /* In case of Alternate function mode selection */
      if((GPIO_Init->Mode == GPIO_MODE_AF_PP) || (GPIO_Init->Mode == GPIO_MODE_AF_OD))
 8000e70:	683b      	ldr	r3, [r7, #0]
 8000e72:	685b      	ldr	r3, [r3, #4]
 8000e74:	2b02      	cmp	r3, #2
 8000e76:	d003      	beq.n	8000e80 <HAL_GPIO_Init+0x40>
 8000e78:	683b      	ldr	r3, [r7, #0]
 8000e7a:	685b      	ldr	r3, [r3, #4]
 8000e7c:	2b12      	cmp	r3, #18
 8000e7e:	d123      	bne.n	8000ec8 <HAL_GPIO_Init+0x88>
        /* Check the Alternate function parameters */
        assert_param(IS_GPIO_AF_INSTANCE(GPIOx));
        assert_param(IS_GPIO_AF(GPIO_Init->Alternate));
        
        /* Configure Alternate function mapped with the current IO */
        temp = GPIOx->AFR[position >> 3];
 8000e80:	697b      	ldr	r3, [r7, #20]
 8000e82:	08da      	lsrs	r2, r3, #3
 8000e84:	687b      	ldr	r3, [r7, #4]
 8000e86:	3208      	adds	r2, #8
 8000e88:	f853 3022 	ldr.w	r3, [r3, r2, lsl #2]
 8000e8c:	613b      	str	r3, [r7, #16]
        temp &= ~(0xFU << ((uint32_t)(position & 0x07U) * 4U)) ;
 8000e8e:	697b      	ldr	r3, [r7, #20]
 8000e90:	f003 0307 	and.w	r3, r3, #7
 8000e94:	009b      	lsls	r3, r3, #2
 8000e96:	220f      	movs	r2, #15
 8000e98:	fa02 f303 	lsl.w	r3, r2, r3
 8000e9c:	43db      	mvns	r3, r3
 8000e9e:	693a      	ldr	r2, [r7, #16]
 8000ea0:	4013      	ands	r3, r2
 8000ea2:	613b      	str	r3, [r7, #16]
        temp |= ((uint32_t)(GPIO_Init->Alternate) << (((uint32_t)position & 0x07U) * 4U));
 8000ea4:	683b      	ldr	r3, [r7, #0]
 8000ea6:	691a      	ldr	r2, [r3, #16]
 8000ea8:	697b      	ldr	r3, [r7, #20]
 8000eaa:	f003 0307 	and.w	r3, r3, #7
 8000eae:	009b      	lsls	r3, r3, #2
 8000eb0:	fa02 f303 	lsl.w	r3, r2, r3
 8000eb4:	693a      	ldr	r2, [r7, #16]
 8000eb6:	4313      	orrs	r3, r2
 8000eb8:	613b      	str	r3, [r7, #16]
        GPIOx->AFR[position >> 3] = temp;
 8000eba:	697b      	ldr	r3, [r7, #20]
 8000ebc:	08da      	lsrs	r2, r3, #3
 8000ebe:	687b      	ldr	r3, [r7, #4]
 8000ec0:	3208      	adds	r2, #8
 8000ec2:	6939      	ldr	r1, [r7, #16]
 8000ec4:	f843 1022 	str.w	r1, [r3, r2, lsl #2]
      }

      /* Configure IO Direction mode (Input, Output, Alternate or Analog) */
      temp = GPIOx->MODER;
 8000ec8:	687b      	ldr	r3, [r7, #4]
 8000eca:	681b      	ldr	r3, [r3, #0]
 8000ecc:	613b      	str	r3, [r7, #16]
      temp &= ~(GPIO_MODER_MODER0 << (position * 2U));
 8000ece:	697b      	ldr	r3, [r7, #20]
 8000ed0:	005b      	lsls	r3, r3, #1
 8000ed2:	2203      	movs	r2, #3
 8000ed4:	fa02 f303 	lsl.w	r3, r2, r3
 8000ed8:	43db      	mvns	r3, r3
 8000eda:	693a      	ldr	r2, [r7, #16]
 8000edc:	4013      	ands	r3, r2
 8000ede:	613b      	str	r3, [r7, #16]
      temp |= ((GPIO_Init->Mode & GPIO_MODE) << (position * 2U));
 8000ee0:	683b      	ldr	r3, [r7, #0]
 8000ee2:	685b      	ldr	r3, [r3, #4]
 8000ee4:	f003 0203 	and.w	r2, r3, #3
 8000ee8:	697b      	ldr	r3, [r7, #20]
 8000eea:	005b      	lsls	r3, r3, #1
 8000eec:	fa02 f303 	lsl.w	r3, r2, r3
 8000ef0:	693a      	ldr	r2, [r7, #16]
 8000ef2:	4313      	orrs	r3, r2
 8000ef4:	613b      	str	r3, [r7, #16]
      GPIOx->MODER = temp;
 8000ef6:	687b      	ldr	r3, [r7, #4]
 8000ef8:	693a      	ldr	r2, [r7, #16]
 8000efa:	601a      	str	r2, [r3, #0]

      /* In case of Output or Alternate function mode selection */
      if((GPIO_Init->Mode == GPIO_MODE_OUTPUT_PP) || (GPIO_Init->Mode == GPIO_MODE_AF_PP) ||
 8000efc:	683b      	ldr	r3, [r7, #0]
 8000efe:	685b      	ldr	r3, [r3, #4]
 8000f00:	2b01      	cmp	r3, #1
 8000f02:	d00b      	beq.n	8000f1c <HAL_GPIO_Init+0xdc>
 8000f04:	683b      	ldr	r3, [r7, #0]
 8000f06:	685b      	ldr	r3, [r3, #4]
 8000f08:	2b02      	cmp	r3, #2
 8000f0a:	d007      	beq.n	8000f1c <HAL_GPIO_Init+0xdc>
         (GPIO_Init->Mode == GPIO_MODE_OUTPUT_OD) || (GPIO_Init->Mode == GPIO_MODE_AF_OD))
 8000f0c:	683b      	ldr	r3, [r7, #0]
 8000f0e:	685b      	ldr	r3, [r3, #4]
      if((GPIO_Init->Mode == GPIO_MODE_OUTPUT_PP) || (GPIO_Init->Mode == GPIO_MODE_AF_PP) ||
 8000f10:	2b11      	cmp	r3, #17
 8000f12:	d003      	beq.n	8000f1c <HAL_GPIO_Init+0xdc>
         (GPIO_Init->Mode == GPIO_MODE_OUTPUT_OD) || (GPIO_Init->Mode == GPIO_MODE_AF_OD))
 8000f14:	683b      	ldr	r3, [r7, #0]
 8000f16:	685b      	ldr	r3, [r3, #4]
 8000f18:	2b12      	cmp	r3, #18
 8000f1a:	d130      	bne.n	8000f7e <HAL_GPIO_Init+0x13e>
      {
        /* Check the Speed parameter */
        assert_param(IS_GPIO_SPEED(GPIO_Init->Speed));
        /* Configure the IO Speed */
        temp = GPIOx->OSPEEDR;
 8000f1c:	687b      	ldr	r3, [r7, #4]
 8000f1e:	689b      	ldr	r3, [r3, #8]
 8000f20:	613b      	str	r3, [r7, #16]
        temp &= ~(GPIO_OSPEEDER_OSPEEDR0 << (position * 2U));
 8000f22:	697b      	ldr	r3, [r7, #20]
 8000f24:	005b      	lsls	r3, r3, #1
 8000f26:	2203      	movs	r2, #3
 8000f28:	fa02 f303 	lsl.w	r3, r2, r3
 8000f2c:	43db      	mvns	r3, r3
 8000f2e:	693a      	ldr	r2, [r7, #16]
 8000f30:	4013      	ands	r3, r2
 8000f32:	613b      	str	r3, [r7, #16]
        temp |= (GPIO_Init->Speed << (position * 2U));
 8000f34:	683b      	ldr	r3, [r7, #0]
 8000f36:	68da      	ldr	r2, [r3, #12]
 8000f38:	697b      	ldr	r3, [r7, #20]
 8000f3a:	005b      	lsls	r3, r3, #1
 8000f3c:	fa02 f303 	lsl.w	r3, r2, r3
 8000f40:	693a      	ldr	r2, [r7, #16]
 8000f42:	4313      	orrs	r3, r2
 8000f44:	613b      	str	r3, [r7, #16]
        GPIOx->OSPEEDR = temp;
 8000f46:	687b      	ldr	r3, [r7, #4]
 8000f48:	693a      	ldr	r2, [r7, #16]
 8000f4a:	609a      	str	r2, [r3, #8]

        /* Configure the IO Output Type */
        temp = GPIOx->OTYPER;
 8000f4c:	687b      	ldr	r3, [r7, #4]
 8000f4e:	685b      	ldr	r3, [r3, #4]
 8000f50:	613b      	str	r3, [r7, #16]
        temp &= ~(GPIO_OTYPER_OT_0 << position) ;
 8000f52:	2201      	movs	r2, #1
 8000f54:	697b      	ldr	r3, [r7, #20]
 8000f56:	fa02 f303 	lsl.w	r3, r2, r3
 8000f5a:	43db      	mvns	r3, r3
 8000f5c:	693a      	ldr	r2, [r7, #16]
 8000f5e:	4013      	ands	r3, r2
 8000f60:	613b      	str	r3, [r7, #16]
        temp |= (((GPIO_Init->Mode & GPIO_OUTPUT_TYPE) >> 4U) << position);
 8000f62:	683b      	ldr	r3, [r7, #0]
 8000f64:	685b      	ldr	r3, [r3, #4]
 8000f66:	091b      	lsrs	r3, r3, #4
 8000f68:	f003 0201 	and.w	r2, r3, #1
 8000f6c:	697b      	ldr	r3, [r7, #20]
 8000f6e:	fa02 f303 	lsl.w	r3, r2, r3
 8000f72:	693a      	ldr	r2, [r7, #16]
 8000f74:	4313      	orrs	r3, r2
 8000f76:	613b      	str	r3, [r7, #16]
        GPIOx->OTYPER = temp;
 8000f78:	687b      	ldr	r3, [r7, #4]
 8000f7a:	693a      	ldr	r2, [r7, #16]
 8000f7c:	605a      	str	r2, [r3, #4]
      }

      /* Activate the Pull-up or Pull down resistor for the current IO */
      temp = GPIOx->PUPDR;
 8000f7e:	687b      	ldr	r3, [r7, #4]
 8000f80:	68db      	ldr	r3, [r3, #12]
 8000f82:	613b      	str	r3, [r7, #16]
      temp &= ~(GPIO_PUPDR_PUPDR0 << (position * 2U));
 8000f84:	697b      	ldr	r3, [r7, #20]
 8000f86:	005b      	lsls	r3, r3, #1
 8000f88:	2203      	movs	r2, #3
 8000f8a:	fa02 f303 	lsl.w	r3, r2, r3
 8000f8e:	43db      	mvns	r3, r3
 8000f90:	693a      	ldr	r2, [r7, #16]
 8000f92:	4013      	ands	r3, r2
 8000f94:	613b      	str	r3, [r7, #16]
      temp |= ((GPIO_Init->Pull) << (position * 2U));
 8000f96:	683b      	ldr	r3, [r7, #0]
 8000f98:	689a      	ldr	r2, [r3, #8]
 8000f9a:	697b      	ldr	r3, [r7, #20]
 8000f9c:	005b      	lsls	r3, r3, #1
 8000f9e:	fa02 f303 	lsl.w	r3, r2, r3
 8000fa2:	693a      	ldr	r2, [r7, #16]
 8000fa4:	4313      	orrs	r3, r2
 8000fa6:	613b      	str	r3, [r7, #16]
      GPIOx->PUPDR = temp;
 8000fa8:	687b      	ldr	r3, [r7, #4]
 8000faa:	693a      	ldr	r2, [r7, #16]
 8000fac:	60da      	str	r2, [r3, #12]

      /*--------------------- EXTI Mode Configuration ------------------------*/
      /* Configure the External Interrupt or event for the current IO */
      if((GPIO_Init->Mode & EXTI_MODE) == EXTI_MODE)
 8000fae:	683b      	ldr	r3, [r7, #0]
 8000fb0:	685b      	ldr	r3, [r3, #4]
 8000fb2:	f003 5380 	and.w	r3, r3, #268435456	; 0x10000000
 8000fb6:	2b00      	cmp	r3, #0
 8000fb8:	f000 809a 	beq.w	80010f0 <HAL_GPIO_Init+0x2b0>
      {
        /* Enable SYSCFG Clock */
        __HAL_RCC_SYSCFG_CLK_ENABLE();
 8000fbc:	4b55      	ldr	r3, [pc, #340]	; (8001114 <HAL_GPIO_Init+0x2d4>)
 8000fbe:	699b      	ldr	r3, [r3, #24]
 8000fc0:	4a54      	ldr	r2, [pc, #336]	; (8001114 <HAL_GPIO_Init+0x2d4>)
 8000fc2:	f043 0301 	orr.w	r3, r3, #1
 8000fc6:	6193      	str	r3, [r2, #24]
 8000fc8:	4b52      	ldr	r3, [pc, #328]	; (8001114 <HAL_GPIO_Init+0x2d4>)
 8000fca:	699b      	ldr	r3, [r3, #24]
 8000fcc:	f003 0301 	and.w	r3, r3, #1
 8000fd0:	60bb      	str	r3, [r7, #8]
 8000fd2:	68bb      	ldr	r3, [r7, #8]

        temp = SYSCFG->EXTICR[position >> 2];
 8000fd4:	4a50      	ldr	r2, [pc, #320]	; (8001118 <HAL_GPIO_Init+0x2d8>)
 8000fd6:	697b      	ldr	r3, [r7, #20]
 8000fd8:	089b      	lsrs	r3, r3, #2
 8000fda:	3302      	adds	r3, #2
 8000fdc:	f852 3023 	ldr.w	r3, [r2, r3, lsl #2]
 8000fe0:	613b      	str	r3, [r7, #16]
        temp &= ~((0x0FU) << (4U * (position & 0x03U)));
 8000fe2:	697b      	ldr	r3, [r7, #20]
 8000fe4:	f003 0303 	and.w	r3, r3, #3
 8000fe8:	009b      	lsls	r3, r3, #2
 8000fea:	220f      	movs	r2, #15
 8000fec:	fa02 f303 	lsl.w	r3, r2, r3
 8000ff0:	43db      	mvns	r3, r3
 8000ff2:	693a      	ldr	r2, [r7, #16]
 8000ff4:	4013      	ands	r3, r2
 8000ff6:	613b      	str	r3, [r7, #16]
        temp |= (GPIO_GET_INDEX(GPIOx) << (4U * (position & 0x03U)));
 8000ff8:	687b      	ldr	r3, [r7, #4]
 8000ffa:	f1b3 4f90 	cmp.w	r3, #1207959552	; 0x48000000
 8000ffe:	d013      	beq.n	8001028 <HAL_GPIO_Init+0x1e8>
 8001000:	687b      	ldr	r3, [r7, #4]
 8001002:	4a46      	ldr	r2, [pc, #280]	; (800111c <HAL_GPIO_Init+0x2dc>)
 8001004:	4293      	cmp	r3, r2
 8001006:	d00d      	beq.n	8001024 <HAL_GPIO_Init+0x1e4>
 8001008:	687b      	ldr	r3, [r7, #4]
 800100a:	4a45      	ldr	r2, [pc, #276]	; (8001120 <HAL_GPIO_Init+0x2e0>)
 800100c:	4293      	cmp	r3, r2
 800100e:	d007      	beq.n	8001020 <HAL_GPIO_Init+0x1e0>
 8001010:	687b      	ldr	r3, [r7, #4]
 8001012:	4a44      	ldr	r2, [pc, #272]	; (8001124 <HAL_GPIO_Init+0x2e4>)
 8001014:	4293      	cmp	r3, r2
 8001016:	d101      	bne.n	800101c <HAL_GPIO_Init+0x1dc>
 8001018:	2303      	movs	r3, #3
 800101a:	e006      	b.n	800102a <HAL_GPIO_Init+0x1ea>
 800101c:	2305      	movs	r3, #5
 800101e:	e004      	b.n	800102a <HAL_GPIO_Init+0x1ea>
 8001020:	2302      	movs	r3, #2
 8001022:	e002      	b.n	800102a <HAL_GPIO_Init+0x1ea>
 8001024:	2301      	movs	r3, #1
 8001026:	e000      	b.n	800102a <HAL_GPIO_Init+0x1ea>
 8001028:	2300      	movs	r3, #0
 800102a:	697a      	ldr	r2, [r7, #20]
 800102c:	f002 0203 	and.w	r2, r2, #3
 8001030:	0092      	lsls	r2, r2, #2
 8001032:	4093      	lsls	r3, r2
 8001034:	693a      	ldr	r2, [r7, #16]
 8001036:	4313      	orrs	r3, r2
 8001038:	613b      	str	r3, [r7, #16]
        SYSCFG->EXTICR[position >> 2] = temp;
 800103a:	4937      	ldr	r1, [pc, #220]	; (8001118 <HAL_GPIO_Init+0x2d8>)
 800103c:	697b      	ldr	r3, [r7, #20]
 800103e:	089b      	lsrs	r3, r3, #2
 8001040:	3302      	adds	r3, #2
 8001042:	693a      	ldr	r2, [r7, #16]
 8001044:	f841 2023 	str.w	r2, [r1, r3, lsl #2]

        /* Clear EXTI line configuration */
        temp = EXTI->IMR;
 8001048:	4b37      	ldr	r3, [pc, #220]	; (8001128 <HAL_GPIO_Init+0x2e8>)
 800104a:	681b      	ldr	r3, [r3, #0]
 800104c:	613b      	str	r3, [r7, #16]
        temp &= ~((uint32_t)iocurrent);
 800104e:	68fb      	ldr	r3, [r7, #12]
 8001050:	43db      	mvns	r3, r3
 8001052:	693a      	ldr	r2, [r7, #16]
 8001054:	4013      	ands	r3, r2
 8001056:	613b      	str	r3, [r7, #16]
        if((GPIO_Init->Mode & GPIO_MODE_IT) == GPIO_MODE_IT)
 8001058:	683b      	ldr	r3, [r7, #0]
 800105a:	685b      	ldr	r3, [r3, #4]
 800105c:	f403 3380 	and.w	r3, r3, #65536	; 0x10000
 8001060:	2b00      	cmp	r3, #0
 8001062:	d003      	beq.n	800106c <HAL_GPIO_Init+0x22c>
        {
          temp |= iocurrent;
 8001064:	693a      	ldr	r2, [r7, #16]
 8001066:	68fb      	ldr	r3, [r7, #12]
 8001068:	4313      	orrs	r3, r2
 800106a:	613b      	str	r3, [r7, #16]
        }
        EXTI->IMR = temp;
 800106c:	4a2e      	ldr	r2, [pc, #184]	; (8001128 <HAL_GPIO_Init+0x2e8>)
 800106e:	693b      	ldr	r3, [r7, #16]
 8001070:	6013      	str	r3, [r2, #0]

        temp = EXTI->EMR;
 8001072:	4b2d      	ldr	r3, [pc, #180]	; (8001128 <HAL_GPIO_Init+0x2e8>)
 8001074:	685b      	ldr	r3, [r3, #4]
 8001076:	613b      	str	r3, [r7, #16]
        temp &= ~((uint32_t)iocurrent);
 8001078:	68fb      	ldr	r3, [r7, #12]
 800107a:	43db      	mvns	r3, r3
 800107c:	693a      	ldr	r2, [r7, #16]
 800107e:	4013      	ands	r3, r2
 8001080:	613b      	str	r3, [r7, #16]
        if((GPIO_Init->Mode & GPIO_MODE_EVT) == GPIO_MODE_EVT)
 8001082:	683b      	ldr	r3, [r7, #0]
 8001084:	685b      	ldr	r3, [r3, #4]
 8001086:	f403 3300 	and.w	r3, r3, #131072	; 0x20000
 800108a:	2b00      	cmp	r3, #0
 800108c:	d003      	beq.n	8001096 <HAL_GPIO_Init+0x256>
        {
          temp |= iocurrent;
 800108e:	693a      	ldr	r2, [r7, #16]
 8001090:	68fb      	ldr	r3, [r7, #12]
 8001092:	4313      	orrs	r3, r2
 8001094:	613b      	str	r3, [r7, #16]
        }
        EXTI->EMR = temp;
 8001096:	4a24      	ldr	r2, [pc, #144]	; (8001128 <HAL_GPIO_Init+0x2e8>)
 8001098:	693b      	ldr	r3, [r7, #16]
 800109a:	6053      	str	r3, [r2, #4]

        /* Clear Rising Falling edge configuration */
        temp = EXTI->RTSR;
 800109c:	4b22      	ldr	r3, [pc, #136]	; (8001128 <HAL_GPIO_Init+0x2e8>)
 800109e:	689b      	ldr	r3, [r3, #8]
 80010a0:	613b      	str	r3, [r7, #16]
        temp &= ~((uint32_t)iocurrent);
 80010a2:	68fb      	ldr	r3, [r7, #12]
 80010a4:	43db      	mvns	r3, r3
 80010a6:	693a      	ldr	r2, [r7, #16]
 80010a8:	4013      	ands	r3, r2
 80010aa:	613b      	str	r3, [r7, #16]
        if((GPIO_Init->Mode & RISING_EDGE) == RISING_EDGE)
 80010ac:	683b      	ldr	r3, [r7, #0]
 80010ae:	685b      	ldr	r3, [r3, #4]
 80010b0:	f403 1380 	and.w	r3, r3, #1048576	; 0x100000
 80010b4:	2b00      	cmp	r3, #0
 80010b6:	d003      	beq.n	80010c0 <HAL_GPIO_Init+0x280>
        {
          temp |= iocurrent;
 80010b8:	693a      	ldr	r2, [r7, #16]
 80010ba:	68fb      	ldr	r3, [r7, #12]
 80010bc:	4313      	orrs	r3, r2
 80010be:	613b      	str	r3, [r7, #16]
        }
        EXTI->RTSR = temp;
 80010c0:	4a19      	ldr	r2, [pc, #100]	; (8001128 <HAL_GPIO_Init+0x2e8>)
 80010c2:	693b      	ldr	r3, [r7, #16]
 80010c4:	6093      	str	r3, [r2, #8]

        temp = EXTI->FTSR;
 80010c6:	4b18      	ldr	r3, [pc, #96]	; (8001128 <HAL_GPIO_Init+0x2e8>)
 80010c8:	68db      	ldr	r3, [r3, #12]
 80010ca:	613b      	str	r3, [r7, #16]
        temp &= ~((uint32_t)iocurrent);
 80010cc:	68fb      	ldr	r3, [r7, #12]
 80010ce:	43db      	mvns	r3, r3
 80010d0:	693a      	ldr	r2, [r7, #16]
 80010d2:	4013      	ands	r3, r2
 80010d4:	613b      	str	r3, [r7, #16]
        if((GPIO_Init->Mode & FALLING_EDGE) == FALLING_EDGE)
 80010d6:	683b      	ldr	r3, [r7, #0]
 80010d8:	685b      	ldr	r3, [r3, #4]
 80010da:	f403 1300 	and.w	r3, r3, #2097152	; 0x200000
 80010de:	2b00      	cmp	r3, #0
 80010e0:	d003      	beq.n	80010ea <HAL_GPIO_Init+0x2aa>
        {
          temp |= iocurrent;
 80010e2:	693a      	ldr	r2, [r7, #16]
 80010e4:	68fb      	ldr	r3, [r7, #12]
 80010e6:	4313      	orrs	r3, r2
 80010e8:	613b      	str	r3, [r7, #16]
        }
        EXTI->FTSR = temp;
 80010ea:	4a0f      	ldr	r2, [pc, #60]	; (8001128 <HAL_GPIO_Init+0x2e8>)
 80010ec:	693b      	ldr	r3, [r7, #16]
 80010ee:	60d3      	str	r3, [r2, #12]
      }
    }
    
    position++;
 80010f0:	697b      	ldr	r3, [r7, #20]
 80010f2:	3301      	adds	r3, #1
 80010f4:	617b      	str	r3, [r7, #20]
  while (((GPIO_Init->Pin) >> position) != RESET)
 80010f6:	683b      	ldr	r3, [r7, #0]
 80010f8:	681a      	ldr	r2, [r3, #0]
 80010fa:	697b      	ldr	r3, [r7, #20]
 80010fc:	fa22 f303 	lsr.w	r3, r2, r3
 8001100:	2b00      	cmp	r3, #0
 8001102:	f47f aea9 	bne.w	8000e58 <HAL_GPIO_Init+0x18>
  }
}
 8001106:	bf00      	nop
 8001108:	371c      	adds	r7, #28
 800110a:	46bd      	mov	sp, r7
 800110c:	f85d 7b04 	ldr.w	r7, [sp], #4
 8001110:	4770      	bx	lr
 8001112:	bf00      	nop
 8001114:	40021000 	.word	0x40021000
 8001118:	40010000 	.word	0x40010000
 800111c:	48000400 	.word	0x48000400
 8001120:	48000800 	.word	0x48000800
 8001124:	48000c00 	.word	0x48000c00
 8001128:	40010400 	.word	0x40010400

0800112c <HAL_RCC_OscConfig>:
  *         supported by this macro. User should request a transition to HSE Off
  *         first and then HSE On or HSE Bypass.
  * @retval HAL status
  */
HAL_StatusTypeDef HAL_RCC_OscConfig(RCC_OscInitTypeDef  *RCC_OscInitStruct)
{
 800112c:	b580      	push	{r7, lr}
 800112e:	f5ad 7d00 	sub.w	sp, sp, #512	; 0x200
 8001132:	af00      	add	r7, sp, #0
 8001134:	1d3b      	adds	r3, r7, #4
 8001136:	6018      	str	r0, [r3, #0]
  uint32_t tickstart;

  /* Check Null pointer */
  if(RCC_OscInitStruct == NULL)
 8001138:	1d3b      	adds	r3, r7, #4
 800113a:	681b      	ldr	r3, [r3, #0]
 800113c:	2b00      	cmp	r3, #0
 800113e:	d102      	bne.n	8001146 <HAL_RCC_OscConfig+0x1a>
  {
    return HAL_ERROR;
 8001140:	2301      	movs	r3, #1
 8001142:	f000 beda 	b.w	8001efa <HAL_RCC_OscConfig+0xdce>

  /* Check the parameters */
  assert_param(IS_RCC_OSCILLATORTYPE(RCC_OscInitStruct->OscillatorType));

  /*------------------------------- HSE Configuration ------------------------*/ 
  if(((RCC_OscInitStruct->OscillatorType) & RCC_OSCILLATORTYPE_HSE) == RCC_OSCILLATORTYPE_HSE)
 8001146:	1d3b      	adds	r3, r7, #4
 8001148:	681b      	ldr	r3, [r3, #0]
 800114a:	681b      	ldr	r3, [r3, #0]
 800114c:	f003 0301 	and.w	r3, r3, #1
 8001150:	2b00      	cmp	r3, #0
 8001152:	f000 816e 	beq.w	8001432 <HAL_RCC_OscConfig+0x306>
  {
    /* Check the parameters */
    assert_param(IS_RCC_HSE(RCC_OscInitStruct->HSEState));

    /* When the HSE is used as system clock or clock source for PLL in these cases it is not allowed to be disabled */
    if((__HAL_RCC_GET_SYSCLK_SOURCE() == RCC_SYSCLKSOURCE_STATUS_HSE) 
 8001156:	4bb5      	ldr	r3, [pc, #724]	; (800142c <HAL_RCC_OscConfig+0x300>)
 8001158:	685b      	ldr	r3, [r3, #4]
 800115a:	f003 030c 	and.w	r3, r3, #12
 800115e:	2b04      	cmp	r3, #4
 8001160:	d00c      	beq.n	800117c <HAL_RCC_OscConfig+0x50>
       || ((__HAL_RCC_GET_SYSCLK_SOURCE() == RCC_SYSCLKSOURCE_STATUS_PLLCLK) && (__HAL_RCC_GET_PLL_OSCSOURCE() == RCC_PLLSOURCE_HSE)))
 8001162:	4bb2      	ldr	r3, [pc, #712]	; (800142c <HAL_RCC_OscConfig+0x300>)
 8001164:	685b      	ldr	r3, [r3, #4]
 8001166:	f003 030c 	and.w	r3, r3, #12
 800116a:	2b08      	cmp	r3, #8
 800116c:	d15a      	bne.n	8001224 <HAL_RCC_OscConfig+0xf8>
 800116e:	4baf      	ldr	r3, [pc, #700]	; (800142c <HAL_RCC_OscConfig+0x300>)
 8001170:	685b      	ldr	r3, [r3, #4]
 8001172:	f403 3380 	and.w	r3, r3, #65536	; 0x10000
 8001176:	f5b3 3f80 	cmp.w	r3, #65536	; 0x10000
 800117a:	d153      	bne.n	8001224 <HAL_RCC_OscConfig+0xf8>
 800117c:	f44f 3300 	mov.w	r3, #131072	; 0x20000
 8001180:	f8c7 31f4 	str.w	r3, [r7, #500]	; 0x1f4
__attribute__((always_inline)) __STATIC_INLINE uint32_t __RBIT(uint32_t value)
{
  uint32_t result;

#if       (__CORTEX_M >= 0x03U) || (__CORTEX_SC >= 300U)
   __ASM volatile ("rbit %0, %1" : "=r" (result) : "r" (value) );
 8001184:	f8d7 31f4 	ldr.w	r3, [r7, #500]	; 0x1f4
 8001188:	fa93 f3a3 	rbit	r3, r3
 800118c:	f8c7 31f0 	str.w	r3, [r7, #496]	; 0x1f0
    result |= value & 1U;
    s--;
  }
  result <<= s;                        /* shift when v's highest bits are zero */
#endif
  return(result);
 8001190:	f8d7 31f0 	ldr.w	r3, [r7, #496]	; 0x1f0
    {
      if((__HAL_RCC_GET_FLAG(RCC_FLAG_HSERDY) != RESET) && (RCC_OscInitStruct->HSEState == RCC_HSE_OFF))
 8001194:	fab3 f383 	clz	r3, r3
 8001198:	b2db      	uxtb	r3, r3
 800119a:	095b      	lsrs	r3, r3, #5
 800119c:	b2db      	uxtb	r3, r3
 800119e:	f043 0301 	orr.w	r3, r3, #1
 80011a2:	b2db      	uxtb	r3, r3
 80011a4:	2b01      	cmp	r3, #1
 80011a6:	d102      	bne.n	80011ae <HAL_RCC_OscConfig+0x82>
 80011a8:	4ba0      	ldr	r3, [pc, #640]	; (800142c <HAL_RCC_OscConfig+0x300>)
 80011aa:	681b      	ldr	r3, [r3, #0]
 80011ac:	e015      	b.n	80011da <HAL_RCC_OscConfig+0xae>
 80011ae:	f44f 3300 	mov.w	r3, #131072	; 0x20000
 80011b2:	f8c7 31ec 	str.w	r3, [r7, #492]	; 0x1ec
   __ASM volatile ("rbit %0, %1" : "=r" (result) : "r" (value) );
 80011b6:	f8d7 31ec 	ldr.w	r3, [r7, #492]	; 0x1ec
 80011ba:	fa93 f3a3 	rbit	r3, r3
 80011be:	f8c7 31e8 	str.w	r3, [r7, #488]	; 0x1e8
 80011c2:	f44f 3300 	mov.w	r3, #131072	; 0x20000
 80011c6:	f8c7 31e4 	str.w	r3, [r7, #484]	; 0x1e4
 80011ca:	f8d7 31e4 	ldr.w	r3, [r7, #484]	; 0x1e4
 80011ce:	fa93 f3a3 	rbit	r3, r3
 80011d2:	f8c7 31e0 	str.w	r3, [r7, #480]	; 0x1e0
 80011d6:	4b95      	ldr	r3, [pc, #596]	; (800142c <HAL_RCC_OscConfig+0x300>)
 80011d8:	6a5b      	ldr	r3, [r3, #36]	; 0x24
 80011da:	f44f 3200 	mov.w	r2, #131072	; 0x20000
 80011de:	f8c7 21dc 	str.w	r2, [r7, #476]	; 0x1dc
 80011e2:	f8d7 21dc 	ldr.w	r2, [r7, #476]	; 0x1dc
 80011e6:	fa92 f2a2 	rbit	r2, r2
 80011ea:	f8c7 21d8 	str.w	r2, [r7, #472]	; 0x1d8
  return(result);
 80011ee:	f8d7 21d8 	ldr.w	r2, [r7, #472]	; 0x1d8
 80011f2:	fab2 f282 	clz	r2, r2
 80011f6:	b252      	sxtb	r2, r2
 80011f8:	f042 0220 	orr.w	r2, r2, #32
 80011fc:	b252      	sxtb	r2, r2
 80011fe:	b2d2      	uxtb	r2, r2
 8001200:	f002 021f 	and.w	r2, r2, #31
 8001204:	2101      	movs	r1, #1
 8001206:	fa01 f202 	lsl.w	r2, r1, r2
 800120a:	4013      	ands	r3, r2
 800120c:	2b00      	cmp	r3, #0
 800120e:	f000 810f 	beq.w	8001430 <HAL_RCC_OscConfig+0x304>
 8001212:	1d3b      	adds	r3, r7, #4
 8001214:	681b      	ldr	r3, [r3, #0]
 8001216:	685b      	ldr	r3, [r3, #4]
 8001218:	2b00      	cmp	r3, #0
 800121a:	f040 8109 	bne.w	8001430 <HAL_RCC_OscConfig+0x304>
      {
        return HAL_ERROR;
 800121e:	2301      	movs	r3, #1
 8001220:	f000 be6b 	b.w	8001efa <HAL_RCC_OscConfig+0xdce>
      }
    }
    else
    {
      /* Set the new HSE configuration ---------------------------------------*/
      __HAL_RCC_HSE_CONFIG(RCC_OscInitStruct->HSEState);
 8001224:	1d3b      	adds	r3, r7, #4
 8001226:	681b      	ldr	r3, [r3, #0]
 8001228:	685b      	ldr	r3, [r3, #4]
 800122a:	f5b3 3f80 	cmp.w	r3, #65536	; 0x10000
 800122e:	d106      	bne.n	800123e <HAL_RCC_OscConfig+0x112>
 8001230:	4b7e      	ldr	r3, [pc, #504]	; (800142c <HAL_RCC_OscConfig+0x300>)
 8001232:	681b      	ldr	r3, [r3, #0]
 8001234:	4a7d      	ldr	r2, [pc, #500]	; (800142c <HAL_RCC_OscConfig+0x300>)
 8001236:	f443 3380 	orr.w	r3, r3, #65536	; 0x10000
 800123a:	6013      	str	r3, [r2, #0]
 800123c:	e030      	b.n	80012a0 <HAL_RCC_OscConfig+0x174>
 800123e:	1d3b      	adds	r3, r7, #4
 8001240:	681b      	ldr	r3, [r3, #0]
 8001242:	685b      	ldr	r3, [r3, #4]
 8001244:	2b00      	cmp	r3, #0
 8001246:	d10c      	bne.n	8001262 <HAL_RCC_OscConfig+0x136>
 8001248:	4b78      	ldr	r3, [pc, #480]	; (800142c <HAL_RCC_OscConfig+0x300>)
 800124a:	681b      	ldr	r3, [r3, #0]
 800124c:	4a77      	ldr	r2, [pc, #476]	; (800142c <HAL_RCC_OscConfig+0x300>)
 800124e:	f423 3380 	bic.w	r3, r3, #65536	; 0x10000
 8001252:	6013      	str	r3, [r2, #0]
 8001254:	4b75      	ldr	r3, [pc, #468]	; (800142c <HAL_RCC_OscConfig+0x300>)
 8001256:	681b      	ldr	r3, [r3, #0]
 8001258:	4a74      	ldr	r2, [pc, #464]	; (800142c <HAL_RCC_OscConfig+0x300>)
 800125a:	f423 2380 	bic.w	r3, r3, #262144	; 0x40000
 800125e:	6013      	str	r3, [r2, #0]
 8001260:	e01e      	b.n	80012a0 <HAL_RCC_OscConfig+0x174>
 8001262:	1d3b      	adds	r3, r7, #4
 8001264:	681b      	ldr	r3, [r3, #0]
 8001266:	685b      	ldr	r3, [r3, #4]
 8001268:	f5b3 2fa0 	cmp.w	r3, #327680	; 0x50000
 800126c:	d10c      	bne.n	8001288 <HAL_RCC_OscConfig+0x15c>
 800126e:	4b6f      	ldr	r3, [pc, #444]	; (800142c <HAL_RCC_OscConfig+0x300>)
 8001270:	681b      	ldr	r3, [r3, #0]
 8001272:	4a6e      	ldr	r2, [pc, #440]	; (800142c <HAL_RCC_OscConfig+0x300>)
 8001274:	f443 2380 	orr.w	r3, r3, #262144	; 0x40000
 8001278:	6013      	str	r3, [r2, #0]
 800127a:	4b6c      	ldr	r3, [pc, #432]	; (800142c <HAL_RCC_OscConfig+0x300>)
 800127c:	681b      	ldr	r3, [r3, #0]
 800127e:	4a6b      	ldr	r2, [pc, #428]	; (800142c <HAL_RCC_OscConfig+0x300>)
 8001280:	f443 3380 	orr.w	r3, r3, #65536	; 0x10000
 8001284:	6013      	str	r3, [r2, #0]
 8001286:	e00b      	b.n	80012a0 <HAL_RCC_OscConfig+0x174>
 8001288:	4b68      	ldr	r3, [pc, #416]	; (800142c <HAL_RCC_OscConfig+0x300>)
 800128a:	681b      	ldr	r3, [r3, #0]
 800128c:	4a67      	ldr	r2, [pc, #412]	; (800142c <HAL_RCC_OscConfig+0x300>)
 800128e:	f423 3380 	bic.w	r3, r3, #65536	; 0x10000
 8001292:	6013      	str	r3, [r2, #0]
 8001294:	4b65      	ldr	r3, [pc, #404]	; (800142c <HAL_RCC_OscConfig+0x300>)
 8001296:	681b      	ldr	r3, [r3, #0]
 8001298:	4a64      	ldr	r2, [pc, #400]	; (800142c <HAL_RCC_OscConfig+0x300>)
 800129a:	f423 2380 	bic.w	r3, r3, #262144	; 0x40000
 800129e:	6013      	str	r3, [r2, #0]
      
#if defined(RCC_CFGR_PLLSRC_HSI_DIV2)
      /* Configure the HSE predivision factor --------------------------------*/
      __HAL_RCC_HSE_PREDIV_CONFIG(RCC_OscInitStruct->HSEPredivValue);
 80012a0:	4b62      	ldr	r3, [pc, #392]	; (800142c <HAL_RCC_OscConfig+0x300>)
 80012a2:	6adb      	ldr	r3, [r3, #44]	; 0x2c
 80012a4:	f023 020f 	bic.w	r2, r3, #15
 80012a8:	1d3b      	adds	r3, r7, #4
 80012aa:	681b      	ldr	r3, [r3, #0]
 80012ac:	689b      	ldr	r3, [r3, #8]
 80012ae:	495f      	ldr	r1, [pc, #380]	; (800142c <HAL_RCC_OscConfig+0x300>)
 80012b0:	4313      	orrs	r3, r2
 80012b2:	62cb      	str	r3, [r1, #44]	; 0x2c
#endif /* RCC_CFGR_PLLSRC_HSI_DIV2 */

       /* Check the HSE State */
      if(RCC_OscInitStruct->HSEState != RCC_HSE_OFF)
 80012b4:	1d3b      	adds	r3, r7, #4
 80012b6:	681b      	ldr	r3, [r3, #0]
 80012b8:	685b      	ldr	r3, [r3, #4]
 80012ba:	2b00      	cmp	r3, #0
 80012bc:	d05a      	beq.n	8001374 <HAL_RCC_OscConfig+0x248>
      {
        /* Get Start Tick */
        tickstart = HAL_GetTick();
 80012be:	f7ff fcab 	bl	8000c18 <HAL_GetTick>
 80012c2:	f8c7 01f8 	str.w	r0, [r7, #504]	; 0x1f8
        
        /* Wait till HSE is ready */
        while(__HAL_RCC_GET_FLAG(RCC_FLAG_HSERDY) == RESET)
 80012c6:	e00a      	b.n	80012de <HAL_RCC_OscConfig+0x1b2>
        {
          if((HAL_GetTick() - tickstart ) > HSE_TIMEOUT_VALUE)
 80012c8:	f7ff fca6 	bl	8000c18 <HAL_GetTick>
 80012cc:	4602      	mov	r2, r0
 80012ce:	f8d7 31f8 	ldr.w	r3, [r7, #504]	; 0x1f8
 80012d2:	1ad3      	subs	r3, r2, r3
 80012d4:	2b64      	cmp	r3, #100	; 0x64
 80012d6:	d902      	bls.n	80012de <HAL_RCC_OscConfig+0x1b2>
          {
            return HAL_TIMEOUT;
 80012d8:	2303      	movs	r3, #3
 80012da:	f000 be0e 	b.w	8001efa <HAL_RCC_OscConfig+0xdce>
 80012de:	f44f 3300 	mov.w	r3, #131072	; 0x20000
 80012e2:	f8c7 31d4 	str.w	r3, [r7, #468]	; 0x1d4
   __ASM volatile ("rbit %0, %1" : "=r" (result) : "r" (value) );
 80012e6:	f8d7 31d4 	ldr.w	r3, [r7, #468]	; 0x1d4
 80012ea:	fa93 f3a3 	rbit	r3, r3
 80012ee:	f8c7 31d0 	str.w	r3, [r7, #464]	; 0x1d0
  return(result);
 80012f2:	f8d7 31d0 	ldr.w	r3, [r7, #464]	; 0x1d0
        while(__HAL_RCC_GET_FLAG(RCC_FLAG_HSERDY) == RESET)
 80012f6:	fab3 f383 	clz	r3, r3
 80012fa:	b2db      	uxtb	r3, r3
 80012fc:	095b      	lsrs	r3, r3, #5
 80012fe:	b2db      	uxtb	r3, r3
 8001300:	f043 0301 	orr.w	r3, r3, #1
 8001304:	b2db      	uxtb	r3, r3
 8001306:	2b01      	cmp	r3, #1
 8001308:	d102      	bne.n	8001310 <HAL_RCC_OscConfig+0x1e4>
 800130a:	4b48      	ldr	r3, [pc, #288]	; (800142c <HAL_RCC_OscConfig+0x300>)
 800130c:	681b      	ldr	r3, [r3, #0]
 800130e:	e015      	b.n	800133c <HAL_RCC_OscConfig+0x210>
 8001310:	f44f 3300 	mov.w	r3, #131072	; 0x20000
 8001314:	f8c7 31cc 	str.w	r3, [r7, #460]	; 0x1cc
   __ASM volatile ("rbit %0, %1" : "=r" (result) : "r" (value) );
 8001318:	f8d7 31cc 	ldr.w	r3, [r7, #460]	; 0x1cc
 800131c:	fa93 f3a3 	rbit	r3, r3
 8001320:	f8c7 31c8 	str.w	r3, [r7, #456]	; 0x1c8
 8001324:	f44f 3300 	mov.w	r3, #131072	; 0x20000
 8001328:	f8c7 31c4 	str.w	r3, [r7, #452]	; 0x1c4
 800132c:	f8d7 31c4 	ldr.w	r3, [r7, #452]	; 0x1c4
 8001330:	fa93 f3a3 	rbit	r3, r3
 8001334:	f8c7 31c0 	str.w	r3, [r7, #448]	; 0x1c0
 8001338:	4b3c      	ldr	r3, [pc, #240]	; (800142c <HAL_RCC_OscConfig+0x300>)
 800133a:	6a5b      	ldr	r3, [r3, #36]	; 0x24
 800133c:	f44f 3200 	mov.w	r2, #131072	; 0x20000
 8001340:	f8c7 21bc 	str.w	r2, [r7, #444]	; 0x1bc
 8001344:	f8d7 21bc 	ldr.w	r2, [r7, #444]	; 0x1bc
 8001348:	fa92 f2a2 	rbit	r2, r2
 800134c:	f8c7 21b8 	str.w	r2, [r7, #440]	; 0x1b8
  return(result);
 8001350:	f8d7 21b8 	ldr.w	r2, [r7, #440]	; 0x1b8
 8001354:	fab2 f282 	clz	r2, r2
 8001358:	b252      	sxtb	r2, r2
 800135a:	f042 0220 	orr.w	r2, r2, #32
 800135e:	b252      	sxtb	r2, r2
 8001360:	b2d2      	uxtb	r2, r2
 8001362:	f002 021f 	and.w	r2, r2, #31
 8001366:	2101      	movs	r1, #1
 8001368:	fa01 f202 	lsl.w	r2, r1, r2
 800136c:	4013      	ands	r3, r2
 800136e:	2b00      	cmp	r3, #0
 8001370:	d0aa      	beq.n	80012c8 <HAL_RCC_OscConfig+0x19c>
 8001372:	e05e      	b.n	8001432 <HAL_RCC_OscConfig+0x306>
        }
      }
      else
      {
        /* Get Start Tick */
        tickstart = HAL_GetTick();
 8001374:	f7ff fc50 	bl	8000c18 <HAL_GetTick>
 8001378:	f8c7 01f8 	str.w	r0, [r7, #504]	; 0x1f8
        
        /* Wait till HSE is disabled */
        while(__HAL_RCC_GET_FLAG(RCC_FLAG_HSERDY) != RESET)
 800137c:	e00a      	b.n	8001394 <HAL_RCC_OscConfig+0x268>
        {
           if((HAL_GetTick() - tickstart ) > HSE_TIMEOUT_VALUE)
 800137e:	f7ff fc4b 	bl	8000c18 <HAL_GetTick>
 8001382:	4602      	mov	r2, r0
 8001384:	f8d7 31f8 	ldr.w	r3, [r7, #504]	; 0x1f8
 8001388:	1ad3      	subs	r3, r2, r3
 800138a:	2b64      	cmp	r3, #100	; 0x64
 800138c:	d902      	bls.n	8001394 <HAL_RCC_OscConfig+0x268>
          {
            return HAL_TIMEOUT;
 800138e:	2303      	movs	r3, #3
 8001390:	f000 bdb3 	b.w	8001efa <HAL_RCC_OscConfig+0xdce>
 8001394:	f44f 3300 	mov.w	r3, #131072	; 0x20000
 8001398:	f8c7 31b4 	str.w	r3, [r7, #436]	; 0x1b4
   __ASM volatile ("rbit %0, %1" : "=r" (result) : "r" (value) );
 800139c:	f8d7 31b4 	ldr.w	r3, [r7, #436]	; 0x1b4
 80013a0:	fa93 f3a3 	rbit	r3, r3
 80013a4:	f8c7 31b0 	str.w	r3, [r7, #432]	; 0x1b0
  return(result);
 80013a8:	f8d7 31b0 	ldr.w	r3, [r7, #432]	; 0x1b0
        while(__HAL_RCC_GET_FLAG(RCC_FLAG_HSERDY) != RESET)
 80013ac:	fab3 f383 	clz	r3, r3
 80013b0:	b2db      	uxtb	r3, r3
 80013b2:	095b      	lsrs	r3, r3, #5
 80013b4:	b2db      	uxtb	r3, r3
 80013b6:	f043 0301 	orr.w	r3, r3, #1
 80013ba:	b2db      	uxtb	r3, r3
 80013bc:	2b01      	cmp	r3, #1
 80013be:	d102      	bne.n	80013c6 <HAL_RCC_OscConfig+0x29a>
 80013c0:	4b1a      	ldr	r3, [pc, #104]	; (800142c <HAL_RCC_OscConfig+0x300>)
 80013c2:	681b      	ldr	r3, [r3, #0]
 80013c4:	e015      	b.n	80013f2 <HAL_RCC_OscConfig+0x2c6>
 80013c6:	f44f 3300 	mov.w	r3, #131072	; 0x20000
 80013ca:	f8c7 31ac 	str.w	r3, [r7, #428]	; 0x1ac
   __ASM volatile ("rbit %0, %1" : "=r" (result) : "r" (value) );
 80013ce:	f8d7 31ac 	ldr.w	r3, [r7, #428]	; 0x1ac
 80013d2:	fa93 f3a3 	rbit	r3, r3
 80013d6:	f8c7 31a8 	str.w	r3, [r7, #424]	; 0x1a8
 80013da:	f44f 3300 	mov.w	r3, #131072	; 0x20000
 80013de:	f8c7 31a4 	str.w	r3, [r7, #420]	; 0x1a4
 80013e2:	f8d7 31a4 	ldr.w	r3, [r7, #420]	; 0x1a4
 80013e6:	fa93 f3a3 	rbit	r3, r3
 80013ea:	f8c7 31a0 	str.w	r3, [r7, #416]	; 0x1a0
 80013ee:	4b0f      	ldr	r3, [pc, #60]	; (800142c <HAL_RCC_OscConfig+0x300>)
 80013f0:	6a5b      	ldr	r3, [r3, #36]	; 0x24
 80013f2:	f44f 3200 	mov.w	r2, #131072	; 0x20000
 80013f6:	f8c7 219c 	str.w	r2, [r7, #412]	; 0x19c
 80013fa:	f8d7 219c 	ldr.w	r2, [r7, #412]	; 0x19c
 80013fe:	fa92 f2a2 	rbit	r2, r2
 8001402:	f8c7 2198 	str.w	r2, [r7, #408]	; 0x198
  return(result);
 8001406:	f8d7 2198 	ldr.w	r2, [r7, #408]	; 0x198
 800140a:	fab2 f282 	clz	r2, r2
 800140e:	b252      	sxtb	r2, r2
 8001410:	f042 0220 	orr.w	r2, r2, #32
 8001414:	b252      	sxtb	r2, r2
 8001416:	b2d2      	uxtb	r2, r2
 8001418:	f002 021f 	and.w	r2, r2, #31
 800141c:	2101      	movs	r1, #1
 800141e:	fa01 f202 	lsl.w	r2, r1, r2
 8001422:	4013      	ands	r3, r2
 8001424:	2b00      	cmp	r3, #0
 8001426:	d1aa      	bne.n	800137e <HAL_RCC_OscConfig+0x252>
 8001428:	e003      	b.n	8001432 <HAL_RCC_OscConfig+0x306>
 800142a:	bf00      	nop
 800142c:	40021000 	.word	0x40021000
      if((__HAL_RCC_GET_FLAG(RCC_FLAG_HSERDY) != RESET) && (RCC_OscInitStruct->HSEState == RCC_HSE_OFF))
 8001430:	bf00      	nop
        }
      }
    }
  }
  /*----------------------------- HSI Configuration --------------------------*/ 
  if(((RCC_OscInitStruct->OscillatorType) & RCC_OSCILLATORTYPE_HSI) == RCC_OSCILLATORTYPE_HSI)
 8001432:	1d3b      	adds	r3, r7, #4
 8001434:	681b      	ldr	r3, [r3, #0]
 8001436:	681b      	ldr	r3, [r3, #0]
 8001438:	f003 0302 	and.w	r3, r3, #2
 800143c:	2b00      	cmp	r3, #0
 800143e:	f000 8170 	beq.w	8001722 <HAL_RCC_OscConfig+0x5f6>
    /* Check the parameters */
    assert_param(IS_RCC_HSI(RCC_OscInitStruct->HSIState));
    assert_param(IS_RCC_CALIBRATION_VALUE(RCC_OscInitStruct->HSICalibrationValue));
    
    /* Check if HSI is used as system clock or as PLL source when PLL is selected as system clock */ 
    if((__HAL_RCC_GET_SYSCLK_SOURCE() == RCC_SYSCLKSOURCE_STATUS_HSI) 
 8001442:	4bd0      	ldr	r3, [pc, #832]	; (8001784 <HAL_RCC_OscConfig+0x658>)
 8001444:	685b      	ldr	r3, [r3, #4]
 8001446:	f003 030c 	and.w	r3, r3, #12
 800144a:	2b00      	cmp	r3, #0
 800144c:	d00b      	beq.n	8001466 <HAL_RCC_OscConfig+0x33a>
       || ((__HAL_RCC_GET_SYSCLK_SOURCE() == RCC_SYSCLKSOURCE_STATUS_PLLCLK) && (__HAL_RCC_GET_PLL_OSCSOURCE() == RCC_PLLSOURCE_HSI)))
 800144e:	4bcd      	ldr	r3, [pc, #820]	; (8001784 <HAL_RCC_OscConfig+0x658>)
 8001450:	685b      	ldr	r3, [r3, #4]
 8001452:	f003 030c 	and.w	r3, r3, #12
 8001456:	2b08      	cmp	r3, #8
 8001458:	d16d      	bne.n	8001536 <HAL_RCC_OscConfig+0x40a>
 800145a:	4bca      	ldr	r3, [pc, #808]	; (8001784 <HAL_RCC_OscConfig+0x658>)
 800145c:	685b      	ldr	r3, [r3, #4]
 800145e:	f403 3380 	and.w	r3, r3, #65536	; 0x10000
 8001462:	2b00      	cmp	r3, #0
 8001464:	d167      	bne.n	8001536 <HAL_RCC_OscConfig+0x40a>
 8001466:	2302      	movs	r3, #2
 8001468:	f8c7 3194 	str.w	r3, [r7, #404]	; 0x194
   __ASM volatile ("rbit %0, %1" : "=r" (result) : "r" (value) );
 800146c:	f8d7 3194 	ldr.w	r3, [r7, #404]	; 0x194
 8001470:	fa93 f3a3 	rbit	r3, r3
 8001474:	f8c7 3190 	str.w	r3, [r7, #400]	; 0x190
  return(result);
 8001478:	f8d7 3190 	ldr.w	r3, [r7, #400]	; 0x190
    {
      /* When HSI is used as system clock it will not disabled */
      if((__HAL_RCC_GET_FLAG(RCC_FLAG_HSIRDY) != RESET) && (RCC_OscInitStruct->HSIState != RCC_HSI_ON))
 800147c:	fab3 f383 	clz	r3, r3
 8001480:	b2db      	uxtb	r3, r3
 8001482:	095b      	lsrs	r3, r3, #5
 8001484:	b2db      	uxtb	r3, r3
 8001486:	f043 0301 	orr.w	r3, r3, #1
 800148a:	b2db      	uxtb	r3, r3
 800148c:	2b01      	cmp	r3, #1
 800148e:	d102      	bne.n	8001496 <HAL_RCC_OscConfig+0x36a>
 8001490:	4bbc      	ldr	r3, [pc, #752]	; (8001784 <HAL_RCC_OscConfig+0x658>)
 8001492:	681b      	ldr	r3, [r3, #0]
 8001494:	e013      	b.n	80014be <HAL_RCC_OscConfig+0x392>
 8001496:	2302      	movs	r3, #2
 8001498:	f8c7 318c 	str.w	r3, [r7, #396]	; 0x18c
   __ASM volatile ("rbit %0, %1" : "=r" (result) : "r" (value) );
 800149c:	f8d7 318c 	ldr.w	r3, [r7, #396]	; 0x18c
 80014a0:	fa93 f3a3 	rbit	r3, r3
 80014a4:	f8c7 3188 	str.w	r3, [r7, #392]	; 0x188
 80014a8:	2302      	movs	r3, #2
 80014aa:	f8c7 3184 	str.w	r3, [r7, #388]	; 0x184
 80014ae:	f8d7 3184 	ldr.w	r3, [r7, #388]	; 0x184
 80014b2:	fa93 f3a3 	rbit	r3, r3
 80014b6:	f8c7 3180 	str.w	r3, [r7, #384]	; 0x180
 80014ba:	4bb2      	ldr	r3, [pc, #712]	; (8001784 <HAL_RCC_OscConfig+0x658>)
 80014bc:	6a5b      	ldr	r3, [r3, #36]	; 0x24
 80014be:	2202      	movs	r2, #2
 80014c0:	f8c7 217c 	str.w	r2, [r7, #380]	; 0x17c
 80014c4:	f8d7 217c 	ldr.w	r2, [r7, #380]	; 0x17c
 80014c8:	fa92 f2a2 	rbit	r2, r2
 80014cc:	f8c7 2178 	str.w	r2, [r7, #376]	; 0x178
  return(result);
 80014d0:	f8d7 2178 	ldr.w	r2, [r7, #376]	; 0x178
 80014d4:	fab2 f282 	clz	r2, r2
 80014d8:	b252      	sxtb	r2, r2
 80014da:	f042 0220 	orr.w	r2, r2, #32
 80014de:	b252      	sxtb	r2, r2
 80014e0:	b2d2      	uxtb	r2, r2
 80014e2:	f002 021f 	and.w	r2, r2, #31
 80014e6:	2101      	movs	r1, #1
 80014e8:	fa01 f202 	lsl.w	r2, r1, r2
 80014ec:	4013      	ands	r3, r2
 80014ee:	2b00      	cmp	r3, #0
 80014f0:	d007      	beq.n	8001502 <HAL_RCC_OscConfig+0x3d6>
 80014f2:	1d3b      	adds	r3, r7, #4
 80014f4:	681b      	ldr	r3, [r3, #0]
 80014f6:	691b      	ldr	r3, [r3, #16]
 80014f8:	2b01      	cmp	r3, #1
 80014fa:	d002      	beq.n	8001502 <HAL_RCC_OscConfig+0x3d6>
      {
        return HAL_ERROR;
 80014fc:	2301      	movs	r3, #1
 80014fe:	f000 bcfc 	b.w	8001efa <HAL_RCC_OscConfig+0xdce>
      }
      /* Otherwise, just the calibration is allowed */
      else
      {
        /* Adjusts the Internal High Speed oscillator (HSI) calibration value.*/
        __HAL_RCC_HSI_CALIBRATIONVALUE_ADJUST(RCC_OscInitStruct->HSICalibrationValue);
 8001502:	4ba0      	ldr	r3, [pc, #640]	; (8001784 <HAL_RCC_OscConfig+0x658>)
 8001504:	681b      	ldr	r3, [r3, #0]
 8001506:	f023 02f8 	bic.w	r2, r3, #248	; 0xf8
 800150a:	1d3b      	adds	r3, r7, #4
 800150c:	681b      	ldr	r3, [r3, #0]
 800150e:	6959      	ldr	r1, [r3, #20]
 8001510:	23f8      	movs	r3, #248	; 0xf8
 8001512:	f8c7 3174 	str.w	r3, [r7, #372]	; 0x174
   __ASM volatile ("rbit %0, %1" : "=r" (result) : "r" (value) );
 8001516:	f8d7 3174 	ldr.w	r3, [r7, #372]	; 0x174
 800151a:	fa93 f3a3 	rbit	r3, r3
 800151e:	f8c7 3170 	str.w	r3, [r7, #368]	; 0x170
  return(result);
 8001522:	f8d7 3170 	ldr.w	r3, [r7, #368]	; 0x170
 8001526:	fab3 f383 	clz	r3, r3
 800152a:	fa01 f303 	lsl.w	r3, r1, r3
 800152e:	4995      	ldr	r1, [pc, #596]	; (8001784 <HAL_RCC_OscConfig+0x658>)
 8001530:	4313      	orrs	r3, r2
 8001532:	600b      	str	r3, [r1, #0]
      if((__HAL_RCC_GET_FLAG(RCC_FLAG_HSIRDY) != RESET) && (RCC_OscInitStruct->HSIState != RCC_HSI_ON))
 8001534:	e0f5      	b.n	8001722 <HAL_RCC_OscConfig+0x5f6>
      }
    }
    else
    {
      /* Check the HSI State */
      if(RCC_OscInitStruct->HSIState != RCC_HSI_OFF)
 8001536:	1d3b      	adds	r3, r7, #4
 8001538:	681b      	ldr	r3, [r3, #0]
 800153a:	691b      	ldr	r3, [r3, #16]
 800153c:	2b00      	cmp	r3, #0
 800153e:	f000 8085 	beq.w	800164c <HAL_RCC_OscConfig+0x520>
 8001542:	2301      	movs	r3, #1
 8001544:	f8c7 316c 	str.w	r3, [r7, #364]	; 0x16c
   __ASM volatile ("rbit %0, %1" : "=r" (result) : "r" (value) );
 8001548:	f8d7 316c 	ldr.w	r3, [r7, #364]	; 0x16c
 800154c:	fa93 f3a3 	rbit	r3, r3
 8001550:	f8c7 3168 	str.w	r3, [r7, #360]	; 0x168
  return(result);
 8001554:	f8d7 3168 	ldr.w	r3, [r7, #360]	; 0x168
      {
       /* Enable the Internal High Speed oscillator (HSI). */
        __HAL_RCC_HSI_ENABLE();
 8001558:	fab3 f383 	clz	r3, r3
 800155c:	f103 5384 	add.w	r3, r3, #276824064	; 0x10800000
 8001560:	f503 1384 	add.w	r3, r3, #1081344	; 0x108000
 8001564:	009b      	lsls	r3, r3, #2
 8001566:	461a      	mov	r2, r3
 8001568:	2301      	movs	r3, #1
 800156a:	6013      	str	r3, [r2, #0]
        
        /* Get Start Tick */
        tickstart = HAL_GetTick();
 800156c:	f7ff fb54 	bl	8000c18 <HAL_GetTick>
 8001570:	f8c7 01f8 	str.w	r0, [r7, #504]	; 0x1f8
        
        /* Wait till HSI is ready */
        while(__HAL_RCC_GET_FLAG(RCC_FLAG_HSIRDY) == RESET)
 8001574:	e00a      	b.n	800158c <HAL_RCC_OscConfig+0x460>
        {
          if((HAL_GetTick() - tickstart ) > HSI_TIMEOUT_VALUE)
 8001576:	f7ff fb4f 	bl	8000c18 <HAL_GetTick>
 800157a:	4602      	mov	r2, r0
 800157c:	f8d7 31f8 	ldr.w	r3, [r7, #504]	; 0x1f8
 8001580:	1ad3      	subs	r3, r2, r3
 8001582:	2b02      	cmp	r3, #2
 8001584:	d902      	bls.n	800158c <HAL_RCC_OscConfig+0x460>
          {
            return HAL_TIMEOUT;
 8001586:	2303      	movs	r3, #3
 8001588:	f000 bcb7 	b.w	8001efa <HAL_RCC_OscConfig+0xdce>
 800158c:	2302      	movs	r3, #2
 800158e:	f8c7 3164 	str.w	r3, [r7, #356]	; 0x164
   __ASM volatile ("rbit %0, %1" : "=r" (result) : "r" (value) );
 8001592:	f8d7 3164 	ldr.w	r3, [r7, #356]	; 0x164
 8001596:	fa93 f3a3 	rbit	r3, r3
 800159a:	f8c7 3160 	str.w	r3, [r7, #352]	; 0x160
  return(result);
 800159e:	f8d7 3160 	ldr.w	r3, [r7, #352]	; 0x160
        while(__HAL_RCC_GET_FLAG(RCC_FLAG_HSIRDY) == RESET)
 80015a2:	fab3 f383 	clz	r3, r3
 80015a6:	b2db      	uxtb	r3, r3
 80015a8:	095b      	lsrs	r3, r3, #5
 80015aa:	b2db      	uxtb	r3, r3
 80015ac:	f043 0301 	orr.w	r3, r3, #1
 80015b0:	b2db      	uxtb	r3, r3
 80015b2:	2b01      	cmp	r3, #1
 80015b4:	d102      	bne.n	80015bc <HAL_RCC_OscConfig+0x490>
 80015b6:	4b73      	ldr	r3, [pc, #460]	; (8001784 <HAL_RCC_OscConfig+0x658>)
 80015b8:	681b      	ldr	r3, [r3, #0]
 80015ba:	e013      	b.n	80015e4 <HAL_RCC_OscConfig+0x4b8>
 80015bc:	2302      	movs	r3, #2
 80015be:	f8c7 315c 	str.w	r3, [r7, #348]	; 0x15c
   __ASM volatile ("rbit %0, %1" : "=r" (result) : "r" (value) );
 80015c2:	f8d7 315c 	ldr.w	r3, [r7, #348]	; 0x15c
 80015c6:	fa93 f3a3 	rbit	r3, r3
 80015ca:	f8c7 3158 	str.w	r3, [r7, #344]	; 0x158
 80015ce:	2302      	movs	r3, #2
 80015d0:	f8c7 3154 	str.w	r3, [r7, #340]	; 0x154
 80015d4:	f8d7 3154 	ldr.w	r3, [r7, #340]	; 0x154
 80015d8:	fa93 f3a3 	rbit	r3, r3
 80015dc:	f8c7 3150 	str.w	r3, [r7, #336]	; 0x150
 80015e0:	4b68      	ldr	r3, [pc, #416]	; (8001784 <HAL_RCC_OscConfig+0x658>)
 80015e2:	6a5b      	ldr	r3, [r3, #36]	; 0x24
 80015e4:	2202      	movs	r2, #2
 80015e6:	f8c7 214c 	str.w	r2, [r7, #332]	; 0x14c
 80015ea:	f8d7 214c 	ldr.w	r2, [r7, #332]	; 0x14c
 80015ee:	fa92 f2a2 	rbit	r2, r2
 80015f2:	f8c7 2148 	str.w	r2, [r7, #328]	; 0x148
  return(result);
 80015f6:	f8d7 2148 	ldr.w	r2, [r7, #328]	; 0x148
 80015fa:	fab2 f282 	clz	r2, r2
 80015fe:	b252      	sxtb	r2, r2
 8001600:	f042 0220 	orr.w	r2, r2, #32
 8001604:	b252      	sxtb	r2, r2
 8001606:	b2d2      	uxtb	r2, r2
 8001608:	f002 021f 	and.w	r2, r2, #31
 800160c:	2101      	movs	r1, #1
 800160e:	fa01 f202 	lsl.w	r2, r1, r2
 8001612:	4013      	ands	r3, r2
 8001614:	2b00      	cmp	r3, #0
 8001616:	d0ae      	beq.n	8001576 <HAL_RCC_OscConfig+0x44a>
          }
        }
                
        /* Adjusts the Internal High Speed oscillator (HSI) calibration value.*/
        __HAL_RCC_HSI_CALIBRATIONVALUE_ADJUST(RCC_OscInitStruct->HSICalibrationValue);
 8001618:	4b5a      	ldr	r3, [pc, #360]	; (8001784 <HAL_RCC_OscConfig+0x658>)
 800161a:	681b      	ldr	r3, [r3, #0]
 800161c:	f023 02f8 	bic.w	r2, r3, #248	; 0xf8
 8001620:	1d3b      	adds	r3, r7, #4
 8001622:	681b      	ldr	r3, [r3, #0]
 8001624:	6959      	ldr	r1, [r3, #20]
 8001626:	23f8      	movs	r3, #248	; 0xf8
 8001628:	f8c7 3144 	str.w	r3, [r7, #324]	; 0x144
   __ASM volatile ("rbit %0, %1" : "=r" (result) : "r" (value) );
 800162c:	f8d7 3144 	ldr.w	r3, [r7, #324]	; 0x144
 8001630:	fa93 f3a3 	rbit	r3, r3
 8001634:	f8c7 3140 	str.w	r3, [r7, #320]	; 0x140
  return(result);
 8001638:	f8d7 3140 	ldr.w	r3, [r7, #320]	; 0x140
 800163c:	fab3 f383 	clz	r3, r3
 8001640:	fa01 f303 	lsl.w	r3, r1, r3
 8001644:	494f      	ldr	r1, [pc, #316]	; (8001784 <HAL_RCC_OscConfig+0x658>)
 8001646:	4313      	orrs	r3, r2
 8001648:	600b      	str	r3, [r1, #0]
 800164a:	e06a      	b.n	8001722 <HAL_RCC_OscConfig+0x5f6>
 800164c:	2301      	movs	r3, #1
 800164e:	f8c7 313c 	str.w	r3, [r7, #316]	; 0x13c
   __ASM volatile ("rbit %0, %1" : "=r" (result) : "r" (value) );
 8001652:	f8d7 313c 	ldr.w	r3, [r7, #316]	; 0x13c
 8001656:	fa93 f3a3 	rbit	r3, r3
 800165a:	f8c7 3138 	str.w	r3, [r7, #312]	; 0x138
  return(result);
 800165e:	f8d7 3138 	ldr.w	r3, [r7, #312]	; 0x138
      }
      else
      {
        /* Disable the Internal High Speed oscillator (HSI). */
        __HAL_RCC_HSI_DISABLE();
 8001662:	fab3 f383 	clz	r3, r3
 8001666:	f103 5384 	add.w	r3, r3, #276824064	; 0x10800000
 800166a:	f503 1384 	add.w	r3, r3, #1081344	; 0x108000
 800166e:	009b      	lsls	r3, r3, #2
 8001670:	461a      	mov	r2, r3
 8001672:	2300      	movs	r3, #0
 8001674:	6013      	str	r3, [r2, #0]
        
        /* Get Start Tick */
        tickstart = HAL_GetTick();
 8001676:	f7ff facf 	bl	8000c18 <HAL_GetTick>
 800167a:	f8c7 01f8 	str.w	r0, [r7, #504]	; 0x1f8
        
        /* Wait till HSI is disabled */
        while(__HAL_RCC_GET_FLAG(RCC_FLAG_HSIRDY) != RESET)
 800167e:	e00a      	b.n	8001696 <HAL_RCC_OscConfig+0x56a>
        {
          if((HAL_GetTick() - tickstart ) > HSI_TIMEOUT_VALUE)
 8001680:	f7ff faca 	bl	8000c18 <HAL_GetTick>
 8001684:	4602      	mov	r2, r0
 8001686:	f8d7 31f8 	ldr.w	r3, [r7, #504]	; 0x1f8
 800168a:	1ad3      	subs	r3, r2, r3
 800168c:	2b02      	cmp	r3, #2
 800168e:	d902      	bls.n	8001696 <HAL_RCC_OscConfig+0x56a>
          {
            return HAL_TIMEOUT;
 8001690:	2303      	movs	r3, #3
 8001692:	f000 bc32 	b.w	8001efa <HAL_RCC_OscConfig+0xdce>
 8001696:	2302      	movs	r3, #2
 8001698:	f8c7 3134 	str.w	r3, [r7, #308]	; 0x134
   __ASM volatile ("rbit %0, %1" : "=r" (result) : "r" (value) );
 800169c:	f8d7 3134 	ldr.w	r3, [r7, #308]	; 0x134
 80016a0:	fa93 f3a3 	rbit	r3, r3
 80016a4:	f8c7 3130 	str.w	r3, [r7, #304]	; 0x130
  return(result);
 80016a8:	f8d7 3130 	ldr.w	r3, [r7, #304]	; 0x130
        while(__HAL_RCC_GET_FLAG(RCC_FLAG_HSIRDY) != RESET)
 80016ac:	fab3 f383 	clz	r3, r3
 80016b0:	b2db      	uxtb	r3, r3
 80016b2:	095b      	lsrs	r3, r3, #5
 80016b4:	b2db      	uxtb	r3, r3
 80016b6:	f043 0301 	orr.w	r3, r3, #1
 80016ba:	b2db      	uxtb	r3, r3
 80016bc:	2b01      	cmp	r3, #1
 80016be:	d102      	bne.n	80016c6 <HAL_RCC_OscConfig+0x59a>
 80016c0:	4b30      	ldr	r3, [pc, #192]	; (8001784 <HAL_RCC_OscConfig+0x658>)
 80016c2:	681b      	ldr	r3, [r3, #0]
 80016c4:	e013      	b.n	80016ee <HAL_RCC_OscConfig+0x5c2>
 80016c6:	2302      	movs	r3, #2
 80016c8:	f8c7 312c 	str.w	r3, [r7, #300]	; 0x12c
   __ASM volatile ("rbit %0, %1" : "=r" (result) : "r" (value) );
 80016cc:	f8d7 312c 	ldr.w	r3, [r7, #300]	; 0x12c
 80016d0:	fa93 f3a3 	rbit	r3, r3
 80016d4:	f8c7 3128 	str.w	r3, [r7, #296]	; 0x128
 80016d8:	2302      	movs	r3, #2
 80016da:	f8c7 3124 	str.w	r3, [r7, #292]	; 0x124
 80016de:	f8d7 3124 	ldr.w	r3, [r7, #292]	; 0x124
 80016e2:	fa93 f3a3 	rbit	r3, r3
 80016e6:	f8c7 3120 	str.w	r3, [r7, #288]	; 0x120
 80016ea:	4b26      	ldr	r3, [pc, #152]	; (8001784 <HAL_RCC_OscConfig+0x658>)
 80016ec:	6a5b      	ldr	r3, [r3, #36]	; 0x24
 80016ee:	2202      	movs	r2, #2
 80016f0:	f8c7 211c 	str.w	r2, [r7, #284]	; 0x11c
 80016f4:	f8d7 211c 	ldr.w	r2, [r7, #284]	; 0x11c
 80016f8:	fa92 f2a2 	rbit	r2, r2
 80016fc:	f8c7 2118 	str.w	r2, [r7, #280]	; 0x118
  return(result);
 8001700:	f8d7 2118 	ldr.w	r2, [r7, #280]	; 0x118
 8001704:	fab2 f282 	clz	r2, r2
 8001708:	b252      	sxtb	r2, r2
 800170a:	f042 0220 	orr.w	r2, r2, #32
 800170e:	b252      	sxtb	r2, r2
 8001710:	b2d2      	uxtb	r2, r2
 8001712:	f002 021f 	and.w	r2, r2, #31
 8001716:	2101      	movs	r1, #1
 8001718:	fa01 f202 	lsl.w	r2, r1, r2
 800171c:	4013      	ands	r3, r2
 800171e:	2b00      	cmp	r3, #0
 8001720:	d1ae      	bne.n	8001680 <HAL_RCC_OscConfig+0x554>
        }
      }
    }
  }
  /*------------------------------ LSI Configuration -------------------------*/ 
  if(((RCC_OscInitStruct->OscillatorType) & RCC_OSCILLATORTYPE_LSI) == RCC_OSCILLATORTYPE_LSI)
 8001722:	1d3b      	adds	r3, r7, #4
 8001724:	681b      	ldr	r3, [r3, #0]
 8001726:	681b      	ldr	r3, [r3, #0]
 8001728:	f003 0308 	and.w	r3, r3, #8
 800172c:	2b00      	cmp	r3, #0
 800172e:	f000 80d8 	beq.w	80018e2 <HAL_RCC_OscConfig+0x7b6>
  {
    /* Check the parameters */
    assert_param(IS_RCC_LSI(RCC_OscInitStruct->LSIState));
    
    /* Check the LSI State */
    if(RCC_OscInitStruct->LSIState != RCC_LSI_OFF)
 8001732:	1d3b      	adds	r3, r7, #4
 8001734:	681b      	ldr	r3, [r3, #0]
 8001736:	699b      	ldr	r3, [r3, #24]
 8001738:	2b00      	cmp	r3, #0
 800173a:	d067      	beq.n	800180c <HAL_RCC_OscConfig+0x6e0>
 800173c:	2301      	movs	r3, #1
 800173e:	f8c7 3114 	str.w	r3, [r7, #276]	; 0x114
   __ASM volatile ("rbit %0, %1" : "=r" (result) : "r" (value) );
 8001742:	f8d7 3114 	ldr.w	r3, [r7, #276]	; 0x114
 8001746:	fa93 f3a3 	rbit	r3, r3
 800174a:	f8c7 3110 	str.w	r3, [r7, #272]	; 0x110
  return(result);
 800174e:	f8d7 3110 	ldr.w	r3, [r7, #272]	; 0x110
    {
      /* Enable the Internal Low Speed oscillator (LSI). */
      __HAL_RCC_LSI_ENABLE();
 8001752:	fab3 f383 	clz	r3, r3
 8001756:	461a      	mov	r2, r3
 8001758:	4b0b      	ldr	r3, [pc, #44]	; (8001788 <HAL_RCC_OscConfig+0x65c>)
 800175a:	4413      	add	r3, r2
 800175c:	009b      	lsls	r3, r3, #2
 800175e:	461a      	mov	r2, r3
 8001760:	2301      	movs	r3, #1
 8001762:	6013      	str	r3, [r2, #0]
      
      /* Get Start Tick */
      tickstart = HAL_GetTick();
 8001764:	f7ff fa58 	bl	8000c18 <HAL_GetTick>
 8001768:	f8c7 01f8 	str.w	r0, [r7, #504]	; 0x1f8
      
      /* Wait till LSI is ready */  
      while(__HAL_RCC_GET_FLAG(RCC_FLAG_LSIRDY) == RESET)
 800176c:	e00e      	b.n	800178c <HAL_RCC_OscConfig+0x660>
      {
        if((HAL_GetTick() - tickstart ) > LSI_TIMEOUT_VALUE)
 800176e:	f7ff fa53 	bl	8000c18 <HAL_GetTick>
 8001772:	4602      	mov	r2, r0
 8001774:	f8d7 31f8 	ldr.w	r3, [r7, #504]	; 0x1f8
 8001778:	1ad3      	subs	r3, r2, r3
 800177a:	2b02      	cmp	r3, #2
 800177c:	d906      	bls.n	800178c <HAL_RCC_OscConfig+0x660>
        {
          return HAL_TIMEOUT;
 800177e:	2303      	movs	r3, #3
 8001780:	e3bb      	b.n	8001efa <HAL_RCC_OscConfig+0xdce>
 8001782:	bf00      	nop
 8001784:	40021000 	.word	0x40021000
 8001788:	10908120 	.word	0x10908120
 800178c:	2302      	movs	r3, #2
 800178e:	f8c7 310c 	str.w	r3, [r7, #268]	; 0x10c
   __ASM volatile ("rbit %0, %1" : "=r" (result) : "r" (value) );
 8001792:	f8d7 310c 	ldr.w	r3, [r7, #268]	; 0x10c
 8001796:	fa93 f3a3 	rbit	r3, r3
 800179a:	f8c7 3108 	str.w	r3, [r7, #264]	; 0x108
 800179e:	2302      	movs	r3, #2
 80017a0:	f8c7 3104 	str.w	r3, [r7, #260]	; 0x104
 80017a4:	f8d7 3104 	ldr.w	r3, [r7, #260]	; 0x104
 80017a8:	fa93 f2a3 	rbit	r2, r3
 80017ac:	f507 7380 	add.w	r3, r7, #256	; 0x100
 80017b0:	601a      	str	r2, [r3, #0]
 80017b2:	f107 03fc 	add.w	r3, r7, #252	; 0xfc
 80017b6:	2202      	movs	r2, #2
 80017b8:	601a      	str	r2, [r3, #0]
 80017ba:	f107 03fc 	add.w	r3, r7, #252	; 0xfc
 80017be:	681b      	ldr	r3, [r3, #0]
 80017c0:	fa93 f2a3 	rbit	r2, r3
 80017c4:	f107 03f8 	add.w	r3, r7, #248	; 0xf8
 80017c8:	601a      	str	r2, [r3, #0]
      while(__HAL_RCC_GET_FLAG(RCC_FLAG_LSIRDY) == RESET)
 80017ca:	4ba5      	ldr	r3, [pc, #660]	; (8001a60 <HAL_RCC_OscConfig+0x934>)
 80017cc:	6a5a      	ldr	r2, [r3, #36]	; 0x24
 80017ce:	f107 03f4 	add.w	r3, r7, #244	; 0xf4
 80017d2:	2102      	movs	r1, #2
 80017d4:	6019      	str	r1, [r3, #0]
 80017d6:	f107 03f4 	add.w	r3, r7, #244	; 0xf4
 80017da:	681b      	ldr	r3, [r3, #0]
 80017dc:	fa93 f1a3 	rbit	r1, r3
 80017e0:	f107 03f0 	add.w	r3, r7, #240	; 0xf0
 80017e4:	6019      	str	r1, [r3, #0]
  return(result);
 80017e6:	f107 03f0 	add.w	r3, r7, #240	; 0xf0
 80017ea:	681b      	ldr	r3, [r3, #0]
 80017ec:	fab3 f383 	clz	r3, r3
 80017f0:	b25b      	sxtb	r3, r3
 80017f2:	f043 0360 	orr.w	r3, r3, #96	; 0x60
 80017f6:	b25b      	sxtb	r3, r3
 80017f8:	b2db      	uxtb	r3, r3
 80017fa:	f003 031f 	and.w	r3, r3, #31
 80017fe:	2101      	movs	r1, #1
 8001800:	fa01 f303 	lsl.w	r3, r1, r3
 8001804:	4013      	ands	r3, r2
 8001806:	2b00      	cmp	r3, #0
 8001808:	d0b1      	beq.n	800176e <HAL_RCC_OscConfig+0x642>
 800180a:	e06a      	b.n	80018e2 <HAL_RCC_OscConfig+0x7b6>
 800180c:	f107 03ec 	add.w	r3, r7, #236	; 0xec
 8001810:	2201      	movs	r2, #1
 8001812:	601a      	str	r2, [r3, #0]
   __ASM volatile ("rbit %0, %1" : "=r" (result) : "r" (value) );
 8001814:	f107 03ec 	add.w	r3, r7, #236	; 0xec
 8001818:	681b      	ldr	r3, [r3, #0]
 800181a:	fa93 f2a3 	rbit	r2, r3
 800181e:	f107 03e8 	add.w	r3, r7, #232	; 0xe8
 8001822:	601a      	str	r2, [r3, #0]
  return(result);
 8001824:	f107 03e8 	add.w	r3, r7, #232	; 0xe8
 8001828:	681b      	ldr	r3, [r3, #0]
      }
    }
    else
    {
      /* Disable the Internal Low Speed oscillator (LSI). */
      __HAL_RCC_LSI_DISABLE();
 800182a:	fab3 f383 	clz	r3, r3
 800182e:	461a      	mov	r2, r3
 8001830:	4b8c      	ldr	r3, [pc, #560]	; (8001a64 <HAL_RCC_OscConfig+0x938>)
 8001832:	4413      	add	r3, r2
 8001834:	009b      	lsls	r3, r3, #2
 8001836:	461a      	mov	r2, r3
 8001838:	2300      	movs	r3, #0
 800183a:	6013      	str	r3, [r2, #0]
      
      /* Get Start Tick */
      tickstart = HAL_GetTick();
 800183c:	f7ff f9ec 	bl	8000c18 <HAL_GetTick>
 8001840:	f8c7 01f8 	str.w	r0, [r7, #504]	; 0x1f8
      
      /* Wait till LSI is disabled */  
      while(__HAL_RCC_GET_FLAG(RCC_FLAG_LSIRDY) != RESET)
 8001844:	e009      	b.n	800185a <HAL_RCC_OscConfig+0x72e>
      {
        if((HAL_GetTick() - tickstart ) > LSI_TIMEOUT_VALUE)
 8001846:	f7ff f9e7 	bl	8000c18 <HAL_GetTick>
 800184a:	4602      	mov	r2, r0
 800184c:	f8d7 31f8 	ldr.w	r3, [r7, #504]	; 0x1f8
 8001850:	1ad3      	subs	r3, r2, r3
 8001852:	2b02      	cmp	r3, #2
 8001854:	d901      	bls.n	800185a <HAL_RCC_OscConfig+0x72e>
        {
          return HAL_TIMEOUT;
 8001856:	2303      	movs	r3, #3
 8001858:	e34f      	b.n	8001efa <HAL_RCC_OscConfig+0xdce>
 800185a:	f107 03e4 	add.w	r3, r7, #228	; 0xe4
 800185e:	2202      	movs	r2, #2
 8001860:	601a      	str	r2, [r3, #0]
   __ASM volatile ("rbit %0, %1" : "=r" (result) : "r" (value) );
 8001862:	f107 03e4 	add.w	r3, r7, #228	; 0xe4
 8001866:	681b      	ldr	r3, [r3, #0]
 8001868:	fa93 f2a3 	rbit	r2, r3
 800186c:	f107 03e0 	add.w	r3, r7, #224	; 0xe0
 8001870:	601a      	str	r2, [r3, #0]
 8001872:	f107 03dc 	add.w	r3, r7, #220	; 0xdc
 8001876:	2202      	movs	r2, #2
 8001878:	601a      	str	r2, [r3, #0]
 800187a:	f107 03dc 	add.w	r3, r7, #220	; 0xdc
 800187e:	681b      	ldr	r3, [r3, #0]
 8001880:	fa93 f2a3 	rbit	r2, r3
 8001884:	f107 03d8 	add.w	r3, r7, #216	; 0xd8
 8001888:	601a      	str	r2, [r3, #0]
 800188a:	f107 03d4 	add.w	r3, r7, #212	; 0xd4
 800188e:	2202      	movs	r2, #2
 8001890:	601a      	str	r2, [r3, #0]
 8001892:	f107 03d4 	add.w	r3, r7, #212	; 0xd4
 8001896:	681b      	ldr	r3, [r3, #0]
 8001898:	fa93 f2a3 	rbit	r2, r3
 800189c:	f107 03d0 	add.w	r3, r7, #208	; 0xd0
 80018a0:	601a      	str	r2, [r3, #0]
      while(__HAL_RCC_GET_FLAG(RCC_FLAG_LSIRDY) != RESET)
 80018a2:	4b6f      	ldr	r3, [pc, #444]	; (8001a60 <HAL_RCC_OscConfig+0x934>)
 80018a4:	6a5a      	ldr	r2, [r3, #36]	; 0x24
 80018a6:	f107 03cc 	add.w	r3, r7, #204	; 0xcc
 80018aa:	2102      	movs	r1, #2
 80018ac:	6019      	str	r1, [r3, #0]
 80018ae:	f107 03cc 	add.w	r3, r7, #204	; 0xcc
 80018b2:	681b      	ldr	r3, [r3, #0]
 80018b4:	fa93 f1a3 	rbit	r1, r3
 80018b8:	f107 03c8 	add.w	r3, r7, #200	; 0xc8
 80018bc:	6019      	str	r1, [r3, #0]
  return(result);
 80018be:	f107 03c8 	add.w	r3, r7, #200	; 0xc8
 80018c2:	681b      	ldr	r3, [r3, #0]
 80018c4:	fab3 f383 	clz	r3, r3
 80018c8:	b25b      	sxtb	r3, r3
 80018ca:	f043 0360 	orr.w	r3, r3, #96	; 0x60
 80018ce:	b25b      	sxtb	r3, r3
 80018d0:	b2db      	uxtb	r3, r3
 80018d2:	f003 031f 	and.w	r3, r3, #31
 80018d6:	2101      	movs	r1, #1
 80018d8:	fa01 f303 	lsl.w	r3, r1, r3
 80018dc:	4013      	ands	r3, r2
 80018de:	2b00      	cmp	r3, #0
 80018e0:	d1b1      	bne.n	8001846 <HAL_RCC_OscConfig+0x71a>
        }
      }
    }
  }
  /*------------------------------ LSE Configuration -------------------------*/ 
  if(((RCC_OscInitStruct->OscillatorType) & RCC_OSCILLATORTYPE_LSE) == RCC_OSCILLATORTYPE_LSE)
 80018e2:	1d3b      	adds	r3, r7, #4
 80018e4:	681b      	ldr	r3, [r3, #0]
 80018e6:	681b      	ldr	r3, [r3, #0]
 80018e8:	f003 0304 	and.w	r3, r3, #4
 80018ec:	2b00      	cmp	r3, #0
 80018ee:	f000 8159 	beq.w	8001ba4 <HAL_RCC_OscConfig+0xa78>
  {
    FlagStatus       pwrclkchanged = RESET;
 80018f2:	2300      	movs	r3, #0
 80018f4:	f887 31ff 	strb.w	r3, [r7, #511]	; 0x1ff
    /* Check the parameters */
    assert_param(IS_RCC_LSE(RCC_OscInitStruct->LSEState));

    /* Update LSE configuration in Backup Domain control register    */
    /* Requires to enable write access to Backup Domain of necessary */
    if(__HAL_RCC_PWR_IS_CLK_DISABLED())
 80018f8:	4b59      	ldr	r3, [pc, #356]	; (8001a60 <HAL_RCC_OscConfig+0x934>)
 80018fa:	69db      	ldr	r3, [r3, #28]
 80018fc:	f003 5380 	and.w	r3, r3, #268435456	; 0x10000000
 8001900:	2b00      	cmp	r3, #0
 8001902:	d112      	bne.n	800192a <HAL_RCC_OscConfig+0x7fe>
    {
      __HAL_RCC_PWR_CLK_ENABLE();
 8001904:	4b56      	ldr	r3, [pc, #344]	; (8001a60 <HAL_RCC_OscConfig+0x934>)
 8001906:	69db      	ldr	r3, [r3, #28]
 8001908:	4a55      	ldr	r2, [pc, #340]	; (8001a60 <HAL_RCC_OscConfig+0x934>)
 800190a:	f043 5380 	orr.w	r3, r3, #268435456	; 0x10000000
 800190e:	61d3      	str	r3, [r2, #28]
 8001910:	4b53      	ldr	r3, [pc, #332]	; (8001a60 <HAL_RCC_OscConfig+0x934>)
 8001912:	69db      	ldr	r3, [r3, #28]
 8001914:	f003 5280 	and.w	r2, r3, #268435456	; 0x10000000
 8001918:	f107 030c 	add.w	r3, r7, #12
 800191c:	601a      	str	r2, [r3, #0]
 800191e:	f107 030c 	add.w	r3, r7, #12
 8001922:	681b      	ldr	r3, [r3, #0]
      pwrclkchanged = SET;
 8001924:	2301      	movs	r3, #1
 8001926:	f887 31ff 	strb.w	r3, [r7, #511]	; 0x1ff
    }
    
    if(HAL_IS_BIT_CLR(PWR->CR, PWR_CR_DBP))
 800192a:	4b4f      	ldr	r3, [pc, #316]	; (8001a68 <HAL_RCC_OscConfig+0x93c>)
 800192c:	681b      	ldr	r3, [r3, #0]
 800192e:	f403 7380 	and.w	r3, r3, #256	; 0x100
 8001932:	2b00      	cmp	r3, #0
 8001934:	d11a      	bne.n	800196c <HAL_RCC_OscConfig+0x840>
    {
      /* Enable write access to Backup domain */
      SET_BIT(PWR->CR, PWR_CR_DBP);
 8001936:	4b4c      	ldr	r3, [pc, #304]	; (8001a68 <HAL_RCC_OscConfig+0x93c>)
 8001938:	681b      	ldr	r3, [r3, #0]
 800193a:	4a4b      	ldr	r2, [pc, #300]	; (8001a68 <HAL_RCC_OscConfig+0x93c>)
 800193c:	f443 7380 	orr.w	r3, r3, #256	; 0x100
 8001940:	6013      	str	r3, [r2, #0]
      
      /* Wait for Backup domain Write protection disable */
      tickstart = HAL_GetTick();
 8001942:	f7ff f969 	bl	8000c18 <HAL_GetTick>
 8001946:	f8c7 01f8 	str.w	r0, [r7, #504]	; 0x1f8

      while(HAL_IS_BIT_CLR(PWR->CR, PWR_CR_DBP))
 800194a:	e009      	b.n	8001960 <HAL_RCC_OscConfig+0x834>
      {
        if((HAL_GetTick() - tickstart) > RCC_DBP_TIMEOUT_VALUE)
 800194c:	f7ff f964 	bl	8000c18 <HAL_GetTick>
 8001950:	4602      	mov	r2, r0
 8001952:	f8d7 31f8 	ldr.w	r3, [r7, #504]	; 0x1f8
 8001956:	1ad3      	subs	r3, r2, r3
 8001958:	2b64      	cmp	r3, #100	; 0x64
 800195a:	d901      	bls.n	8001960 <HAL_RCC_OscConfig+0x834>
        {
          return HAL_TIMEOUT;
 800195c:	2303      	movs	r3, #3
 800195e:	e2cc      	b.n	8001efa <HAL_RCC_OscConfig+0xdce>
      while(HAL_IS_BIT_CLR(PWR->CR, PWR_CR_DBP))
 8001960:	4b41      	ldr	r3, [pc, #260]	; (8001a68 <HAL_RCC_OscConfig+0x93c>)
 8001962:	681b      	ldr	r3, [r3, #0]
 8001964:	f403 7380 	and.w	r3, r3, #256	; 0x100
 8001968:	2b00      	cmp	r3, #0
 800196a:	d0ef      	beq.n	800194c <HAL_RCC_OscConfig+0x820>
        }
      }
    }

    /* Set the new LSE configuration -----------------------------------------*/
    __HAL_RCC_LSE_CONFIG(RCC_OscInitStruct->LSEState);
 800196c:	1d3b      	adds	r3, r7, #4
 800196e:	681b      	ldr	r3, [r3, #0]
 8001970:	68db      	ldr	r3, [r3, #12]
 8001972:	2b01      	cmp	r3, #1
 8001974:	d106      	bne.n	8001984 <HAL_RCC_OscConfig+0x858>
 8001976:	4b3a      	ldr	r3, [pc, #232]	; (8001a60 <HAL_RCC_OscConfig+0x934>)
 8001978:	6a1b      	ldr	r3, [r3, #32]
 800197a:	4a39      	ldr	r2, [pc, #228]	; (8001a60 <HAL_RCC_OscConfig+0x934>)
 800197c:	f043 0301 	orr.w	r3, r3, #1
 8001980:	6213      	str	r3, [r2, #32]
 8001982:	e02f      	b.n	80019e4 <HAL_RCC_OscConfig+0x8b8>
 8001984:	1d3b      	adds	r3, r7, #4
 8001986:	681b      	ldr	r3, [r3, #0]
 8001988:	68db      	ldr	r3, [r3, #12]
 800198a:	2b00      	cmp	r3, #0
 800198c:	d10c      	bne.n	80019a8 <HAL_RCC_OscConfig+0x87c>
 800198e:	4b34      	ldr	r3, [pc, #208]	; (8001a60 <HAL_RCC_OscConfig+0x934>)
 8001990:	6a1b      	ldr	r3, [r3, #32]
 8001992:	4a33      	ldr	r2, [pc, #204]	; (8001a60 <HAL_RCC_OscConfig+0x934>)
 8001994:	f023 0301 	bic.w	r3, r3, #1
 8001998:	6213      	str	r3, [r2, #32]
 800199a:	4b31      	ldr	r3, [pc, #196]	; (8001a60 <HAL_RCC_OscConfig+0x934>)
 800199c:	6a1b      	ldr	r3, [r3, #32]
 800199e:	4a30      	ldr	r2, [pc, #192]	; (8001a60 <HAL_RCC_OscConfig+0x934>)
 80019a0:	f023 0304 	bic.w	r3, r3, #4
 80019a4:	6213      	str	r3, [r2, #32]
 80019a6:	e01d      	b.n	80019e4 <HAL_RCC_OscConfig+0x8b8>
 80019a8:	1d3b      	adds	r3, r7, #4
 80019aa:	681b      	ldr	r3, [r3, #0]
 80019ac:	68db      	ldr	r3, [r3, #12]
 80019ae:	2b05      	cmp	r3, #5
 80019b0:	d10c      	bne.n	80019cc <HAL_RCC_OscConfig+0x8a0>
 80019b2:	4b2b      	ldr	r3, [pc, #172]	; (8001a60 <HAL_RCC_OscConfig+0x934>)
 80019b4:	6a1b      	ldr	r3, [r3, #32]
 80019b6:	4a2a      	ldr	r2, [pc, #168]	; (8001a60 <HAL_RCC_OscConfig+0x934>)
 80019b8:	f043 0304 	orr.w	r3, r3, #4
 80019bc:	6213      	str	r3, [r2, #32]
 80019be:	4b28      	ldr	r3, [pc, #160]	; (8001a60 <HAL_RCC_OscConfig+0x934>)
 80019c0:	6a1b      	ldr	r3, [r3, #32]
 80019c2:	4a27      	ldr	r2, [pc, #156]	; (8001a60 <HAL_RCC_OscConfig+0x934>)
 80019c4:	f043 0301 	orr.w	r3, r3, #1
 80019c8:	6213      	str	r3, [r2, #32]
 80019ca:	e00b      	b.n	80019e4 <HAL_RCC_OscConfig+0x8b8>
 80019cc:	4b24      	ldr	r3, [pc, #144]	; (8001a60 <HAL_RCC_OscConfig+0x934>)
 80019ce:	6a1b      	ldr	r3, [r3, #32]
 80019d0:	4a23      	ldr	r2, [pc, #140]	; (8001a60 <HAL_RCC_OscConfig+0x934>)
 80019d2:	f023 0301 	bic.w	r3, r3, #1
 80019d6:	6213      	str	r3, [r2, #32]
 80019d8:	4b21      	ldr	r3, [pc, #132]	; (8001a60 <HAL_RCC_OscConfig+0x934>)
 80019da:	6a1b      	ldr	r3, [r3, #32]
 80019dc:	4a20      	ldr	r2, [pc, #128]	; (8001a60 <HAL_RCC_OscConfig+0x934>)
 80019de:	f023 0304 	bic.w	r3, r3, #4
 80019e2:	6213      	str	r3, [r2, #32]
    /* Check the LSE State */
    if(RCC_OscInitStruct->LSEState != RCC_LSE_OFF)
 80019e4:	1d3b      	adds	r3, r7, #4
 80019e6:	681b      	ldr	r3, [r3, #0]
 80019e8:	68db      	ldr	r3, [r3, #12]
 80019ea:	2b00      	cmp	r3, #0
 80019ec:	d06b      	beq.n	8001ac6 <HAL_RCC_OscConfig+0x99a>
    {
      /* Get Start Tick */
      tickstart = HAL_GetTick();
 80019ee:	f7ff f913 	bl	8000c18 <HAL_GetTick>
 80019f2:	f8c7 01f8 	str.w	r0, [r7, #504]	; 0x1f8
      
      /* Wait till LSE is ready */  
      while(__HAL_RCC_GET_FLAG(RCC_FLAG_LSERDY) == RESET)
 80019f6:	e00b      	b.n	8001a10 <HAL_RCC_OscConfig+0x8e4>
      {
        if((HAL_GetTick() - tickstart ) > RCC_LSE_TIMEOUT_VALUE)
 80019f8:	f7ff f90e 	bl	8000c18 <HAL_GetTick>
 80019fc:	4602      	mov	r2, r0
 80019fe:	f8d7 31f8 	ldr.w	r3, [r7, #504]	; 0x1f8
 8001a02:	1ad3      	subs	r3, r2, r3
 8001a04:	f241 3288 	movw	r2, #5000	; 0x1388
 8001a08:	4293      	cmp	r3, r2
 8001a0a:	d901      	bls.n	8001a10 <HAL_RCC_OscConfig+0x8e4>
        {
          return HAL_TIMEOUT;
 8001a0c:	2303      	movs	r3, #3
 8001a0e:	e274      	b.n	8001efa <HAL_RCC_OscConfig+0xdce>
 8001a10:	f107 03c4 	add.w	r3, r7, #196	; 0xc4
 8001a14:	2202      	movs	r2, #2
 8001a16:	601a      	str	r2, [r3, #0]
   __ASM volatile ("rbit %0, %1" : "=r" (result) : "r" (value) );
 8001a18:	f107 03c4 	add.w	r3, r7, #196	; 0xc4
 8001a1c:	681b      	ldr	r3, [r3, #0]
 8001a1e:	fa93 f2a3 	rbit	r2, r3
 8001a22:	f107 03c0 	add.w	r3, r7, #192	; 0xc0
 8001a26:	601a      	str	r2, [r3, #0]
 8001a28:	f107 03bc 	add.w	r3, r7, #188	; 0xbc
 8001a2c:	2202      	movs	r2, #2
 8001a2e:	601a      	str	r2, [r3, #0]
 8001a30:	f107 03bc 	add.w	r3, r7, #188	; 0xbc
 8001a34:	681b      	ldr	r3, [r3, #0]
 8001a36:	fa93 f2a3 	rbit	r2, r3
 8001a3a:	f107 03b8 	add.w	r3, r7, #184	; 0xb8
 8001a3e:	601a      	str	r2, [r3, #0]
  return(result);
 8001a40:	f107 03b8 	add.w	r3, r7, #184	; 0xb8
 8001a44:	681b      	ldr	r3, [r3, #0]
      while(__HAL_RCC_GET_FLAG(RCC_FLAG_LSERDY) == RESET)
 8001a46:	fab3 f383 	clz	r3, r3
 8001a4a:	b2db      	uxtb	r3, r3
 8001a4c:	095b      	lsrs	r3, r3, #5
 8001a4e:	b2db      	uxtb	r3, r3
 8001a50:	f043 0302 	orr.w	r3, r3, #2
 8001a54:	b2db      	uxtb	r3, r3
 8001a56:	2b02      	cmp	r3, #2
 8001a58:	d108      	bne.n	8001a6c <HAL_RCC_OscConfig+0x940>
 8001a5a:	4b01      	ldr	r3, [pc, #4]	; (8001a60 <HAL_RCC_OscConfig+0x934>)
 8001a5c:	6a1b      	ldr	r3, [r3, #32]
 8001a5e:	e013      	b.n	8001a88 <HAL_RCC_OscConfig+0x95c>
 8001a60:	40021000 	.word	0x40021000
 8001a64:	10908120 	.word	0x10908120
 8001a68:	40007000 	.word	0x40007000
 8001a6c:	f107 03b4 	add.w	r3, r7, #180	; 0xb4
 8001a70:	2202      	movs	r2, #2
 8001a72:	601a      	str	r2, [r3, #0]
   __ASM volatile ("rbit %0, %1" : "=r" (result) : "r" (value) );
 8001a74:	f107 03b4 	add.w	r3, r7, #180	; 0xb4
 8001a78:	681b      	ldr	r3, [r3, #0]
 8001a7a:	fa93 f2a3 	rbit	r2, r3
 8001a7e:	f107 03b0 	add.w	r3, r7, #176	; 0xb0
 8001a82:	601a      	str	r2, [r3, #0]
 8001a84:	4bbb      	ldr	r3, [pc, #748]	; (8001d74 <HAL_RCC_OscConfig+0xc48>)
 8001a86:	6a5b      	ldr	r3, [r3, #36]	; 0x24
 8001a88:	f107 02ac 	add.w	r2, r7, #172	; 0xac
 8001a8c:	2102      	movs	r1, #2
 8001a8e:	6011      	str	r1, [r2, #0]
 8001a90:	f107 02ac 	add.w	r2, r7, #172	; 0xac
 8001a94:	6812      	ldr	r2, [r2, #0]
 8001a96:	fa92 f1a2 	rbit	r1, r2
 8001a9a:	f107 02a8 	add.w	r2, r7, #168	; 0xa8
 8001a9e:	6011      	str	r1, [r2, #0]
  return(result);
 8001aa0:	f107 02a8 	add.w	r2, r7, #168	; 0xa8
 8001aa4:	6812      	ldr	r2, [r2, #0]
 8001aa6:	fab2 f282 	clz	r2, r2
 8001aaa:	b252      	sxtb	r2, r2
 8001aac:	f042 0240 	orr.w	r2, r2, #64	; 0x40
 8001ab0:	b252      	sxtb	r2, r2
 8001ab2:	b2d2      	uxtb	r2, r2
 8001ab4:	f002 021f 	and.w	r2, r2, #31
 8001ab8:	2101      	movs	r1, #1
 8001aba:	fa01 f202 	lsl.w	r2, r1, r2
 8001abe:	4013      	ands	r3, r2
 8001ac0:	2b00      	cmp	r3, #0
 8001ac2:	d099      	beq.n	80019f8 <HAL_RCC_OscConfig+0x8cc>
 8001ac4:	e064      	b.n	8001b90 <HAL_RCC_OscConfig+0xa64>
      }
    }
    else
    {
      /* Get Start Tick */
      tickstart = HAL_GetTick();
 8001ac6:	f7ff f8a7 	bl	8000c18 <HAL_GetTick>
 8001aca:	f8c7 01f8 	str.w	r0, [r7, #504]	; 0x1f8
      
      /* Wait till LSE is disabled */  
      while(__HAL_RCC_GET_FLAG(RCC_FLAG_LSERDY) != RESET)
 8001ace:	e00b      	b.n	8001ae8 <HAL_RCC_OscConfig+0x9bc>
      {
        if((HAL_GetTick() - tickstart ) > RCC_LSE_TIMEOUT_VALUE)
 8001ad0:	f7ff f8a2 	bl	8000c18 <HAL_GetTick>
 8001ad4:	4602      	mov	r2, r0
 8001ad6:	f8d7 31f8 	ldr.w	r3, [r7, #504]	; 0x1f8
 8001ada:	1ad3      	subs	r3, r2, r3
 8001adc:	f241 3288 	movw	r2, #5000	; 0x1388
 8001ae0:	4293      	cmp	r3, r2
 8001ae2:	d901      	bls.n	8001ae8 <HAL_RCC_OscConfig+0x9bc>
        {
          return HAL_TIMEOUT;
 8001ae4:	2303      	movs	r3, #3
 8001ae6:	e208      	b.n	8001efa <HAL_RCC_OscConfig+0xdce>
 8001ae8:	f107 03a4 	add.w	r3, r7, #164	; 0xa4
 8001aec:	2202      	movs	r2, #2
 8001aee:	601a      	str	r2, [r3, #0]
   __ASM volatile ("rbit %0, %1" : "=r" (result) : "r" (value) );
 8001af0:	f107 03a4 	add.w	r3, r7, #164	; 0xa4
 8001af4:	681b      	ldr	r3, [r3, #0]
 8001af6:	fa93 f2a3 	rbit	r2, r3
 8001afa:	f107 03a0 	add.w	r3, r7, #160	; 0xa0
 8001afe:	601a      	str	r2, [r3, #0]
 8001b00:	f107 039c 	add.w	r3, r7, #156	; 0x9c
 8001b04:	2202      	movs	r2, #2
 8001b06:	601a      	str	r2, [r3, #0]
 8001b08:	f107 039c 	add.w	r3, r7, #156	; 0x9c
 8001b0c:	681b      	ldr	r3, [r3, #0]
 8001b0e:	fa93 f2a3 	rbit	r2, r3
 8001b12:	f107 0398 	add.w	r3, r7, #152	; 0x98
 8001b16:	601a      	str	r2, [r3, #0]
  return(result);
 8001b18:	f107 0398 	add.w	r3, r7, #152	; 0x98
 8001b1c:	681b      	ldr	r3, [r3, #0]
      while(__HAL_RCC_GET_FLAG(RCC_FLAG_LSERDY) != RESET)
 8001b1e:	fab3 f383 	clz	r3, r3
 8001b22:	b2db      	uxtb	r3, r3
 8001b24:	095b      	lsrs	r3, r3, #5
 8001b26:	b2db      	uxtb	r3, r3
 8001b28:	f043 0302 	orr.w	r3, r3, #2
 8001b2c:	b2db      	uxtb	r3, r3
 8001b2e:	2b02      	cmp	r3, #2
 8001b30:	d102      	bne.n	8001b38 <HAL_RCC_OscConfig+0xa0c>
 8001b32:	4b90      	ldr	r3, [pc, #576]	; (8001d74 <HAL_RCC_OscConfig+0xc48>)
 8001b34:	6a1b      	ldr	r3, [r3, #32]
 8001b36:	e00d      	b.n	8001b54 <HAL_RCC_OscConfig+0xa28>
 8001b38:	f107 0394 	add.w	r3, r7, #148	; 0x94
 8001b3c:	2202      	movs	r2, #2
 8001b3e:	601a      	str	r2, [r3, #0]
   __ASM volatile ("rbit %0, %1" : "=r" (result) : "r" (value) );
 8001b40:	f107 0394 	add.w	r3, r7, #148	; 0x94
 8001b44:	681b      	ldr	r3, [r3, #0]
 8001b46:	fa93 f2a3 	rbit	r2, r3
 8001b4a:	f107 0390 	add.w	r3, r7, #144	; 0x90
 8001b4e:	601a      	str	r2, [r3, #0]
 8001b50:	4b88      	ldr	r3, [pc, #544]	; (8001d74 <HAL_RCC_OscConfig+0xc48>)
 8001b52:	6a5b      	ldr	r3, [r3, #36]	; 0x24
 8001b54:	f107 028c 	add.w	r2, r7, #140	; 0x8c
 8001b58:	2102      	movs	r1, #2
 8001b5a:	6011      	str	r1, [r2, #0]
 8001b5c:	f107 028c 	add.w	r2, r7, #140	; 0x8c
 8001b60:	6812      	ldr	r2, [r2, #0]
 8001b62:	fa92 f1a2 	rbit	r1, r2
 8001b66:	f107 0288 	add.w	r2, r7, #136	; 0x88
 8001b6a:	6011      	str	r1, [r2, #0]
  return(result);
 8001b6c:	f107 0288 	add.w	r2, r7, #136	; 0x88
 8001b70:	6812      	ldr	r2, [r2, #0]
 8001b72:	fab2 f282 	clz	r2, r2
 8001b76:	b252      	sxtb	r2, r2
 8001b78:	f042 0240 	orr.w	r2, r2, #64	; 0x40
 8001b7c:	b252      	sxtb	r2, r2
 8001b7e:	b2d2      	uxtb	r2, r2
 8001b80:	f002 021f 	and.w	r2, r2, #31
 8001b84:	2101      	movs	r1, #1
 8001b86:	fa01 f202 	lsl.w	r2, r1, r2
 8001b8a:	4013      	ands	r3, r2
 8001b8c:	2b00      	cmp	r3, #0
 8001b8e:	d19f      	bne.n	8001ad0 <HAL_RCC_OscConfig+0x9a4>
        }
      }
    }

    /* Require to disable power clock if necessary */
    if(pwrclkchanged == SET)
 8001b90:	f897 31ff 	ldrb.w	r3, [r7, #511]	; 0x1ff
 8001b94:	2b01      	cmp	r3, #1
 8001b96:	d105      	bne.n	8001ba4 <HAL_RCC_OscConfig+0xa78>
    {
      __HAL_RCC_PWR_CLK_DISABLE();
 8001b98:	4b76      	ldr	r3, [pc, #472]	; (8001d74 <HAL_RCC_OscConfig+0xc48>)
 8001b9a:	69db      	ldr	r3, [r3, #28]
 8001b9c:	4a75      	ldr	r2, [pc, #468]	; (8001d74 <HAL_RCC_OscConfig+0xc48>)
 8001b9e:	f023 5380 	bic.w	r3, r3, #268435456	; 0x10000000
 8001ba2:	61d3      	str	r3, [r2, #28]
  }

  /*-------------------------------- PLL Configuration -----------------------*/
  /* Check the parameters */
  assert_param(IS_RCC_PLL(RCC_OscInitStruct->PLL.PLLState));
  if ((RCC_OscInitStruct->PLL.PLLState) != RCC_PLL_NONE)
 8001ba4:	1d3b      	adds	r3, r7, #4
 8001ba6:	681b      	ldr	r3, [r3, #0]
 8001ba8:	69db      	ldr	r3, [r3, #28]
 8001baa:	2b00      	cmp	r3, #0
 8001bac:	f000 81a4 	beq.w	8001ef8 <HAL_RCC_OscConfig+0xdcc>
  {
    /* Check if the PLL is used as system clock or not */
    if(__HAL_RCC_GET_SYSCLK_SOURCE() != RCC_SYSCLKSOURCE_STATUS_PLLCLK)
 8001bb0:	4b70      	ldr	r3, [pc, #448]	; (8001d74 <HAL_RCC_OscConfig+0xc48>)
 8001bb2:	685b      	ldr	r3, [r3, #4]
 8001bb4:	f003 030c 	and.w	r3, r3, #12
 8001bb8:	2b08      	cmp	r3, #8
 8001bba:	f000 819b 	beq.w	8001ef4 <HAL_RCC_OscConfig+0xdc8>
    { 
      if((RCC_OscInitStruct->PLL.PLLState) == RCC_PLL_ON)
 8001bbe:	1d3b      	adds	r3, r7, #4
 8001bc0:	681b      	ldr	r3, [r3, #0]
 8001bc2:	69db      	ldr	r3, [r3, #28]
 8001bc4:	2b02      	cmp	r3, #2
 8001bc6:	f040 8113 	bne.w	8001df0 <HAL_RCC_OscConfig+0xcc4>
 8001bca:	f107 0384 	add.w	r3, r7, #132	; 0x84
 8001bce:	f04f 7280 	mov.w	r2, #16777216	; 0x1000000
 8001bd2:	601a      	str	r2, [r3, #0]
   __ASM volatile ("rbit %0, %1" : "=r" (result) : "r" (value) );
 8001bd4:	f107 0384 	add.w	r3, r7, #132	; 0x84
 8001bd8:	681b      	ldr	r3, [r3, #0]
 8001bda:	fa93 f2a3 	rbit	r2, r3
 8001bde:	f107 0380 	add.w	r3, r7, #128	; 0x80
 8001be2:	601a      	str	r2, [r3, #0]
  return(result);
 8001be4:	f107 0380 	add.w	r3, r7, #128	; 0x80
 8001be8:	681b      	ldr	r3, [r3, #0]
#if   defined(RCC_CFGR_PLLSRC_HSI_PREDIV)
        assert_param(IS_RCC_PREDIV(RCC_OscInitStruct->PLL.PREDIV));
#endif
  
        /* Disable the main PLL. */
        __HAL_RCC_PLL_DISABLE();
 8001bea:	fab3 f383 	clz	r3, r3
 8001bee:	f103 5384 	add.w	r3, r3, #276824064	; 0x10800000
 8001bf2:	f503 1384 	add.w	r3, r3, #1081344	; 0x108000
 8001bf6:	009b      	lsls	r3, r3, #2
 8001bf8:	461a      	mov	r2, r3
 8001bfa:	2300      	movs	r3, #0
 8001bfc:	6013      	str	r3, [r2, #0]
        
        /* Get Start Tick */
        tickstart = HAL_GetTick();
 8001bfe:	f7ff f80b 	bl	8000c18 <HAL_GetTick>
 8001c02:	f8c7 01f8 	str.w	r0, [r7, #504]	; 0x1f8
        
        /* Wait till PLL is disabled */
        while(__HAL_RCC_GET_FLAG(RCC_FLAG_PLLRDY)  != RESET)
 8001c06:	e009      	b.n	8001c1c <HAL_RCC_OscConfig+0xaf0>
        {
          if((HAL_GetTick() - tickstart ) > PLL_TIMEOUT_VALUE)
 8001c08:	f7ff f806 	bl	8000c18 <HAL_GetTick>
 8001c0c:	4602      	mov	r2, r0
 8001c0e:	f8d7 31f8 	ldr.w	r3, [r7, #504]	; 0x1f8
 8001c12:	1ad3      	subs	r3, r2, r3
 8001c14:	2b02      	cmp	r3, #2
 8001c16:	d901      	bls.n	8001c1c <HAL_RCC_OscConfig+0xaf0>
          {
            return HAL_TIMEOUT;
 8001c18:	2303      	movs	r3, #3
 8001c1a:	e16e      	b.n	8001efa <HAL_RCC_OscConfig+0xdce>
 8001c1c:	f107 037c 	add.w	r3, r7, #124	; 0x7c
 8001c20:	f04f 7200 	mov.w	r2, #33554432	; 0x2000000
 8001c24:	601a      	str	r2, [r3, #0]
   __ASM volatile ("rbit %0, %1" : "=r" (result) : "r" (value) );
 8001c26:	f107 037c 	add.w	r3, r7, #124	; 0x7c
 8001c2a:	681b      	ldr	r3, [r3, #0]
 8001c2c:	fa93 f2a3 	rbit	r2, r3
 8001c30:	f107 0378 	add.w	r3, r7, #120	; 0x78
 8001c34:	601a      	str	r2, [r3, #0]
  return(result);
 8001c36:	f107 0378 	add.w	r3, r7, #120	; 0x78
 8001c3a:	681b      	ldr	r3, [r3, #0]
        while(__HAL_RCC_GET_FLAG(RCC_FLAG_PLLRDY)  != RESET)
 8001c3c:	fab3 f383 	clz	r3, r3
 8001c40:	b2db      	uxtb	r3, r3
 8001c42:	095b      	lsrs	r3, r3, #5
 8001c44:	b2db      	uxtb	r3, r3
 8001c46:	f043 0301 	orr.w	r3, r3, #1
 8001c4a:	b2db      	uxtb	r3, r3
 8001c4c:	2b01      	cmp	r3, #1
 8001c4e:	d102      	bne.n	8001c56 <HAL_RCC_OscConfig+0xb2a>
 8001c50:	4b48      	ldr	r3, [pc, #288]	; (8001d74 <HAL_RCC_OscConfig+0xc48>)
 8001c52:	681b      	ldr	r3, [r3, #0]
 8001c54:	e01b      	b.n	8001c8e <HAL_RCC_OscConfig+0xb62>
 8001c56:	f107 0374 	add.w	r3, r7, #116	; 0x74
 8001c5a:	f04f 7200 	mov.w	r2, #33554432	; 0x2000000
 8001c5e:	601a      	str	r2, [r3, #0]
   __ASM volatile ("rbit %0, %1" : "=r" (result) : "r" (value) );
 8001c60:	f107 0374 	add.w	r3, r7, #116	; 0x74
 8001c64:	681b      	ldr	r3, [r3, #0]
 8001c66:	fa93 f2a3 	rbit	r2, r3
 8001c6a:	f107 0370 	add.w	r3, r7, #112	; 0x70
 8001c6e:	601a      	str	r2, [r3, #0]
 8001c70:	f107 036c 	add.w	r3, r7, #108	; 0x6c
 8001c74:	f04f 7200 	mov.w	r2, #33554432	; 0x2000000
 8001c78:	601a      	str	r2, [r3, #0]
 8001c7a:	f107 036c 	add.w	r3, r7, #108	; 0x6c
 8001c7e:	681b      	ldr	r3, [r3, #0]
 8001c80:	fa93 f2a3 	rbit	r2, r3
 8001c84:	f107 0368 	add.w	r3, r7, #104	; 0x68
 8001c88:	601a      	str	r2, [r3, #0]
 8001c8a:	4b3a      	ldr	r3, [pc, #232]	; (8001d74 <HAL_RCC_OscConfig+0xc48>)
 8001c8c:	6a5b      	ldr	r3, [r3, #36]	; 0x24
 8001c8e:	f107 0264 	add.w	r2, r7, #100	; 0x64
 8001c92:	f04f 7100 	mov.w	r1, #33554432	; 0x2000000
 8001c96:	6011      	str	r1, [r2, #0]
 8001c98:	f107 0264 	add.w	r2, r7, #100	; 0x64
 8001c9c:	6812      	ldr	r2, [r2, #0]
 8001c9e:	fa92 f1a2 	rbit	r1, r2
 8001ca2:	f107 0260 	add.w	r2, r7, #96	; 0x60
 8001ca6:	6011      	str	r1, [r2, #0]
  return(result);
 8001ca8:	f107 0260 	add.w	r2, r7, #96	; 0x60
 8001cac:	6812      	ldr	r2, [r2, #0]
 8001cae:	fab2 f282 	clz	r2, r2
 8001cb2:	b252      	sxtb	r2, r2
 8001cb4:	f042 0220 	orr.w	r2, r2, #32
 8001cb8:	b252      	sxtb	r2, r2
 8001cba:	b2d2      	uxtb	r2, r2
 8001cbc:	f002 021f 	and.w	r2, r2, #31
 8001cc0:	2101      	movs	r1, #1
 8001cc2:	fa01 f202 	lsl.w	r2, r1, r2
 8001cc6:	4013      	ands	r3, r2
 8001cc8:	2b00      	cmp	r3, #0
 8001cca:	d19d      	bne.n	8001c08 <HAL_RCC_OscConfig+0xadc>
        __HAL_RCC_PLL_CONFIG(RCC_OscInitStruct->PLL.PLLSource,
                             RCC_OscInitStruct->PLL.PREDIV,
                             RCC_OscInitStruct->PLL.PLLMUL);
#else
      /* Configure the main PLL clock source and multiplication factor. */
      __HAL_RCC_PLL_CONFIG(RCC_OscInitStruct->PLL.PLLSource,
 8001ccc:	4b29      	ldr	r3, [pc, #164]	; (8001d74 <HAL_RCC_OscConfig+0xc48>)
 8001cce:	685b      	ldr	r3, [r3, #4]
 8001cd0:	f423 1274 	bic.w	r2, r3, #3997696	; 0x3d0000
 8001cd4:	1d3b      	adds	r3, r7, #4
 8001cd6:	681b      	ldr	r3, [r3, #0]
 8001cd8:	6a59      	ldr	r1, [r3, #36]	; 0x24
 8001cda:	1d3b      	adds	r3, r7, #4
 8001cdc:	681b      	ldr	r3, [r3, #0]
 8001cde:	6a1b      	ldr	r3, [r3, #32]
 8001ce0:	430b      	orrs	r3, r1
 8001ce2:	4924      	ldr	r1, [pc, #144]	; (8001d74 <HAL_RCC_OscConfig+0xc48>)
 8001ce4:	4313      	orrs	r3, r2
 8001ce6:	604b      	str	r3, [r1, #4]
 8001ce8:	f107 035c 	add.w	r3, r7, #92	; 0x5c
 8001cec:	f04f 7280 	mov.w	r2, #16777216	; 0x1000000
 8001cf0:	601a      	str	r2, [r3, #0]
   __ASM volatile ("rbit %0, %1" : "=r" (result) : "r" (value) );
 8001cf2:	f107 035c 	add.w	r3, r7, #92	; 0x5c
 8001cf6:	681b      	ldr	r3, [r3, #0]
 8001cf8:	fa93 f2a3 	rbit	r2, r3
 8001cfc:	f107 0358 	add.w	r3, r7, #88	; 0x58
 8001d00:	601a      	str	r2, [r3, #0]
  return(result);
 8001d02:	f107 0358 	add.w	r3, r7, #88	; 0x58
 8001d06:	681b      	ldr	r3, [r3, #0]
                           RCC_OscInitStruct->PLL.PLLMUL);
#endif /* RCC_CFGR_PLLSRC_HSI_PREDIV */
        /* Enable the main PLL. */
        __HAL_RCC_PLL_ENABLE();
 8001d08:	fab3 f383 	clz	r3, r3
 8001d0c:	f103 5384 	add.w	r3, r3, #276824064	; 0x10800000
 8001d10:	f503 1384 	add.w	r3, r3, #1081344	; 0x108000
 8001d14:	009b      	lsls	r3, r3, #2
 8001d16:	461a      	mov	r2, r3
 8001d18:	2301      	movs	r3, #1
 8001d1a:	6013      	str	r3, [r2, #0]
        
        /* Get Start Tick */
        tickstart = HAL_GetTick();
 8001d1c:	f7fe ff7c 	bl	8000c18 <HAL_GetTick>
 8001d20:	f8c7 01f8 	str.w	r0, [r7, #504]	; 0x1f8
        
        /* Wait till PLL is ready */
        while(__HAL_RCC_GET_FLAG(RCC_FLAG_PLLRDY)  == RESET)
 8001d24:	e009      	b.n	8001d3a <HAL_RCC_OscConfig+0xc0e>
        {
          if((HAL_GetTick() - tickstart ) > PLL_TIMEOUT_VALUE)
 8001d26:	f7fe ff77 	bl	8000c18 <HAL_GetTick>
 8001d2a:	4602      	mov	r2, r0
 8001d2c:	f8d7 31f8 	ldr.w	r3, [r7, #504]	; 0x1f8
 8001d30:	1ad3      	subs	r3, r2, r3
 8001d32:	2b02      	cmp	r3, #2
 8001d34:	d901      	bls.n	8001d3a <HAL_RCC_OscConfig+0xc0e>
          {
            return HAL_TIMEOUT;
 8001d36:	2303      	movs	r3, #3
 8001d38:	e0df      	b.n	8001efa <HAL_RCC_OscConfig+0xdce>
 8001d3a:	f107 0354 	add.w	r3, r7, #84	; 0x54
 8001d3e:	f04f 7200 	mov.w	r2, #33554432	; 0x2000000
 8001d42:	601a      	str	r2, [r3, #0]
   __ASM volatile ("rbit %0, %1" : "=r" (result) : "r" (value) );
 8001d44:	f107 0354 	add.w	r3, r7, #84	; 0x54
 8001d48:	681b      	ldr	r3, [r3, #0]
 8001d4a:	fa93 f2a3 	rbit	r2, r3
 8001d4e:	f107 0350 	add.w	r3, r7, #80	; 0x50
 8001d52:	601a      	str	r2, [r3, #0]
  return(result);
 8001d54:	f107 0350 	add.w	r3, r7, #80	; 0x50
 8001d58:	681b      	ldr	r3, [r3, #0]
        while(__HAL_RCC_GET_FLAG(RCC_FLAG_PLLRDY)  == RESET)
 8001d5a:	fab3 f383 	clz	r3, r3
 8001d5e:	b2db      	uxtb	r3, r3
 8001d60:	095b      	lsrs	r3, r3, #5
 8001d62:	b2db      	uxtb	r3, r3
 8001d64:	f043 0301 	orr.w	r3, r3, #1
 8001d68:	b2db      	uxtb	r3, r3
 8001d6a:	2b01      	cmp	r3, #1
 8001d6c:	d104      	bne.n	8001d78 <HAL_RCC_OscConfig+0xc4c>
 8001d6e:	4b01      	ldr	r3, [pc, #4]	; (8001d74 <HAL_RCC_OscConfig+0xc48>)
 8001d70:	681b      	ldr	r3, [r3, #0]
 8001d72:	e01d      	b.n	8001db0 <HAL_RCC_OscConfig+0xc84>
 8001d74:	40021000 	.word	0x40021000
 8001d78:	f107 034c 	add.w	r3, r7, #76	; 0x4c
 8001d7c:	f04f 7200 	mov.w	r2, #33554432	; 0x2000000
 8001d80:	601a      	str	r2, [r3, #0]
   __ASM volatile ("rbit %0, %1" : "=r" (result) : "r" (value) );
 8001d82:	f107 034c 	add.w	r3, r7, #76	; 0x4c
 8001d86:	681b      	ldr	r3, [r3, #0]
 8001d88:	fa93 f2a3 	rbit	r2, r3
 8001d8c:	f107 0348 	add.w	r3, r7, #72	; 0x48
 8001d90:	601a      	str	r2, [r3, #0]
 8001d92:	f107 0344 	add.w	r3, r7, #68	; 0x44
 8001d96:	f04f 7200 	mov.w	r2, #33554432	; 0x2000000
 8001d9a:	601a      	str	r2, [r3, #0]
 8001d9c:	f107 0344 	add.w	r3, r7, #68	; 0x44
 8001da0:	681b      	ldr	r3, [r3, #0]
 8001da2:	fa93 f2a3 	rbit	r2, r3
 8001da6:	f107 0340 	add.w	r3, r7, #64	; 0x40
 8001daa:	601a      	str	r2, [r3, #0]
 8001dac:	4b55      	ldr	r3, [pc, #340]	; (8001f04 <HAL_RCC_OscConfig+0xdd8>)
 8001dae:	6a5b      	ldr	r3, [r3, #36]	; 0x24
 8001db0:	f107 023c 	add.w	r2, r7, #60	; 0x3c
 8001db4:	f04f 7100 	mov.w	r1, #33554432	; 0x2000000
 8001db8:	6011      	str	r1, [r2, #0]
 8001dba:	f107 023c 	add.w	r2, r7, #60	; 0x3c
 8001dbe:	6812      	ldr	r2, [r2, #0]
 8001dc0:	fa92 f1a2 	rbit	r1, r2
 8001dc4:	f107 0238 	add.w	r2, r7, #56	; 0x38
 8001dc8:	6011      	str	r1, [r2, #0]
  return(result);
 8001dca:	f107 0238 	add.w	r2, r7, #56	; 0x38
 8001dce:	6812      	ldr	r2, [r2, #0]
 8001dd0:	fab2 f282 	clz	r2, r2
 8001dd4:	b252      	sxtb	r2, r2
 8001dd6:	f042 0220 	orr.w	r2, r2, #32
 8001dda:	b252      	sxtb	r2, r2
 8001ddc:	b2d2      	uxtb	r2, r2
 8001dde:	f002 021f 	and.w	r2, r2, #31
 8001de2:	2101      	movs	r1, #1
 8001de4:	fa01 f202 	lsl.w	r2, r1, r2
 8001de8:	4013      	ands	r3, r2
 8001dea:	2b00      	cmp	r3, #0
 8001dec:	d09b      	beq.n	8001d26 <HAL_RCC_OscConfig+0xbfa>
 8001dee:	e083      	b.n	8001ef8 <HAL_RCC_OscConfig+0xdcc>
 8001df0:	f107 0334 	add.w	r3, r7, #52	; 0x34
 8001df4:	f04f 7280 	mov.w	r2, #16777216	; 0x1000000
 8001df8:	601a      	str	r2, [r3, #0]
   __ASM volatile ("rbit %0, %1" : "=r" (result) : "r" (value) );
 8001dfa:	f107 0334 	add.w	r3, r7, #52	; 0x34
 8001dfe:	681b      	ldr	r3, [r3, #0]
 8001e00:	fa93 f2a3 	rbit	r2, r3
 8001e04:	f107 0330 	add.w	r3, r7, #48	; 0x30
 8001e08:	601a      	str	r2, [r3, #0]
  return(result);
 8001e0a:	f107 0330 	add.w	r3, r7, #48	; 0x30
 8001e0e:	681b      	ldr	r3, [r3, #0]
        }
      }
      else
      {
        /* Disable the main PLL. */
        __HAL_RCC_PLL_DISABLE();
 8001e10:	fab3 f383 	clz	r3, r3
 8001e14:	f103 5384 	add.w	r3, r3, #276824064	; 0x10800000
 8001e18:	f503 1384 	add.w	r3, r3, #1081344	; 0x108000
 8001e1c:	009b      	lsls	r3, r3, #2
 8001e1e:	461a      	mov	r2, r3
 8001e20:	2300      	movs	r3, #0
 8001e22:	6013      	str	r3, [r2, #0]
 
        /* Get Start Tick */
        tickstart = HAL_GetTick();
 8001e24:	f7fe fef8 	bl	8000c18 <HAL_GetTick>
 8001e28:	f8c7 01f8 	str.w	r0, [r7, #504]	; 0x1f8
        
        /* Wait till PLL is disabled */  
        while(__HAL_RCC_GET_FLAG(RCC_FLAG_PLLRDY)  != RESET)
 8001e2c:	e009      	b.n	8001e42 <HAL_RCC_OscConfig+0xd16>
        {
          if((HAL_GetTick() - tickstart ) > PLL_TIMEOUT_VALUE)
 8001e2e:	f7fe fef3 	bl	8000c18 <HAL_GetTick>
 8001e32:	4602      	mov	r2, r0
 8001e34:	f8d7 31f8 	ldr.w	r3, [r7, #504]	; 0x1f8
 8001e38:	1ad3      	subs	r3, r2, r3
 8001e3a:	2b02      	cmp	r3, #2
 8001e3c:	d901      	bls.n	8001e42 <HAL_RCC_OscConfig+0xd16>
          {
            return HAL_TIMEOUT;
 8001e3e:	2303      	movs	r3, #3
 8001e40:	e05b      	b.n	8001efa <HAL_RCC_OscConfig+0xdce>
 8001e42:	f107 032c 	add.w	r3, r7, #44	; 0x2c
 8001e46:	f04f 7200 	mov.w	r2, #33554432	; 0x2000000
 8001e4a:	601a      	str	r2, [r3, #0]
   __ASM volatile ("rbit %0, %1" : "=r" (result) : "r" (value) );
 8001e4c:	f107 032c 	add.w	r3, r7, #44	; 0x2c
 8001e50:	681b      	ldr	r3, [r3, #0]
 8001e52:	fa93 f2a3 	rbit	r2, r3
 8001e56:	f107 0328 	add.w	r3, r7, #40	; 0x28
 8001e5a:	601a      	str	r2, [r3, #0]
  return(result);
 8001e5c:	f107 0328 	add.w	r3, r7, #40	; 0x28
 8001e60:	681b      	ldr	r3, [r3, #0]
        while(__HAL_RCC_GET_FLAG(RCC_FLAG_PLLRDY)  != RESET)
 8001e62:	fab3 f383 	clz	r3, r3
 8001e66:	b2db      	uxtb	r3, r3
 8001e68:	095b      	lsrs	r3, r3, #5
 8001e6a:	b2db      	uxtb	r3, r3
 8001e6c:	f043 0301 	orr.w	r3, r3, #1
 8001e70:	b2db      	uxtb	r3, r3
 8001e72:	2b01      	cmp	r3, #1
 8001e74:	d102      	bne.n	8001e7c <HAL_RCC_OscConfig+0xd50>
 8001e76:	4b23      	ldr	r3, [pc, #140]	; (8001f04 <HAL_RCC_OscConfig+0xdd8>)
 8001e78:	681b      	ldr	r3, [r3, #0]
 8001e7a:	e01b      	b.n	8001eb4 <HAL_RCC_OscConfig+0xd88>
 8001e7c:	f107 0324 	add.w	r3, r7, #36	; 0x24
 8001e80:	f04f 7200 	mov.w	r2, #33554432	; 0x2000000
 8001e84:	601a      	str	r2, [r3, #0]
   __ASM volatile ("rbit %0, %1" : "=r" (result) : "r" (value) );
 8001e86:	f107 0324 	add.w	r3, r7, #36	; 0x24
 8001e8a:	681b      	ldr	r3, [r3, #0]
 8001e8c:	fa93 f2a3 	rbit	r2, r3
 8001e90:	f107 0320 	add.w	r3, r7, #32
 8001e94:	601a      	str	r2, [r3, #0]
 8001e96:	f107 031c 	add.w	r3, r7, #28
 8001e9a:	f04f 7200 	mov.w	r2, #33554432	; 0x2000000
 8001e9e:	601a      	str	r2, [r3, #0]
 8001ea0:	f107 031c 	add.w	r3, r7, #28
 8001ea4:	681b      	ldr	r3, [r3, #0]
 8001ea6:	fa93 f2a3 	rbit	r2, r3
 8001eaa:	f107 0318 	add.w	r3, r7, #24
 8001eae:	601a      	str	r2, [r3, #0]
 8001eb0:	4b14      	ldr	r3, [pc, #80]	; (8001f04 <HAL_RCC_OscConfig+0xdd8>)
 8001eb2:	6a5b      	ldr	r3, [r3, #36]	; 0x24
 8001eb4:	f107 0214 	add.w	r2, r7, #20
 8001eb8:	f04f 7100 	mov.w	r1, #33554432	; 0x2000000
 8001ebc:	6011      	str	r1, [r2, #0]
 8001ebe:	f107 0214 	add.w	r2, r7, #20
 8001ec2:	6812      	ldr	r2, [r2, #0]
 8001ec4:	fa92 f1a2 	rbit	r1, r2
 8001ec8:	f107 0210 	add.w	r2, r7, #16
 8001ecc:	6011      	str	r1, [r2, #0]
  return(result);
 8001ece:	f107 0210 	add.w	r2, r7, #16
 8001ed2:	6812      	ldr	r2, [r2, #0]
 8001ed4:	fab2 f282 	clz	r2, r2
 8001ed8:	b252      	sxtb	r2, r2
 8001eda:	f042 0220 	orr.w	r2, r2, #32
 8001ede:	b252      	sxtb	r2, r2
 8001ee0:	b2d2      	uxtb	r2, r2
 8001ee2:	f002 021f 	and.w	r2, r2, #31
 8001ee6:	2101      	movs	r1, #1
 8001ee8:	fa01 f202 	lsl.w	r2, r1, r2
 8001eec:	4013      	ands	r3, r2
 8001eee:	2b00      	cmp	r3, #0
 8001ef0:	d19d      	bne.n	8001e2e <HAL_RCC_OscConfig+0xd02>
 8001ef2:	e001      	b.n	8001ef8 <HAL_RCC_OscConfig+0xdcc>
        }
      }
    }
    else
    {
      return HAL_ERROR;
 8001ef4:	2301      	movs	r3, #1
 8001ef6:	e000      	b.n	8001efa <HAL_RCC_OscConfig+0xdce>
    }
  }
  
  return HAL_OK;
 8001ef8:	2300      	movs	r3, #0
}
 8001efa:	4618      	mov	r0, r3
 8001efc:	f507 7700 	add.w	r7, r7, #512	; 0x200
 8001f00:	46bd      	mov	sp, r7
 8001f02:	bd80      	pop	{r7, pc}
 8001f04:	40021000 	.word	0x40021000

08001f08 <HAL_RCC_ClockConfig>:
  *         You can use @ref HAL_RCC_GetClockConfig() function to know which clock is
  *         currently used as system clock source.
  * @retval HAL status
  */
HAL_StatusTypeDef HAL_RCC_ClockConfig(RCC_ClkInitTypeDef  *RCC_ClkInitStruct, uint32_t FLatency)
{
 8001f08:	b580      	push	{r7, lr}
 8001f0a:	b09e      	sub	sp, #120	; 0x78
 8001f0c:	af00      	add	r7, sp, #0
 8001f0e:	6078      	str	r0, [r7, #4]
 8001f10:	6039      	str	r1, [r7, #0]
  uint32_t tickstart = 0U;
 8001f12:	2300      	movs	r3, #0
 8001f14:	677b      	str	r3, [r7, #116]	; 0x74

  /* Check Null pointer */
  if(RCC_ClkInitStruct == NULL)
 8001f16:	687b      	ldr	r3, [r7, #4]
 8001f18:	2b00      	cmp	r3, #0
 8001f1a:	d101      	bne.n	8001f20 <HAL_RCC_ClockConfig+0x18>
  {
    return HAL_ERROR;
 8001f1c:	2301      	movs	r3, #1
 8001f1e:	e164      	b.n	80021ea <HAL_RCC_ClockConfig+0x2e2>
  /* To correctly read data from FLASH memory, the number of wait states (LATENCY) 
  must be correctly programmed according to the frequency of the CPU clock 
    (HCLK) of the device. */

  /* Increasing the number of wait states because of higher CPU frequency */
  if(FLatency > __HAL_FLASH_GET_LATENCY())
 8001f20:	4b92      	ldr	r3, [pc, #584]	; (800216c <HAL_RCC_ClockConfig+0x264>)
 8001f22:	681b      	ldr	r3, [r3, #0]
 8001f24:	f003 0307 	and.w	r3, r3, #7
 8001f28:	683a      	ldr	r2, [r7, #0]
 8001f2a:	429a      	cmp	r2, r3
 8001f2c:	d910      	bls.n	8001f50 <HAL_RCC_ClockConfig+0x48>
  {    
    /* Program the new number of wait states to the LATENCY bits in the FLASH_ACR register */
    __HAL_FLASH_SET_LATENCY(FLatency);
 8001f2e:	4b8f      	ldr	r3, [pc, #572]	; (800216c <HAL_RCC_ClockConfig+0x264>)
 8001f30:	681b      	ldr	r3, [r3, #0]
 8001f32:	f023 0207 	bic.w	r2, r3, #7
 8001f36:	498d      	ldr	r1, [pc, #564]	; (800216c <HAL_RCC_ClockConfig+0x264>)
 8001f38:	683b      	ldr	r3, [r7, #0]
 8001f3a:	4313      	orrs	r3, r2
 8001f3c:	600b      	str	r3, [r1, #0]
    
    /* Check that the new number of wait states is taken into account to access the Flash
    memory by reading the FLASH_ACR register */
    if(__HAL_FLASH_GET_LATENCY() != FLatency)
 8001f3e:	4b8b      	ldr	r3, [pc, #556]	; (800216c <HAL_RCC_ClockConfig+0x264>)
 8001f40:	681b      	ldr	r3, [r3, #0]
 8001f42:	f003 0307 	and.w	r3, r3, #7
 8001f46:	683a      	ldr	r2, [r7, #0]
 8001f48:	429a      	cmp	r2, r3
 8001f4a:	d001      	beq.n	8001f50 <HAL_RCC_ClockConfig+0x48>
    {
      return HAL_ERROR;
 8001f4c:	2301      	movs	r3, #1
 8001f4e:	e14c      	b.n	80021ea <HAL_RCC_ClockConfig+0x2e2>
    }
  }

  /*-------------------------- HCLK Configuration --------------------------*/
  if(((RCC_ClkInitStruct->ClockType) & RCC_CLOCKTYPE_HCLK) == RCC_CLOCKTYPE_HCLK)
 8001f50:	687b      	ldr	r3, [r7, #4]
 8001f52:	681b      	ldr	r3, [r3, #0]
 8001f54:	f003 0302 	and.w	r3, r3, #2
 8001f58:	2b00      	cmp	r3, #0
 8001f5a:	d008      	beq.n	8001f6e <HAL_RCC_ClockConfig+0x66>
  {
    assert_param(IS_RCC_HCLK(RCC_ClkInitStruct->AHBCLKDivider));
    MODIFY_REG(RCC->CFGR, RCC_CFGR_HPRE, RCC_ClkInitStruct->AHBCLKDivider);
 8001f5c:	4b84      	ldr	r3, [pc, #528]	; (8002170 <HAL_RCC_ClockConfig+0x268>)
 8001f5e:	685b      	ldr	r3, [r3, #4]
 8001f60:	f023 02f0 	bic.w	r2, r3, #240	; 0xf0
 8001f64:	687b      	ldr	r3, [r7, #4]
 8001f66:	689b      	ldr	r3, [r3, #8]
 8001f68:	4981      	ldr	r1, [pc, #516]	; (8002170 <HAL_RCC_ClockConfig+0x268>)
 8001f6a:	4313      	orrs	r3, r2
 8001f6c:	604b      	str	r3, [r1, #4]
  }

  /*------------------------- SYSCLK Configuration ---------------------------*/ 
  if(((RCC_ClkInitStruct->ClockType) & RCC_CLOCKTYPE_SYSCLK) == RCC_CLOCKTYPE_SYSCLK)
 8001f6e:	687b      	ldr	r3, [r7, #4]
 8001f70:	681b      	ldr	r3, [r3, #0]
 8001f72:	f003 0301 	and.w	r3, r3, #1
 8001f76:	2b00      	cmp	r3, #0
 8001f78:	f000 80df 	beq.w	800213a <HAL_RCC_ClockConfig+0x232>
  {    
    assert_param(IS_RCC_SYSCLKSOURCE(RCC_ClkInitStruct->SYSCLKSource));
    
    /* HSE is selected as System Clock Source */
    if(RCC_ClkInitStruct->SYSCLKSource == RCC_SYSCLKSOURCE_HSE)
 8001f7c:	687b      	ldr	r3, [r7, #4]
 8001f7e:	685b      	ldr	r3, [r3, #4]
 8001f80:	2b01      	cmp	r3, #1
 8001f82:	d13d      	bne.n	8002000 <HAL_RCC_ClockConfig+0xf8>
 8001f84:	f44f 3300 	mov.w	r3, #131072	; 0x20000
 8001f88:	673b      	str	r3, [r7, #112]	; 0x70
   __ASM volatile ("rbit %0, %1" : "=r" (result) : "r" (value) );
 8001f8a:	6f3b      	ldr	r3, [r7, #112]	; 0x70
 8001f8c:	fa93 f3a3 	rbit	r3, r3
 8001f90:	66fb      	str	r3, [r7, #108]	; 0x6c
  return(result);
 8001f92:	6efb      	ldr	r3, [r7, #108]	; 0x6c
    {
      /* Check the HSE ready flag */  
      if(__HAL_RCC_GET_FLAG(RCC_FLAG_HSERDY) == RESET)
 8001f94:	fab3 f383 	clz	r3, r3
 8001f98:	b2db      	uxtb	r3, r3
 8001f9a:	095b      	lsrs	r3, r3, #5
 8001f9c:	b2db      	uxtb	r3, r3
 8001f9e:	f043 0301 	orr.w	r3, r3, #1
 8001fa2:	b2db      	uxtb	r3, r3
 8001fa4:	2b01      	cmp	r3, #1
 8001fa6:	d102      	bne.n	8001fae <HAL_RCC_ClockConfig+0xa6>
 8001fa8:	4b71      	ldr	r3, [pc, #452]	; (8002170 <HAL_RCC_ClockConfig+0x268>)
 8001faa:	681b      	ldr	r3, [r3, #0]
 8001fac:	e00f      	b.n	8001fce <HAL_RCC_ClockConfig+0xc6>
 8001fae:	f44f 3300 	mov.w	r3, #131072	; 0x20000
 8001fb2:	66bb      	str	r3, [r7, #104]	; 0x68
   __ASM volatile ("rbit %0, %1" : "=r" (result) : "r" (value) );
 8001fb4:	6ebb      	ldr	r3, [r7, #104]	; 0x68
 8001fb6:	fa93 f3a3 	rbit	r3, r3
 8001fba:	667b      	str	r3, [r7, #100]	; 0x64
 8001fbc:	f44f 3300 	mov.w	r3, #131072	; 0x20000
 8001fc0:	663b      	str	r3, [r7, #96]	; 0x60
 8001fc2:	6e3b      	ldr	r3, [r7, #96]	; 0x60
 8001fc4:	fa93 f3a3 	rbit	r3, r3
 8001fc8:	65fb      	str	r3, [r7, #92]	; 0x5c
 8001fca:	4b69      	ldr	r3, [pc, #420]	; (8002170 <HAL_RCC_ClockConfig+0x268>)
 8001fcc:	6a5b      	ldr	r3, [r3, #36]	; 0x24
 8001fce:	f44f 3200 	mov.w	r2, #131072	; 0x20000
 8001fd2:	65ba      	str	r2, [r7, #88]	; 0x58
 8001fd4:	6dba      	ldr	r2, [r7, #88]	; 0x58
 8001fd6:	fa92 f2a2 	rbit	r2, r2
 8001fda:	657a      	str	r2, [r7, #84]	; 0x54
  return(result);
 8001fdc:	6d7a      	ldr	r2, [r7, #84]	; 0x54
 8001fde:	fab2 f282 	clz	r2, r2
 8001fe2:	b252      	sxtb	r2, r2
 8001fe4:	f042 0220 	orr.w	r2, r2, #32
 8001fe8:	b252      	sxtb	r2, r2
 8001fea:	b2d2      	uxtb	r2, r2
 8001fec:	f002 021f 	and.w	r2, r2, #31
 8001ff0:	2101      	movs	r1, #1
 8001ff2:	fa01 f202 	lsl.w	r2, r1, r2
 8001ff6:	4013      	ands	r3, r2
 8001ff8:	2b00      	cmp	r3, #0
 8001ffa:	d17d      	bne.n	80020f8 <HAL_RCC_ClockConfig+0x1f0>
      {
        return HAL_ERROR;
 8001ffc:	2301      	movs	r3, #1
 8001ffe:	e0f4      	b.n	80021ea <HAL_RCC_ClockConfig+0x2e2>
      }
    }
    /* PLL is selected as System Clock Source */
    else if(RCC_ClkInitStruct->SYSCLKSource == RCC_SYSCLKSOURCE_PLLCLK)
 8002000:	687b      	ldr	r3, [r7, #4]
 8002002:	685b      	ldr	r3, [r3, #4]
 8002004:	2b02      	cmp	r3, #2
 8002006:	d13d      	bne.n	8002084 <HAL_RCC_ClockConfig+0x17c>
 8002008:	f04f 7300 	mov.w	r3, #33554432	; 0x2000000
 800200c:	653b      	str	r3, [r7, #80]	; 0x50
   __ASM volatile ("rbit %0, %1" : "=r" (result) : "r" (value) );
 800200e:	6d3b      	ldr	r3, [r7, #80]	; 0x50
 8002010:	fa93 f3a3 	rbit	r3, r3
 8002014:	64fb      	str	r3, [r7, #76]	; 0x4c
  return(result);
 8002016:	6cfb      	ldr	r3, [r7, #76]	; 0x4c
    {
      /* Check the PLL ready flag */  
      if(__HAL_RCC_GET_FLAG(RCC_FLAG_PLLRDY) == RESET)
 8002018:	fab3 f383 	clz	r3, r3
 800201c:	b2db      	uxtb	r3, r3
 800201e:	095b      	lsrs	r3, r3, #5
 8002020:	b2db      	uxtb	r3, r3
 8002022:	f043 0301 	orr.w	r3, r3, #1
 8002026:	b2db      	uxtb	r3, r3
 8002028:	2b01      	cmp	r3, #1
 800202a:	d102      	bne.n	8002032 <HAL_RCC_ClockConfig+0x12a>
 800202c:	4b50      	ldr	r3, [pc, #320]	; (8002170 <HAL_RCC_ClockConfig+0x268>)
 800202e:	681b      	ldr	r3, [r3, #0]
 8002030:	e00f      	b.n	8002052 <HAL_RCC_ClockConfig+0x14a>
 8002032:	f04f 7300 	mov.w	r3, #33554432	; 0x2000000
 8002036:	64bb      	str	r3, [r7, #72]	; 0x48
   __ASM volatile ("rbit %0, %1" : "=r" (result) : "r" (value) );
 8002038:	6cbb      	ldr	r3, [r7, #72]	; 0x48
 800203a:	fa93 f3a3 	rbit	r3, r3
 800203e:	647b      	str	r3, [r7, #68]	; 0x44
 8002040:	f04f 7300 	mov.w	r3, #33554432	; 0x2000000
 8002044:	643b      	str	r3, [r7, #64]	; 0x40
 8002046:	6c3b      	ldr	r3, [r7, #64]	; 0x40
 8002048:	fa93 f3a3 	rbit	r3, r3
 800204c:	63fb      	str	r3, [r7, #60]	; 0x3c
 800204e:	4b48      	ldr	r3, [pc, #288]	; (8002170 <HAL_RCC_ClockConfig+0x268>)
 8002050:	6a5b      	ldr	r3, [r3, #36]	; 0x24
 8002052:	f04f 7200 	mov.w	r2, #33554432	; 0x2000000
 8002056:	63ba      	str	r2, [r7, #56]	; 0x38
 8002058:	6bba      	ldr	r2, [r7, #56]	; 0x38
 800205a:	fa92 f2a2 	rbit	r2, r2
 800205e:	637a      	str	r2, [r7, #52]	; 0x34
  return(result);
 8002060:	6b7a      	ldr	r2, [r7, #52]	; 0x34
 8002062:	fab2 f282 	clz	r2, r2
 8002066:	b252      	sxtb	r2, r2
 8002068:	f042 0220 	orr.w	r2, r2, #32
 800206c:	b252      	sxtb	r2, r2
 800206e:	b2d2      	uxtb	r2, r2
 8002070:	f002 021f 	and.w	r2, r2, #31
 8002074:	2101      	movs	r1, #1
 8002076:	fa01 f202 	lsl.w	r2, r1, r2
 800207a:	4013      	ands	r3, r2
 800207c:	2b00      	cmp	r3, #0
 800207e:	d13b      	bne.n	80020f8 <HAL_RCC_ClockConfig+0x1f0>
      {
        return HAL_ERROR;
 8002080:	2301      	movs	r3, #1
 8002082:	e0b2      	b.n	80021ea <HAL_RCC_ClockConfig+0x2e2>
 8002084:	2302      	movs	r3, #2
 8002086:	633b      	str	r3, [r7, #48]	; 0x30
   __ASM volatile ("rbit %0, %1" : "=r" (result) : "r" (value) );
 8002088:	6b3b      	ldr	r3, [r7, #48]	; 0x30
 800208a:	fa93 f3a3 	rbit	r3, r3
 800208e:	62fb      	str	r3, [r7, #44]	; 0x2c
  return(result);
 8002090:	6afb      	ldr	r3, [r7, #44]	; 0x2c
    }
    /* HSI is selected as System Clock Source */
    else
    {
      /* Check the HSI ready flag */  
      if(__HAL_RCC_GET_FLAG(RCC_FLAG_HSIRDY) == RESET)
 8002092:	fab3 f383 	clz	r3, r3
 8002096:	b2db      	uxtb	r3, r3
 8002098:	095b      	lsrs	r3, r3, #5
 800209a:	b2db      	uxtb	r3, r3
 800209c:	f043 0301 	orr.w	r3, r3, #1
 80020a0:	b2db      	uxtb	r3, r3
 80020a2:	2b01      	cmp	r3, #1
 80020a4:	d102      	bne.n	80020ac <HAL_RCC_ClockConfig+0x1a4>
 80020a6:	4b32      	ldr	r3, [pc, #200]	; (8002170 <HAL_RCC_ClockConfig+0x268>)
 80020a8:	681b      	ldr	r3, [r3, #0]
 80020aa:	e00d      	b.n	80020c8 <HAL_RCC_ClockConfig+0x1c0>
 80020ac:	2302      	movs	r3, #2
 80020ae:	62bb      	str	r3, [r7, #40]	; 0x28
   __ASM volatile ("rbit %0, %1" : "=r" (result) : "r" (value) );
 80020b0:	6abb      	ldr	r3, [r7, #40]	; 0x28
 80020b2:	fa93 f3a3 	rbit	r3, r3
 80020b6:	627b      	str	r3, [r7, #36]	; 0x24
 80020b8:	2302      	movs	r3, #2
 80020ba:	623b      	str	r3, [r7, #32]
 80020bc:	6a3b      	ldr	r3, [r7, #32]
 80020be:	fa93 f3a3 	rbit	r3, r3
 80020c2:	61fb      	str	r3, [r7, #28]
 80020c4:	4b2a      	ldr	r3, [pc, #168]	; (8002170 <HAL_RCC_ClockConfig+0x268>)
 80020c6:	6a5b      	ldr	r3, [r3, #36]	; 0x24
 80020c8:	2202      	movs	r2, #2
 80020ca:	61ba      	str	r2, [r7, #24]
 80020cc:	69ba      	ldr	r2, [r7, #24]
 80020ce:	fa92 f2a2 	rbit	r2, r2
 80020d2:	617a      	str	r2, [r7, #20]
  return(result);
 80020d4:	697a      	ldr	r2, [r7, #20]
 80020d6:	fab2 f282 	clz	r2, r2
 80020da:	b252      	sxtb	r2, r2
 80020dc:	f042 0220 	orr.w	r2, r2, #32
 80020e0:	b252      	sxtb	r2, r2
 80020e2:	b2d2      	uxtb	r2, r2
 80020e4:	f002 021f 	and.w	r2, r2, #31
 80020e8:	2101      	movs	r1, #1
 80020ea:	fa01 f202 	lsl.w	r2, r1, r2
 80020ee:	4013      	ands	r3, r2
 80020f0:	2b00      	cmp	r3, #0
 80020f2:	d101      	bne.n	80020f8 <HAL_RCC_ClockConfig+0x1f0>
      {
        return HAL_ERROR;
 80020f4:	2301      	movs	r3, #1
 80020f6:	e078      	b.n	80021ea <HAL_RCC_ClockConfig+0x2e2>
      }
    }

    __HAL_RCC_SYSCLK_CONFIG(RCC_ClkInitStruct->SYSCLKSource);
 80020f8:	4b1d      	ldr	r3, [pc, #116]	; (8002170 <HAL_RCC_ClockConfig+0x268>)
 80020fa:	685b      	ldr	r3, [r3, #4]
 80020fc:	f023 0203 	bic.w	r2, r3, #3
 8002100:	687b      	ldr	r3, [r7, #4]
 8002102:	685b      	ldr	r3, [r3, #4]
 8002104:	491a      	ldr	r1, [pc, #104]	; (8002170 <HAL_RCC_ClockConfig+0x268>)
 8002106:	4313      	orrs	r3, r2
 8002108:	604b      	str	r3, [r1, #4]

    /* Get Start Tick */
    tickstart = HAL_GetTick();
 800210a:	f7fe fd85 	bl	8000c18 <HAL_GetTick>
 800210e:	6778      	str	r0, [r7, #116]	; 0x74
    
    while (__HAL_RCC_GET_SYSCLK_SOURCE() != (RCC_ClkInitStruct->SYSCLKSource << RCC_CFGR_SWS_Pos))
 8002110:	e00a      	b.n	8002128 <HAL_RCC_ClockConfig+0x220>
    {
      if ((HAL_GetTick() - tickstart) > CLOCKSWITCH_TIMEOUT_VALUE)
 8002112:	f7fe fd81 	bl	8000c18 <HAL_GetTick>
 8002116:	4602      	mov	r2, r0
 8002118:	6f7b      	ldr	r3, [r7, #116]	; 0x74
 800211a:	1ad3      	subs	r3, r2, r3
 800211c:	f241 3288 	movw	r2, #5000	; 0x1388
 8002120:	4293      	cmp	r3, r2
 8002122:	d901      	bls.n	8002128 <HAL_RCC_ClockConfig+0x220>
      {
        return HAL_TIMEOUT;
 8002124:	2303      	movs	r3, #3
 8002126:	e060      	b.n	80021ea <HAL_RCC_ClockConfig+0x2e2>
    while (__HAL_RCC_GET_SYSCLK_SOURCE() != (RCC_ClkInitStruct->SYSCLKSource << RCC_CFGR_SWS_Pos))
 8002128:	4b11      	ldr	r3, [pc, #68]	; (8002170 <HAL_RCC_ClockConfig+0x268>)
 800212a:	685b      	ldr	r3, [r3, #4]
 800212c:	f003 020c 	and.w	r2, r3, #12
 8002130:	687b      	ldr	r3, [r7, #4]
 8002132:	685b      	ldr	r3, [r3, #4]
 8002134:	009b      	lsls	r3, r3, #2
 8002136:	429a      	cmp	r2, r3
 8002138:	d1eb      	bne.n	8002112 <HAL_RCC_ClockConfig+0x20a>
      }
    }
  }
  /* Decreasing the number of wait states because of lower CPU frequency */
  if(FLatency < __HAL_FLASH_GET_LATENCY())
 800213a:	4b0c      	ldr	r3, [pc, #48]	; (800216c <HAL_RCC_ClockConfig+0x264>)
 800213c:	681b      	ldr	r3, [r3, #0]
 800213e:	f003 0307 	and.w	r3, r3, #7
 8002142:	683a      	ldr	r2, [r7, #0]
 8002144:	429a      	cmp	r2, r3
 8002146:	d215      	bcs.n	8002174 <HAL_RCC_ClockConfig+0x26c>
  {    
    /* Program the new number of wait states to the LATENCY bits in the FLASH_ACR register */
    __HAL_FLASH_SET_LATENCY(FLatency);
 8002148:	4b08      	ldr	r3, [pc, #32]	; (800216c <HAL_RCC_ClockConfig+0x264>)
 800214a:	681b      	ldr	r3, [r3, #0]
 800214c:	f023 0207 	bic.w	r2, r3, #7
 8002150:	4906      	ldr	r1, [pc, #24]	; (800216c <HAL_RCC_ClockConfig+0x264>)
 8002152:	683b      	ldr	r3, [r7, #0]
 8002154:	4313      	orrs	r3, r2
 8002156:	600b      	str	r3, [r1, #0]
    
    /* Check that the new number of wait states is taken into account to access the Flash
    memory by reading the FLASH_ACR register */
    if(__HAL_FLASH_GET_LATENCY() != FLatency)
 8002158:	4b04      	ldr	r3, [pc, #16]	; (800216c <HAL_RCC_ClockConfig+0x264>)
 800215a:	681b      	ldr	r3, [r3, #0]
 800215c:	f003 0307 	and.w	r3, r3, #7
 8002160:	683a      	ldr	r2, [r7, #0]
 8002162:	429a      	cmp	r2, r3
 8002164:	d006      	beq.n	8002174 <HAL_RCC_ClockConfig+0x26c>
    {
      return HAL_ERROR;
 8002166:	2301      	movs	r3, #1
 8002168:	e03f      	b.n	80021ea <HAL_RCC_ClockConfig+0x2e2>
 800216a:	bf00      	nop
 800216c:	40022000 	.word	0x40022000
 8002170:	40021000 	.word	0x40021000
    }
  }    

  /*-------------------------- PCLK1 Configuration ---------------------------*/ 
  if(((RCC_ClkInitStruct->ClockType) & RCC_CLOCKTYPE_PCLK1) == RCC_CLOCKTYPE_PCLK1)
 8002174:	687b      	ldr	r3, [r7, #4]
 8002176:	681b      	ldr	r3, [r3, #0]
 8002178:	f003 0304 	and.w	r3, r3, #4
 800217c:	2b00      	cmp	r3, #0
 800217e:	d008      	beq.n	8002192 <HAL_RCC_ClockConfig+0x28a>
  {
    assert_param(IS_RCC_PCLK(RCC_ClkInitStruct->APB1CLKDivider));
    MODIFY_REG(RCC->CFGR, RCC_CFGR_PPRE1, RCC_ClkInitStruct->APB1CLKDivider);
 8002180:	4b1c      	ldr	r3, [pc, #112]	; (80021f4 <HAL_RCC_ClockConfig+0x2ec>)
 8002182:	685b      	ldr	r3, [r3, #4]
 8002184:	f423 62e0 	bic.w	r2, r3, #1792	; 0x700
 8002188:	687b      	ldr	r3, [r7, #4]
 800218a:	68db      	ldr	r3, [r3, #12]
 800218c:	4919      	ldr	r1, [pc, #100]	; (80021f4 <HAL_RCC_ClockConfig+0x2ec>)
 800218e:	4313      	orrs	r3, r2
 8002190:	604b      	str	r3, [r1, #4]
  }
  
  /*-------------------------- PCLK2 Configuration ---------------------------*/ 
  if(((RCC_ClkInitStruct->ClockType) & RCC_CLOCKTYPE_PCLK2) == RCC_CLOCKTYPE_PCLK2)
 8002192:	687b      	ldr	r3, [r7, #4]
 8002194:	681b      	ldr	r3, [r3, #0]
 8002196:	f003 0308 	and.w	r3, r3, #8
 800219a:	2b00      	cmp	r3, #0
 800219c:	d009      	beq.n	80021b2 <HAL_RCC_ClockConfig+0x2aa>
  {
    assert_param(IS_RCC_PCLK(RCC_ClkInitStruct->APB2CLKDivider));
    MODIFY_REG(RCC->CFGR, RCC_CFGR_PPRE2, ((RCC_ClkInitStruct->APB2CLKDivider) << 3U));
 800219e:	4b15      	ldr	r3, [pc, #84]	; (80021f4 <HAL_RCC_ClockConfig+0x2ec>)
 80021a0:	685b      	ldr	r3, [r3, #4]
 80021a2:	f423 5260 	bic.w	r2, r3, #14336	; 0x3800
 80021a6:	687b      	ldr	r3, [r7, #4]
 80021a8:	691b      	ldr	r3, [r3, #16]
 80021aa:	00db      	lsls	r3, r3, #3
 80021ac:	4911      	ldr	r1, [pc, #68]	; (80021f4 <HAL_RCC_ClockConfig+0x2ec>)
 80021ae:	4313      	orrs	r3, r2
 80021b0:	604b      	str	r3, [r1, #4]
  }
 
  /* Update the SystemCoreClock global variable */
  SystemCoreClock = HAL_RCC_GetSysClockFreq() >> AHBPrescTable[(RCC->CFGR & RCC_CFGR_HPRE)>> RCC_CFGR_HPRE_BITNUMBER];
 80021b2:	f000 f825 	bl	8002200 <HAL_RCC_GetSysClockFreq>
 80021b6:	4601      	mov	r1, r0
 80021b8:	4b0e      	ldr	r3, [pc, #56]	; (80021f4 <HAL_RCC_ClockConfig+0x2ec>)
 80021ba:	685b      	ldr	r3, [r3, #4]
 80021bc:	f003 02f0 	and.w	r2, r3, #240	; 0xf0
 80021c0:	23f0      	movs	r3, #240	; 0xf0
 80021c2:	613b      	str	r3, [r7, #16]
   __ASM volatile ("rbit %0, %1" : "=r" (result) : "r" (value) );
 80021c4:	693b      	ldr	r3, [r7, #16]
 80021c6:	fa93 f3a3 	rbit	r3, r3
 80021ca:	60fb      	str	r3, [r7, #12]
  return(result);
 80021cc:	68fb      	ldr	r3, [r7, #12]
 80021ce:	fab3 f383 	clz	r3, r3
 80021d2:	fa22 f303 	lsr.w	r3, r2, r3
 80021d6:	4a08      	ldr	r2, [pc, #32]	; (80021f8 <HAL_RCC_ClockConfig+0x2f0>)
 80021d8:	5cd3      	ldrb	r3, [r2, r3]
 80021da:	fa21 f303 	lsr.w	r3, r1, r3
 80021de:	4a07      	ldr	r2, [pc, #28]	; (80021fc <HAL_RCC_ClockConfig+0x2f4>)
 80021e0:	6013      	str	r3, [r2, #0]

  /* Configure the source of time base considering new system clocks settings*/
  HAL_InitTick (TICK_INT_PRIORITY);
 80021e2:	2000      	movs	r0, #0
 80021e4:	f7fe fcd4 	bl	8000b90 <HAL_InitTick>
  
  return HAL_OK;
 80021e8:	2300      	movs	r3, #0
}
 80021ea:	4618      	mov	r0, r3
 80021ec:	3778      	adds	r7, #120	; 0x78
 80021ee:	46bd      	mov	sp, r7
 80021f0:	bd80      	pop	{r7, pc}
 80021f2:	bf00      	nop
 80021f4:	40021000 	.word	0x40021000
 80021f8:	08006cfc 	.word	0x08006cfc
 80021fc:	20000008 	.word	0x20000008

08002200 <HAL_RCC_GetSysClockFreq>:
  *         right SYSCLK value. Otherwise, any configuration based on this function will be incorrect.
  *         
  * @retval SYSCLK frequency
  */
uint32_t HAL_RCC_GetSysClockFreq(void)
{
 8002200:	b480      	push	{r7}
 8002202:	b08b      	sub	sp, #44	; 0x2c
 8002204:	af00      	add	r7, sp, #0
  uint32_t tmpreg = 0U, prediv = 0U, pllclk = 0U, pllmul = 0U;
 8002206:	2300      	movs	r3, #0
 8002208:	61fb      	str	r3, [r7, #28]
 800220a:	2300      	movs	r3, #0
 800220c:	61bb      	str	r3, [r7, #24]
 800220e:	2300      	movs	r3, #0
 8002210:	627b      	str	r3, [r7, #36]	; 0x24
 8002212:	2300      	movs	r3, #0
 8002214:	617b      	str	r3, [r7, #20]
  uint32_t sysclockfreq = 0U;
 8002216:	2300      	movs	r3, #0
 8002218:	623b      	str	r3, [r7, #32]
  
  tmpreg = RCC->CFGR;
 800221a:	4b29      	ldr	r3, [pc, #164]	; (80022c0 <HAL_RCC_GetSysClockFreq+0xc0>)
 800221c:	685b      	ldr	r3, [r3, #4]
 800221e:	61fb      	str	r3, [r7, #28]
  
  /* Get SYSCLK source -------------------------------------------------------*/
  switch (tmpreg & RCC_CFGR_SWS)
 8002220:	69fb      	ldr	r3, [r7, #28]
 8002222:	f003 030c 	and.w	r3, r3, #12
 8002226:	2b04      	cmp	r3, #4
 8002228:	d002      	beq.n	8002230 <HAL_RCC_GetSysClockFreq+0x30>
 800222a:	2b08      	cmp	r3, #8
 800222c:	d003      	beq.n	8002236 <HAL_RCC_GetSysClockFreq+0x36>
 800222e:	e03c      	b.n	80022aa <HAL_RCC_GetSysClockFreq+0xaa>
  {
    case RCC_SYSCLKSOURCE_STATUS_HSE:  /* HSE used as system clock */
    {
      sysclockfreq = HSE_VALUE;
 8002230:	4b24      	ldr	r3, [pc, #144]	; (80022c4 <HAL_RCC_GetSysClockFreq+0xc4>)
 8002232:	623b      	str	r3, [r7, #32]
      break;
 8002234:	e03c      	b.n	80022b0 <HAL_RCC_GetSysClockFreq+0xb0>
    }
    case RCC_SYSCLKSOURCE_STATUS_PLLCLK:  /* PLL used as system clock */
    {
      pllmul = aPLLMULFactorTable[(uint32_t)(tmpreg & RCC_CFGR_PLLMUL) >> POSITION_VAL(RCC_CFGR_PLLMUL)];
 8002236:	69fb      	ldr	r3, [r7, #28]
 8002238:	f403 1270 	and.w	r2, r3, #3932160	; 0x3c0000
 800223c:	f44f 1370 	mov.w	r3, #3932160	; 0x3c0000
 8002240:	60bb      	str	r3, [r7, #8]
   __ASM volatile ("rbit %0, %1" : "=r" (result) : "r" (value) );
 8002242:	68bb      	ldr	r3, [r7, #8]
 8002244:	fa93 f3a3 	rbit	r3, r3
 8002248:	607b      	str	r3, [r7, #4]
  return(result);
 800224a:	687b      	ldr	r3, [r7, #4]
 800224c:	fab3 f383 	clz	r3, r3
 8002250:	fa22 f303 	lsr.w	r3, r2, r3
 8002254:	4a1c      	ldr	r2, [pc, #112]	; (80022c8 <HAL_RCC_GetSysClockFreq+0xc8>)
 8002256:	5cd3      	ldrb	r3, [r2, r3]
 8002258:	617b      	str	r3, [r7, #20]
      prediv = aPredivFactorTable[(uint32_t)(RCC->CFGR2 & RCC_CFGR2_PREDIV) >> POSITION_VAL(RCC_CFGR2_PREDIV)];
 800225a:	4b19      	ldr	r3, [pc, #100]	; (80022c0 <HAL_RCC_GetSysClockFreq+0xc0>)
 800225c:	6adb      	ldr	r3, [r3, #44]	; 0x2c
 800225e:	f003 020f 	and.w	r2, r3, #15
 8002262:	230f      	movs	r3, #15
 8002264:	613b      	str	r3, [r7, #16]
   __ASM volatile ("rbit %0, %1" : "=r" (result) : "r" (value) );
 8002266:	693b      	ldr	r3, [r7, #16]
 8002268:	fa93 f3a3 	rbit	r3, r3
 800226c:	60fb      	str	r3, [r7, #12]
  return(result);
 800226e:	68fb      	ldr	r3, [r7, #12]
 8002270:	fab3 f383 	clz	r3, r3
 8002274:	fa22 f303 	lsr.w	r3, r2, r3
 8002278:	4a14      	ldr	r2, [pc, #80]	; (80022cc <HAL_RCC_GetSysClockFreq+0xcc>)
 800227a:	5cd3      	ldrb	r3, [r2, r3]
 800227c:	61bb      	str	r3, [r7, #24]
#if defined(RCC_CFGR_PLLSRC_HSI_DIV2)
      if ((tmpreg & RCC_CFGR_PLLSRC) != RCC_PLLSOURCE_HSI)
 800227e:	69fb      	ldr	r3, [r7, #28]
 8002280:	f403 3380 	and.w	r3, r3, #65536	; 0x10000
 8002284:	2b00      	cmp	r3, #0
 8002286:	d008      	beq.n	800229a <HAL_RCC_GetSysClockFreq+0x9a>
      {
        /* HSE used as PLL clock source : PLLCLK = HSE/PREDIV * PLLMUL */
        pllclk = (HSE_VALUE / prediv) * pllmul;
 8002288:	4a0e      	ldr	r2, [pc, #56]	; (80022c4 <HAL_RCC_GetSysClockFreq+0xc4>)
 800228a:	69bb      	ldr	r3, [r7, #24]
 800228c:	fbb2 f2f3 	udiv	r2, r2, r3
 8002290:	697b      	ldr	r3, [r7, #20]
 8002292:	fb02 f303 	mul.w	r3, r2, r3
 8002296:	627b      	str	r3, [r7, #36]	; 0x24
 8002298:	e004      	b.n	80022a4 <HAL_RCC_GetSysClockFreq+0xa4>
      }
      else
      {
        /* HSI used as PLL clock source : PLLCLK = HSI/2 * PLLMUL */
        pllclk = (HSI_VALUE >> 1U) * pllmul;
 800229a:	697b      	ldr	r3, [r7, #20]
 800229c:	4a0c      	ldr	r2, [pc, #48]	; (80022d0 <HAL_RCC_GetSysClockFreq+0xd0>)
 800229e:	fb02 f303 	mul.w	r3, r2, r3
 80022a2:	627b      	str	r3, [r7, #36]	; 0x24
      {
        /* HSI used as PLL clock source : PLLCLK = HSI/PREDIV * PLLMUL */
        pllclk = (HSI_VALUE / prediv) * pllmul;
      }
#endif /* RCC_CFGR_PLLSRC_HSI_DIV2 */
      sysclockfreq = pllclk;
 80022a4:	6a7b      	ldr	r3, [r7, #36]	; 0x24
 80022a6:	623b      	str	r3, [r7, #32]
      break;
 80022a8:	e002      	b.n	80022b0 <HAL_RCC_GetSysClockFreq+0xb0>
    }
    case RCC_SYSCLKSOURCE_STATUS_HSI:  /* HSI used as system clock source */
    default: /* HSI used as system clock */
    {
      sysclockfreq = HSI_VALUE;
 80022aa:	4b06      	ldr	r3, [pc, #24]	; (80022c4 <HAL_RCC_GetSysClockFreq+0xc4>)
 80022ac:	623b      	str	r3, [r7, #32]
      break;
 80022ae:	bf00      	nop
    }
  }
  return sysclockfreq;
 80022b0:	6a3b      	ldr	r3, [r7, #32]
}
 80022b2:	4618      	mov	r0, r3
 80022b4:	372c      	adds	r7, #44	; 0x2c
 80022b6:	46bd      	mov	sp, r7
 80022b8:	f85d 7b04 	ldr.w	r7, [sp], #4
 80022bc:	4770      	bx	lr
 80022be:	bf00      	nop
 80022c0:	40021000 	.word	0x40021000
 80022c4:	007a1200 	.word	0x007a1200
 80022c8:	08006cdc 	.word	0x08006cdc
 80022cc:	08006cec 	.word	0x08006cec
 80022d0:	003d0900 	.word	0x003d0900

080022d4 <HAL_RCC_GetHCLKFreq>:
  * @note   The SystemCoreClock CMSIS variable is used to store System Clock Frequency 
  *         and updated within this function
  * @retval HCLK frequency
  */
uint32_t HAL_RCC_GetHCLKFreq(void)
{
 80022d4:	b480      	push	{r7}
 80022d6:	af00      	add	r7, sp, #0
  return SystemCoreClock;
 80022d8:	4b03      	ldr	r3, [pc, #12]	; (80022e8 <HAL_RCC_GetHCLKFreq+0x14>)
 80022da:	681b      	ldr	r3, [r3, #0]
}
 80022dc:	4618      	mov	r0, r3
 80022de:	46bd      	mov	sp, r7
 80022e0:	f85d 7b04 	ldr.w	r7, [sp], #4
 80022e4:	4770      	bx	lr
 80022e6:	bf00      	nop
 80022e8:	20000008 	.word	0x20000008

080022ec <HAL_RCC_GetPCLK1Freq>:
  * @note   Each time PCLK1 changes, this function must be called to update the
  *         right PCLK1 value. Otherwise, any configuration based on this function will be incorrect.
  * @retval PCLK1 frequency
  */
uint32_t HAL_RCC_GetPCLK1Freq(void)
{
 80022ec:	b580      	push	{r7, lr}
 80022ee:	b082      	sub	sp, #8
 80022f0:	af00      	add	r7, sp, #0
  /* Get HCLK source and Compute PCLK1 frequency ---------------------------*/
  return (HAL_RCC_GetHCLKFreq() >> APBPrescTable[(RCC->CFGR & RCC_CFGR_PPRE1) >> RCC_CFGR_PPRE1_BITNUMBER]);
 80022f2:	f7ff ffef 	bl	80022d4 <HAL_RCC_GetHCLKFreq>
 80022f6:	4601      	mov	r1, r0
 80022f8:	4b0b      	ldr	r3, [pc, #44]	; (8002328 <HAL_RCC_GetPCLK1Freq+0x3c>)
 80022fa:	685b      	ldr	r3, [r3, #4]
 80022fc:	f403 62e0 	and.w	r2, r3, #1792	; 0x700
 8002300:	f44f 63e0 	mov.w	r3, #1792	; 0x700
 8002304:	607b      	str	r3, [r7, #4]
   __ASM volatile ("rbit %0, %1" : "=r" (result) : "r" (value) );
 8002306:	687b      	ldr	r3, [r7, #4]
 8002308:	fa93 f3a3 	rbit	r3, r3
 800230c:	603b      	str	r3, [r7, #0]
  return(result);
 800230e:	683b      	ldr	r3, [r7, #0]
 8002310:	fab3 f383 	clz	r3, r3
 8002314:	fa22 f303 	lsr.w	r3, r2, r3
 8002318:	4a04      	ldr	r2, [pc, #16]	; (800232c <HAL_RCC_GetPCLK1Freq+0x40>)
 800231a:	5cd3      	ldrb	r3, [r2, r3]
 800231c:	fa21 f303 	lsr.w	r3, r1, r3
}    
 8002320:	4618      	mov	r0, r3
 8002322:	3708      	adds	r7, #8
 8002324:	46bd      	mov	sp, r7
 8002326:	bd80      	pop	{r7, pc}
 8002328:	40021000 	.word	0x40021000
 800232c:	08006d0c 	.word	0x08006d0c

08002330 <HAL_RCC_GetPCLK2Freq>:
  * @note   Each time PCLK2 changes, this function must be called to update the
  *         right PCLK2 value. Otherwise, any configuration based on this function will be incorrect.
  * @retval PCLK2 frequency
  */
uint32_t HAL_RCC_GetPCLK2Freq(void)
{
 8002330:	b580      	push	{r7, lr}
 8002332:	b082      	sub	sp, #8
 8002334:	af00      	add	r7, sp, #0
  /* Get HCLK source and Compute PCLK2 frequency ---------------------------*/
  return (HAL_RCC_GetHCLKFreq()>> APBPrescTable[(RCC->CFGR & RCC_CFGR_PPRE2) >> RCC_CFGR_PPRE2_BITNUMBER]);
 8002336:	f7ff ffcd 	bl	80022d4 <HAL_RCC_GetHCLKFreq>
 800233a:	4601      	mov	r1, r0
 800233c:	4b0b      	ldr	r3, [pc, #44]	; (800236c <HAL_RCC_GetPCLK2Freq+0x3c>)
 800233e:	685b      	ldr	r3, [r3, #4]
 8002340:	f403 5260 	and.w	r2, r3, #14336	; 0x3800
 8002344:	f44f 5360 	mov.w	r3, #14336	; 0x3800
 8002348:	607b      	str	r3, [r7, #4]
   __ASM volatile ("rbit %0, %1" : "=r" (result) : "r" (value) );
 800234a:	687b      	ldr	r3, [r7, #4]
 800234c:	fa93 f3a3 	rbit	r3, r3
 8002350:	603b      	str	r3, [r7, #0]
  return(result);
 8002352:	683b      	ldr	r3, [r7, #0]
 8002354:	fab3 f383 	clz	r3, r3
 8002358:	fa22 f303 	lsr.w	r3, r2, r3
 800235c:	4a04      	ldr	r2, [pc, #16]	; (8002370 <HAL_RCC_GetPCLK2Freq+0x40>)
 800235e:	5cd3      	ldrb	r3, [r2, r3]
 8002360:	fa21 f303 	lsr.w	r3, r1, r3
} 
 8002364:	4618      	mov	r0, r3
 8002366:	3708      	adds	r7, #8
 8002368:	46bd      	mov	sp, r7
 800236a:	bd80      	pop	{r7, pc}
 800236c:	40021000 	.word	0x40021000
 8002370:	08006d0c 	.word	0x08006d0c

08002374 <HAL_RCCEx_PeriphCLKConfig>:
  *         the backup registers) and RCC_BDCR register are set to their reset values.
  *
  * @retval HAL status
  */
HAL_StatusTypeDef HAL_RCCEx_PeriphCLKConfig(RCC_PeriphCLKInitTypeDef  *PeriphClkInit)
{
 8002374:	b580      	push	{r7, lr}
 8002376:	b092      	sub	sp, #72	; 0x48
 8002378:	af00      	add	r7, sp, #0
 800237a:	6078      	str	r0, [r7, #4]
  uint32_t tickstart = 0U;
 800237c:	2300      	movs	r3, #0
 800237e:	643b      	str	r3, [r7, #64]	; 0x40
  uint32_t temp_reg = 0U;
 8002380:	2300      	movs	r3, #0
 8002382:	63fb      	str	r3, [r7, #60]	; 0x3c
    
  /* Check the parameters */
  assert_param(IS_RCC_PERIPHCLOCK(PeriphClkInit->PeriphClockSelection));
  
  /*---------------------------- RTC configuration -------------------------------*/
  if(((PeriphClkInit->PeriphClockSelection) & RCC_PERIPHCLK_RTC) == (RCC_PERIPHCLK_RTC))
 8002384:	687b      	ldr	r3, [r7, #4]
 8002386:	681b      	ldr	r3, [r3, #0]
 8002388:	f403 3380 	and.w	r3, r3, #65536	; 0x10000
 800238c:	2b00      	cmp	r3, #0
 800238e:	f000 80cf 	beq.w	8002530 <HAL_RCCEx_PeriphCLKConfig+0x1bc>
  {
    /* check for RTC Parameters used to output RTCCLK */
    assert_param(IS_RCC_RTCCLKSOURCE(PeriphClkInit->RTCClockSelection));

    FlagStatus       pwrclkchanged = RESET;
 8002392:	2300      	movs	r3, #0
 8002394:	f887 3047 	strb.w	r3, [r7, #71]	; 0x47

    /* As soon as function is called to change RTC clock source, activation of the 
       power domain is done. */
    /* Requires to enable write access to Backup Domain of necessary */
    if(__HAL_RCC_PWR_IS_CLK_DISABLED())
 8002398:	4b86      	ldr	r3, [pc, #536]	; (80025b4 <HAL_RCCEx_PeriphCLKConfig+0x240>)
 800239a:	69db      	ldr	r3, [r3, #28]
 800239c:	f003 5380 	and.w	r3, r3, #268435456	; 0x10000000
 80023a0:	2b00      	cmp	r3, #0
 80023a2:	d10e      	bne.n	80023c2 <HAL_RCCEx_PeriphCLKConfig+0x4e>
    {
      __HAL_RCC_PWR_CLK_ENABLE();
 80023a4:	4b83      	ldr	r3, [pc, #524]	; (80025b4 <HAL_RCCEx_PeriphCLKConfig+0x240>)
 80023a6:	69db      	ldr	r3, [r3, #28]
 80023a8:	4a82      	ldr	r2, [pc, #520]	; (80025b4 <HAL_RCCEx_PeriphCLKConfig+0x240>)
 80023aa:	f043 5380 	orr.w	r3, r3, #268435456	; 0x10000000
 80023ae:	61d3      	str	r3, [r2, #28]
 80023b0:	4b80      	ldr	r3, [pc, #512]	; (80025b4 <HAL_RCCEx_PeriphCLKConfig+0x240>)
 80023b2:	69db      	ldr	r3, [r3, #28]
 80023b4:	f003 5380 	and.w	r3, r3, #268435456	; 0x10000000
 80023b8:	60bb      	str	r3, [r7, #8]
 80023ba:	68bb      	ldr	r3, [r7, #8]
      pwrclkchanged = SET;
 80023bc:	2301      	movs	r3, #1
 80023be:	f887 3047 	strb.w	r3, [r7, #71]	; 0x47
    }
    
    if(HAL_IS_BIT_CLR(PWR->CR, PWR_CR_DBP))
 80023c2:	4b7d      	ldr	r3, [pc, #500]	; (80025b8 <HAL_RCCEx_PeriphCLKConfig+0x244>)
 80023c4:	681b      	ldr	r3, [r3, #0]
 80023c6:	f403 7380 	and.w	r3, r3, #256	; 0x100
 80023ca:	2b00      	cmp	r3, #0
 80023cc:	d118      	bne.n	8002400 <HAL_RCCEx_PeriphCLKConfig+0x8c>
    {
      /* Enable write access to Backup domain */
      SET_BIT(PWR->CR, PWR_CR_DBP);
 80023ce:	4b7a      	ldr	r3, [pc, #488]	; (80025b8 <HAL_RCCEx_PeriphCLKConfig+0x244>)
 80023d0:	681b      	ldr	r3, [r3, #0]
 80023d2:	4a79      	ldr	r2, [pc, #484]	; (80025b8 <HAL_RCCEx_PeriphCLKConfig+0x244>)
 80023d4:	f443 7380 	orr.w	r3, r3, #256	; 0x100
 80023d8:	6013      	str	r3, [r2, #0]
      
      /* Wait for Backup domain Write protection disable */
      tickstart = HAL_GetTick();
 80023da:	f7fe fc1d 	bl	8000c18 <HAL_GetTick>
 80023de:	6438      	str	r0, [r7, #64]	; 0x40
      
      while(HAL_IS_BIT_CLR(PWR->CR, PWR_CR_DBP))
 80023e0:	e008      	b.n	80023f4 <HAL_RCCEx_PeriphCLKConfig+0x80>
      {
          if((HAL_GetTick() - tickstart) > RCC_DBP_TIMEOUT_VALUE)
 80023e2:	f7fe fc19 	bl	8000c18 <HAL_GetTick>
 80023e6:	4602      	mov	r2, r0
 80023e8:	6c3b      	ldr	r3, [r7, #64]	; 0x40
 80023ea:	1ad3      	subs	r3, r2, r3
 80023ec:	2b64      	cmp	r3, #100	; 0x64
 80023ee:	d901      	bls.n	80023f4 <HAL_RCCEx_PeriphCLKConfig+0x80>
        {
          return HAL_TIMEOUT;
 80023f0:	2303      	movs	r3, #3
 80023f2:	e0da      	b.n	80025aa <HAL_RCCEx_PeriphCLKConfig+0x236>
      while(HAL_IS_BIT_CLR(PWR->CR, PWR_CR_DBP))
 80023f4:	4b70      	ldr	r3, [pc, #448]	; (80025b8 <HAL_RCCEx_PeriphCLKConfig+0x244>)
 80023f6:	681b      	ldr	r3, [r3, #0]
 80023f8:	f403 7380 	and.w	r3, r3, #256	; 0x100
 80023fc:	2b00      	cmp	r3, #0
 80023fe:	d0f0      	beq.n	80023e2 <HAL_RCCEx_PeriphCLKConfig+0x6e>
        }
      }
    }
    
    /* Reset the Backup domain only if the RTC Clock source selection is modified from reset value */ 
    temp_reg = (RCC->BDCR & RCC_BDCR_RTCSEL);
 8002400:	4b6c      	ldr	r3, [pc, #432]	; (80025b4 <HAL_RCCEx_PeriphCLKConfig+0x240>)
 8002402:	6a1b      	ldr	r3, [r3, #32]
 8002404:	f403 7340 	and.w	r3, r3, #768	; 0x300
 8002408:	63fb      	str	r3, [r7, #60]	; 0x3c
    if((temp_reg != 0x00000000U) && (temp_reg != (PeriphClkInit->RTCClockSelection & RCC_BDCR_RTCSEL)))
 800240a:	6bfb      	ldr	r3, [r7, #60]	; 0x3c
 800240c:	2b00      	cmp	r3, #0
 800240e:	d07c      	beq.n	800250a <HAL_RCCEx_PeriphCLKConfig+0x196>
 8002410:	687b      	ldr	r3, [r7, #4]
 8002412:	685b      	ldr	r3, [r3, #4]
 8002414:	f403 7340 	and.w	r3, r3, #768	; 0x300
 8002418:	6bfa      	ldr	r2, [r7, #60]	; 0x3c
 800241a:	429a      	cmp	r2, r3
 800241c:	d075      	beq.n	800250a <HAL_RCCEx_PeriphCLKConfig+0x196>
    {
      /* Store the content of BDCR register before the reset of Backup Domain */
      temp_reg = (RCC->BDCR & ~(RCC_BDCR_RTCSEL));
 800241e:	4b65      	ldr	r3, [pc, #404]	; (80025b4 <HAL_RCCEx_PeriphCLKConfig+0x240>)
 8002420:	6a1b      	ldr	r3, [r3, #32]
 8002422:	f423 7340 	bic.w	r3, r3, #768	; 0x300
 8002426:	63fb      	str	r3, [r7, #60]	; 0x3c
 8002428:	f44f 3380 	mov.w	r3, #65536	; 0x10000
 800242c:	633b      	str	r3, [r7, #48]	; 0x30
   __ASM volatile ("rbit %0, %1" : "=r" (result) : "r" (value) );
 800242e:	6b3b      	ldr	r3, [r7, #48]	; 0x30
 8002430:	fa93 f3a3 	rbit	r3, r3
 8002434:	62fb      	str	r3, [r7, #44]	; 0x2c
  return(result);
 8002436:	6afb      	ldr	r3, [r7, #44]	; 0x2c
      /* RTC Clock selection can be changed only if the Backup Domain is reset */
      __HAL_RCC_BACKUPRESET_FORCE();
 8002438:	fab3 f383 	clz	r3, r3
 800243c:	461a      	mov	r2, r3
 800243e:	4b5f      	ldr	r3, [pc, #380]	; (80025bc <HAL_RCCEx_PeriphCLKConfig+0x248>)
 8002440:	4413      	add	r3, r2
 8002442:	009b      	lsls	r3, r3, #2
 8002444:	461a      	mov	r2, r3
 8002446:	2301      	movs	r3, #1
 8002448:	6013      	str	r3, [r2, #0]
 800244a:	f44f 3380 	mov.w	r3, #65536	; 0x10000
 800244e:	63bb      	str	r3, [r7, #56]	; 0x38
   __ASM volatile ("rbit %0, %1" : "=r" (result) : "r" (value) );
 8002450:	6bbb      	ldr	r3, [r7, #56]	; 0x38
 8002452:	fa93 f3a3 	rbit	r3, r3
 8002456:	637b      	str	r3, [r7, #52]	; 0x34
  return(result);
 8002458:	6b7b      	ldr	r3, [r7, #52]	; 0x34
      __HAL_RCC_BACKUPRESET_RELEASE();
 800245a:	fab3 f383 	clz	r3, r3
 800245e:	461a      	mov	r2, r3
 8002460:	4b56      	ldr	r3, [pc, #344]	; (80025bc <HAL_RCCEx_PeriphCLKConfig+0x248>)
 8002462:	4413      	add	r3, r2
 8002464:	009b      	lsls	r3, r3, #2
 8002466:	461a      	mov	r2, r3
 8002468:	2300      	movs	r3, #0
 800246a:	6013      	str	r3, [r2, #0]
      /* Restore the Content of BDCR register */
      RCC->BDCR = temp_reg;
 800246c:	4a51      	ldr	r2, [pc, #324]	; (80025b4 <HAL_RCCEx_PeriphCLKConfig+0x240>)
 800246e:	6bfb      	ldr	r3, [r7, #60]	; 0x3c
 8002470:	6213      	str	r3, [r2, #32]
    
      /* Wait for LSERDY if LSE was enabled */
      if (HAL_IS_BIT_SET(temp_reg, RCC_BDCR_LSEON))
 8002472:	6bfb      	ldr	r3, [r7, #60]	; 0x3c
 8002474:	f003 0301 	and.w	r3, r3, #1
 8002478:	2b00      	cmp	r3, #0
 800247a:	d046      	beq.n	800250a <HAL_RCCEx_PeriphCLKConfig+0x196>
      {
        /* Get Start Tick */
        tickstart = HAL_GetTick();
 800247c:	f7fe fbcc 	bl	8000c18 <HAL_GetTick>
 8002480:	6438      	str	r0, [r7, #64]	; 0x40
        
        /* Wait till LSE is ready */  
        while(__HAL_RCC_GET_FLAG(RCC_FLAG_LSERDY) == RESET)
 8002482:	e00a      	b.n	800249a <HAL_RCCEx_PeriphCLKConfig+0x126>
        {
            if((HAL_GetTick() - tickstart) > RCC_LSE_TIMEOUT_VALUE)
 8002484:	f7fe fbc8 	bl	8000c18 <HAL_GetTick>
 8002488:	4602      	mov	r2, r0
 800248a:	6c3b      	ldr	r3, [r7, #64]	; 0x40
 800248c:	1ad3      	subs	r3, r2, r3
 800248e:	f241 3288 	movw	r2, #5000	; 0x1388
 8002492:	4293      	cmp	r3, r2
 8002494:	d901      	bls.n	800249a <HAL_RCCEx_PeriphCLKConfig+0x126>
          {
            return HAL_TIMEOUT;
 8002496:	2303      	movs	r3, #3
 8002498:	e087      	b.n	80025aa <HAL_RCCEx_PeriphCLKConfig+0x236>
 800249a:	2302      	movs	r3, #2
 800249c:	62bb      	str	r3, [r7, #40]	; 0x28
   __ASM volatile ("rbit %0, %1" : "=r" (result) : "r" (value) );
 800249e:	6abb      	ldr	r3, [r7, #40]	; 0x28
 80024a0:	fa93 f3a3 	rbit	r3, r3
 80024a4:	627b      	str	r3, [r7, #36]	; 0x24
 80024a6:	2302      	movs	r3, #2
 80024a8:	623b      	str	r3, [r7, #32]
 80024aa:	6a3b      	ldr	r3, [r7, #32]
 80024ac:	fa93 f3a3 	rbit	r3, r3
 80024b0:	61fb      	str	r3, [r7, #28]
  return(result);
 80024b2:	69fb      	ldr	r3, [r7, #28]
        while(__HAL_RCC_GET_FLAG(RCC_FLAG_LSERDY) == RESET)
 80024b4:	fab3 f383 	clz	r3, r3
 80024b8:	b2db      	uxtb	r3, r3
 80024ba:	095b      	lsrs	r3, r3, #5
 80024bc:	b2db      	uxtb	r3, r3
 80024be:	f043 0302 	orr.w	r3, r3, #2
 80024c2:	b2db      	uxtb	r3, r3
 80024c4:	2b02      	cmp	r3, #2
 80024c6:	d102      	bne.n	80024ce <HAL_RCCEx_PeriphCLKConfig+0x15a>
 80024c8:	4b3a      	ldr	r3, [pc, #232]	; (80025b4 <HAL_RCCEx_PeriphCLKConfig+0x240>)
 80024ca:	6a1b      	ldr	r3, [r3, #32]
 80024cc:	e007      	b.n	80024de <HAL_RCCEx_PeriphCLKConfig+0x16a>
 80024ce:	2302      	movs	r3, #2
 80024d0:	61bb      	str	r3, [r7, #24]
   __ASM volatile ("rbit %0, %1" : "=r" (result) : "r" (value) );
 80024d2:	69bb      	ldr	r3, [r7, #24]
 80024d4:	fa93 f3a3 	rbit	r3, r3
 80024d8:	617b      	str	r3, [r7, #20]
 80024da:	4b36      	ldr	r3, [pc, #216]	; (80025b4 <HAL_RCCEx_PeriphCLKConfig+0x240>)
 80024dc:	6a5b      	ldr	r3, [r3, #36]	; 0x24
 80024de:	2202      	movs	r2, #2
 80024e0:	613a      	str	r2, [r7, #16]
 80024e2:	693a      	ldr	r2, [r7, #16]
 80024e4:	fa92 f2a2 	rbit	r2, r2
 80024e8:	60fa      	str	r2, [r7, #12]
  return(result);
 80024ea:	68fa      	ldr	r2, [r7, #12]
 80024ec:	fab2 f282 	clz	r2, r2
 80024f0:	b252      	sxtb	r2, r2
 80024f2:	f042 0240 	orr.w	r2, r2, #64	; 0x40
 80024f6:	b252      	sxtb	r2, r2
 80024f8:	b2d2      	uxtb	r2, r2
 80024fa:	f002 021f 	and.w	r2, r2, #31
 80024fe:	2101      	movs	r1, #1
 8002500:	fa01 f202 	lsl.w	r2, r1, r2
 8002504:	4013      	ands	r3, r2
 8002506:	2b00      	cmp	r3, #0
 8002508:	d0bc      	beq.n	8002484 <HAL_RCCEx_PeriphCLKConfig+0x110>
          }      
        }  
      }
    }
    __HAL_RCC_RTC_CONFIG(PeriphClkInit->RTCClockSelection); 
 800250a:	4b2a      	ldr	r3, [pc, #168]	; (80025b4 <HAL_RCCEx_PeriphCLKConfig+0x240>)
 800250c:	6a1b      	ldr	r3, [r3, #32]
 800250e:	f423 7240 	bic.w	r2, r3, #768	; 0x300
 8002512:	687b      	ldr	r3, [r7, #4]
 8002514:	685b      	ldr	r3, [r3, #4]
 8002516:	4927      	ldr	r1, [pc, #156]	; (80025b4 <HAL_RCCEx_PeriphCLKConfig+0x240>)
 8002518:	4313      	orrs	r3, r2
 800251a:	620b      	str	r3, [r1, #32]

    /* Require to disable power clock if necessary */
    if(pwrclkchanged == SET)
 800251c:	f897 3047 	ldrb.w	r3, [r7, #71]	; 0x47
 8002520:	2b01      	cmp	r3, #1
 8002522:	d105      	bne.n	8002530 <HAL_RCCEx_PeriphCLKConfig+0x1bc>
    {
      __HAL_RCC_PWR_CLK_DISABLE();
 8002524:	4b23      	ldr	r3, [pc, #140]	; (80025b4 <HAL_RCCEx_PeriphCLKConfig+0x240>)
 8002526:	69db      	ldr	r3, [r3, #28]
 8002528:	4a22      	ldr	r2, [pc, #136]	; (80025b4 <HAL_RCCEx_PeriphCLKConfig+0x240>)
 800252a:	f023 5380 	bic.w	r3, r3, #268435456	; 0x10000000
 800252e:	61d3      	str	r3, [r2, #28]
    }
  }

  /*------------------------------- USART1 Configuration ------------------------*/
  if(((PeriphClkInit->PeriphClockSelection) & RCC_PERIPHCLK_USART1) == RCC_PERIPHCLK_USART1)
 8002530:	687b      	ldr	r3, [r7, #4]
 8002532:	681b      	ldr	r3, [r3, #0]
 8002534:	f003 0301 	and.w	r3, r3, #1
 8002538:	2b00      	cmp	r3, #0
 800253a:	d008      	beq.n	800254e <HAL_RCCEx_PeriphCLKConfig+0x1da>
  {
    /* Check the parameters */
    assert_param(IS_RCC_USART1CLKSOURCE(PeriphClkInit->Usart1ClockSelection));
    
    /* Configure the USART1 clock source */
    __HAL_RCC_USART1_CONFIG(PeriphClkInit->Usart1ClockSelection);
 800253c:	4b1d      	ldr	r3, [pc, #116]	; (80025b4 <HAL_RCCEx_PeriphCLKConfig+0x240>)
 800253e:	6b1b      	ldr	r3, [r3, #48]	; 0x30
 8002540:	f023 0203 	bic.w	r2, r3, #3
 8002544:	687b      	ldr	r3, [r7, #4]
 8002546:	689b      	ldr	r3, [r3, #8]
 8002548:	491a      	ldr	r1, [pc, #104]	; (80025b4 <HAL_RCCEx_PeriphCLKConfig+0x240>)
 800254a:	4313      	orrs	r3, r2
 800254c:	630b      	str	r3, [r1, #48]	; 0x30
    __HAL_RCC_USART3_CONFIG(PeriphClkInit->Usart3ClockSelection);
  }
#endif /* RCC_CFGR3_USART3SW */

  /*------------------------------ I2C1 Configuration ------------------------*/ 
  if(((PeriphClkInit->PeriphClockSelection) & RCC_PERIPHCLK_I2C1) == RCC_PERIPHCLK_I2C1)
 800254e:	687b      	ldr	r3, [r7, #4]
 8002550:	681b      	ldr	r3, [r3, #0]
 8002552:	f003 0320 	and.w	r3, r3, #32
 8002556:	2b00      	cmp	r3, #0
 8002558:	d008      	beq.n	800256c <HAL_RCCEx_PeriphCLKConfig+0x1f8>
  {
    /* Check the parameters */
    assert_param(IS_RCC_I2C1CLKSOURCE(PeriphClkInit->I2c1ClockSelection));
    
    /* Configure the I2C1 clock source */
    __HAL_RCC_I2C1_CONFIG(PeriphClkInit->I2c1ClockSelection);
 800255a:	4b16      	ldr	r3, [pc, #88]	; (80025b4 <HAL_RCCEx_PeriphCLKConfig+0x240>)
 800255c:	6b1b      	ldr	r3, [r3, #48]	; 0x30
 800255e:	f023 0210 	bic.w	r2, r3, #16
 8002562:	687b      	ldr	r3, [r7, #4]
 8002564:	68db      	ldr	r3, [r3, #12]
 8002566:	4913      	ldr	r1, [pc, #76]	; (80025b4 <HAL_RCCEx_PeriphCLKConfig+0x240>)
 8002568:	4313      	orrs	r3, r2
 800256a:	630b      	str	r3, [r1, #48]	; 0x30
#if defined(STM32F302xE) || defined(STM32F303xE) || defined(STM32F398xx)\
 || defined(STM32F302xC) || defined(STM32F303xC) || defined(STM32F358xx)\
 || defined(STM32F303x8) || defined(STM32F334x8) || defined(STM32F328xx)
      
  /*------------------------------ ADC1 & ADC2 clock Configuration -------------*/ 
  if(((PeriphClkInit->PeriphClockSelection) & RCC_PERIPHCLK_ADC12) == RCC_PERIPHCLK_ADC12)
 800256c:	687b      	ldr	r3, [r7, #4]
 800256e:	681b      	ldr	r3, [r3, #0]
 8002570:	f003 0380 	and.w	r3, r3, #128	; 0x80
 8002574:	2b00      	cmp	r3, #0
 8002576:	d008      	beq.n	800258a <HAL_RCCEx_PeriphCLKConfig+0x216>
  {
    /* Check the parameters */
    assert_param(IS_RCC_ADC12PLLCLK_DIV(PeriphClkInit->Adc12ClockSelection));
    
    /* Configure the ADC12 clock source */
    __HAL_RCC_ADC12_CONFIG(PeriphClkInit->Adc12ClockSelection);
 8002578:	4b0e      	ldr	r3, [pc, #56]	; (80025b4 <HAL_RCCEx_PeriphCLKConfig+0x240>)
 800257a:	6adb      	ldr	r3, [r3, #44]	; 0x2c
 800257c:	f423 72f8 	bic.w	r2, r3, #496	; 0x1f0
 8002580:	687b      	ldr	r3, [r7, #4]
 8002582:	691b      	ldr	r3, [r3, #16]
 8002584:	490b      	ldr	r1, [pc, #44]	; (80025b4 <HAL_RCCEx_PeriphCLKConfig+0x240>)
 8002586:	4313      	orrs	r3, r2
 8002588:	62cb      	str	r3, [r1, #44]	; 0x2c
 || defined(STM32F302xC) || defined(STM32F303xC) || defined(STM32F358xx)\
 || defined(STM32F303x8) || defined(STM32F334x8) || defined(STM32F328xx)\
 || defined(STM32F301x8) || defined(STM32F302x8) || defined(STM32F318xx)

  /*------------------------------ TIM1 clock Configuration ----------------*/ 
  if(((PeriphClkInit->PeriphClockSelection) & RCC_PERIPHCLK_TIM1) == RCC_PERIPHCLK_TIM1)
 800258a:	687b      	ldr	r3, [r7, #4]
 800258c:	681b      	ldr	r3, [r3, #0]
 800258e:	f403 5380 	and.w	r3, r3, #4096	; 0x1000
 8002592:	2b00      	cmp	r3, #0
 8002594:	d008      	beq.n	80025a8 <HAL_RCCEx_PeriphCLKConfig+0x234>
  {
    /* Check the parameters */
    assert_param(IS_RCC_TIM1CLKSOURCE(PeriphClkInit->Tim1ClockSelection));
    
    /* Configure the TIM1 clock source */
    __HAL_RCC_TIM1_CONFIG(PeriphClkInit->Tim1ClockSelection);
 8002596:	4b07      	ldr	r3, [pc, #28]	; (80025b4 <HAL_RCCEx_PeriphCLKConfig+0x240>)
 8002598:	6b1b      	ldr	r3, [r3, #48]	; 0x30
 800259a:	f423 7280 	bic.w	r2, r3, #256	; 0x100
 800259e:	687b      	ldr	r3, [r7, #4]
 80025a0:	695b      	ldr	r3, [r3, #20]
 80025a2:	4904      	ldr	r1, [pc, #16]	; (80025b4 <HAL_RCCEx_PeriphCLKConfig+0x240>)
 80025a4:	4313      	orrs	r3, r2
 80025a6:	630b      	str	r3, [r1, #48]	; 0x30
    __HAL_RCC_TIM20_CONFIG(PeriphClkInit->Tim20ClockSelection);
  }
#endif /* STM32F303xE || STM32F398xx */  

  
  return HAL_OK;
 80025a8:	2300      	movs	r3, #0
}
 80025aa:	4618      	mov	r0, r3
 80025ac:	3748      	adds	r7, #72	; 0x48
 80025ae:	46bd      	mov	sp, r7
 80025b0:	bd80      	pop	{r7, pc}
 80025b2:	bf00      	nop
 80025b4:	40021000 	.word	0x40021000
 80025b8:	40007000 	.word	0x40007000
 80025bc:	10908100 	.word	0x10908100

080025c0 <HAL_UART_Init>:
  *        parameters in the UART_InitTypeDef and initialize the associated handle.
  * @param huart UART handle.
  * @retval HAL status
  */
HAL_StatusTypeDef HAL_UART_Init(UART_HandleTypeDef *huart)
{
 80025c0:	b580      	push	{r7, lr}
 80025c2:	b082      	sub	sp, #8
 80025c4:	af00      	add	r7, sp, #0
 80025c6:	6078      	str	r0, [r7, #4]
  /* Check the UART handle allocation */
  if(huart == NULL)
 80025c8:	687b      	ldr	r3, [r7, #4]
 80025ca:	2b00      	cmp	r3, #0
 80025cc:	d101      	bne.n	80025d2 <HAL_UART_Init+0x12>
  {
    return HAL_ERROR;
 80025ce:	2301      	movs	r3, #1
 80025d0:	e043      	b.n	800265a <HAL_UART_Init+0x9a>
  {
    /* Check the parameters */
    assert_param(IS_UART_INSTANCE(huart->Instance));
  }

  if(huart->gState == HAL_UART_STATE_RESET)
 80025d2:	687b      	ldr	r3, [r7, #4]
 80025d4:	f893 3069 	ldrb.w	r3, [r3, #105]	; 0x69
 80025d8:	b2db      	uxtb	r3, r3
 80025da:	2b00      	cmp	r3, #0
 80025dc:	d106      	bne.n	80025ec <HAL_UART_Init+0x2c>
  {
    /* Allocate lock resource and initialize it */
    huart->Lock = HAL_UNLOCKED;
 80025de:	687b      	ldr	r3, [r7, #4]
 80025e0:	2200      	movs	r2, #0
 80025e2:	f883 2068 	strb.w	r2, [r3, #104]	; 0x68

    /* Init the low level hardware : GPIO, CLOCK */
    HAL_UART_MspInit(huart);
 80025e6:	6878      	ldr	r0, [r7, #4]
 80025e8:	f003 f95c 	bl	80058a4 <HAL_UART_MspInit>
  }

  huart->gState = HAL_UART_STATE_BUSY;
 80025ec:	687b      	ldr	r3, [r7, #4]
 80025ee:	2224      	movs	r2, #36	; 0x24
 80025f0:	f883 2069 	strb.w	r2, [r3, #105]	; 0x69

  /* Disable the Peripheral */
  __HAL_UART_DISABLE(huart);
 80025f4:	687b      	ldr	r3, [r7, #4]
 80025f6:	681b      	ldr	r3, [r3, #0]
 80025f8:	681a      	ldr	r2, [r3, #0]
 80025fa:	687b      	ldr	r3, [r7, #4]
 80025fc:	681b      	ldr	r3, [r3, #0]
 80025fe:	f022 0201 	bic.w	r2, r2, #1
 8002602:	601a      	str	r2, [r3, #0]

  /* Set the UART Communication parameters */
  if (UART_SetConfig(huart) == HAL_ERROR)
 8002604:	6878      	ldr	r0, [r7, #4]
 8002606:	f000 f82d 	bl	8002664 <UART_SetConfig>
 800260a:	4603      	mov	r3, r0
 800260c:	2b01      	cmp	r3, #1
 800260e:	d101      	bne.n	8002614 <HAL_UART_Init+0x54>
  {
    return HAL_ERROR;
 8002610:	2301      	movs	r3, #1
 8002612:	e022      	b.n	800265a <HAL_UART_Init+0x9a>
  }

  if (huart->AdvancedInit.AdvFeatureInit != UART_ADVFEATURE_NO_INIT)
 8002614:	687b      	ldr	r3, [r7, #4]
 8002616:	6a5b      	ldr	r3, [r3, #36]	; 0x24
 8002618:	2b00      	cmp	r3, #0
 800261a:	d002      	beq.n	8002622 <HAL_UART_Init+0x62>
  {
    UART_AdvFeatureConfig(huart);
 800261c:	6878      	ldr	r0, [r7, #4]
 800261e:	f000 f987 	bl	8002930 <UART_AdvFeatureConfig>
  }

  /* In asynchronous mode, the following bits must be kept cleared:
  - LINEN and CLKEN bits in the USART_CR2 register,
  - SCEN, HDSEL and IREN  bits in the USART_CR3 register.*/
  CLEAR_BIT(huart->Instance->CR2, (USART_CR2_LINEN | USART_CR2_CLKEN));
 8002622:	687b      	ldr	r3, [r7, #4]
 8002624:	681b      	ldr	r3, [r3, #0]
 8002626:	685a      	ldr	r2, [r3, #4]
 8002628:	687b      	ldr	r3, [r7, #4]
 800262a:	681b      	ldr	r3, [r3, #0]
 800262c:	f422 4290 	bic.w	r2, r2, #18432	; 0x4800
 8002630:	605a      	str	r2, [r3, #4]
  CLEAR_BIT(huart->Instance->CR3, (USART_CR3_SCEN | USART_CR3_HDSEL | USART_CR3_IREN));
 8002632:	687b      	ldr	r3, [r7, #4]
 8002634:	681b      	ldr	r3, [r3, #0]
 8002636:	689a      	ldr	r2, [r3, #8]
 8002638:	687b      	ldr	r3, [r7, #4]
 800263a:	681b      	ldr	r3, [r3, #0]
 800263c:	f022 022a 	bic.w	r2, r2, #42	; 0x2a
 8002640:	609a      	str	r2, [r3, #8]

  /* Enable the Peripheral */
  __HAL_UART_ENABLE(huart);
 8002642:	687b      	ldr	r3, [r7, #4]
 8002644:	681b      	ldr	r3, [r3, #0]
 8002646:	681a      	ldr	r2, [r3, #0]
 8002648:	687b      	ldr	r3, [r7, #4]
 800264a:	681b      	ldr	r3, [r3, #0]
 800264c:	f042 0201 	orr.w	r2, r2, #1
 8002650:	601a      	str	r2, [r3, #0]

  /* TEACK and/or REACK to check before moving huart->gState and huart->RxState to Ready */
  return (UART_CheckIdleState(huart));
 8002652:	6878      	ldr	r0, [r7, #4]
 8002654:	f000 fa0e 	bl	8002a74 <UART_CheckIdleState>
 8002658:	4603      	mov	r3, r0
}
 800265a:	4618      	mov	r0, r3
 800265c:	3708      	adds	r7, #8
 800265e:	46bd      	mov	sp, r7
 8002660:	bd80      	pop	{r7, pc}
	...

08002664 <UART_SetConfig>:
  * @brief Configure the UART peripheral.
  * @param huart UART handle.
  * @retval HAL status
  */
HAL_StatusTypeDef UART_SetConfig(UART_HandleTypeDef *huart)
{
 8002664:	b580      	push	{r7, lr}
 8002666:	b086      	sub	sp, #24
 8002668:	af00      	add	r7, sp, #0
 800266a:	6078      	str	r0, [r7, #4]
  uint32_t tmpreg                     = 0x00000000U;
 800266c:	2300      	movs	r3, #0
 800266e:	60fb      	str	r3, [r7, #12]
  UART_ClockSourceTypeDef clocksource = UART_CLOCKSOURCE_UNDEFINED;
 8002670:	2310      	movs	r3, #16
 8002672:	75fb      	strb	r3, [r7, #23]
  uint16_t brrtemp                    = 0x0000U;
 8002674:	2300      	movs	r3, #0
 8002676:	817b      	strh	r3, [r7, #10]
  uint16_t usartdiv                   = 0x0000U;
 8002678:	2300      	movs	r3, #0
 800267a:	82bb      	strh	r3, [r7, #20]
  HAL_StatusTypeDef ret               = HAL_OK;
 800267c:	2300      	movs	r3, #0
 800267e:	74fb      	strb	r3, [r7, #19]
   *  the UART Word Length, Parity, Mode and oversampling:
   *  set the M bits according to huart->Init.WordLength value
   *  set PCE and PS bits according to huart->Init.Parity value
   *  set TE and RE bits according to huart->Init.Mode value
   *  set OVER8 bit according to huart->Init.OverSampling value */
  tmpreg = (uint32_t)huart->Init.WordLength | huart->Init.Parity | huart->Init.Mode | huart->Init.OverSampling ;
 8002680:	687b      	ldr	r3, [r7, #4]
 8002682:	689a      	ldr	r2, [r3, #8]
 8002684:	687b      	ldr	r3, [r7, #4]
 8002686:	691b      	ldr	r3, [r3, #16]
 8002688:	431a      	orrs	r2, r3
 800268a:	687b      	ldr	r3, [r7, #4]
 800268c:	695b      	ldr	r3, [r3, #20]
 800268e:	431a      	orrs	r2, r3
 8002690:	687b      	ldr	r3, [r7, #4]
 8002692:	69db      	ldr	r3, [r3, #28]
 8002694:	4313      	orrs	r3, r2
 8002696:	60fb      	str	r3, [r7, #12]
  MODIFY_REG(huart->Instance->CR1, UART_CR1_FIELDS, tmpreg);
 8002698:	687b      	ldr	r3, [r7, #4]
 800269a:	681b      	ldr	r3, [r3, #0]
 800269c:	681a      	ldr	r2, [r3, #0]
 800269e:	4b9f      	ldr	r3, [pc, #636]	; (800291c <UART_SetConfig+0x2b8>)
 80026a0:	4013      	ands	r3, r2
 80026a2:	687a      	ldr	r2, [r7, #4]
 80026a4:	6812      	ldr	r2, [r2, #0]
 80026a6:	68f9      	ldr	r1, [r7, #12]
 80026a8:	430b      	orrs	r3, r1
 80026aa:	6013      	str	r3, [r2, #0]

  /*-------------------------- USART CR2 Configuration -----------------------*/
  /* Configure the UART Stop Bits: Set STOP[13:12] bits according
   * to huart->Init.StopBits value */
  MODIFY_REG(huart->Instance->CR2, USART_CR2_STOP, huart->Init.StopBits);
 80026ac:	687b      	ldr	r3, [r7, #4]
 80026ae:	681b      	ldr	r3, [r3, #0]
 80026b0:	685b      	ldr	r3, [r3, #4]
 80026b2:	f423 5140 	bic.w	r1, r3, #12288	; 0x3000
 80026b6:	687b      	ldr	r3, [r7, #4]
 80026b8:	68da      	ldr	r2, [r3, #12]
 80026ba:	687b      	ldr	r3, [r7, #4]
 80026bc:	681b      	ldr	r3, [r3, #0]
 80026be:	430a      	orrs	r2, r1
 80026c0:	605a      	str	r2, [r3, #4]
  /* Configure
   * - UART HardWare Flow Control: set CTSE and RTSE bits according
   *   to huart->Init.HwFlowCtl value
   * - one-bit sampling method versus three samples' majority rule according
   *   to huart->Init.OneBitSampling */
  tmpreg = (uint32_t)huart->Init.HwFlowCtl | huart->Init.OneBitSampling ;
 80026c2:	687b      	ldr	r3, [r7, #4]
 80026c4:	699a      	ldr	r2, [r3, #24]
 80026c6:	687b      	ldr	r3, [r7, #4]
 80026c8:	6a1b      	ldr	r3, [r3, #32]
 80026ca:	4313      	orrs	r3, r2
 80026cc:	60fb      	str	r3, [r7, #12]
  MODIFY_REG(huart->Instance->CR3, (USART_CR3_RTSE | USART_CR3_CTSE | USART_CR3_ONEBIT), tmpreg);
 80026ce:	687b      	ldr	r3, [r7, #4]
 80026d0:	681b      	ldr	r3, [r3, #0]
 80026d2:	689b      	ldr	r3, [r3, #8]
 80026d4:	f423 6130 	bic.w	r1, r3, #2816	; 0xb00
 80026d8:	687b      	ldr	r3, [r7, #4]
 80026da:	681b      	ldr	r3, [r3, #0]
 80026dc:	68fa      	ldr	r2, [r7, #12]
 80026de:	430a      	orrs	r2, r1
 80026e0:	609a      	str	r2, [r3, #8]

  /*-------------------------- USART BRR Configuration -----------------------*/
  UART_GETCLOCKSOURCE(huart, clocksource);
 80026e2:	687b      	ldr	r3, [r7, #4]
 80026e4:	681b      	ldr	r3, [r3, #0]
 80026e6:	4a8e      	ldr	r2, [pc, #568]	; (8002920 <UART_SetConfig+0x2bc>)
 80026e8:	4293      	cmp	r3, r2
 80026ea:	d121      	bne.n	8002730 <UART_SetConfig+0xcc>
 80026ec:	4b8d      	ldr	r3, [pc, #564]	; (8002924 <UART_SetConfig+0x2c0>)
 80026ee:	6b1b      	ldr	r3, [r3, #48]	; 0x30
 80026f0:	f003 0303 	and.w	r3, r3, #3
 80026f4:	2b03      	cmp	r3, #3
 80026f6:	d817      	bhi.n	8002728 <UART_SetConfig+0xc4>
 80026f8:	a201      	add	r2, pc, #4	; (adr r2, 8002700 <UART_SetConfig+0x9c>)
 80026fa:	f852 f023 	ldr.w	pc, [r2, r3, lsl #2]
 80026fe:	bf00      	nop
 8002700:	08002711 	.word	0x08002711
 8002704:	0800271d 	.word	0x0800271d
 8002708:	08002723 	.word	0x08002723
 800270c:	08002717 	.word	0x08002717
 8002710:	2300      	movs	r3, #0
 8002712:	75fb      	strb	r3, [r7, #23]
 8002714:	e01e      	b.n	8002754 <UART_SetConfig+0xf0>
 8002716:	2302      	movs	r3, #2
 8002718:	75fb      	strb	r3, [r7, #23]
 800271a:	e01b      	b.n	8002754 <UART_SetConfig+0xf0>
 800271c:	2304      	movs	r3, #4
 800271e:	75fb      	strb	r3, [r7, #23]
 8002720:	e018      	b.n	8002754 <UART_SetConfig+0xf0>
 8002722:	2308      	movs	r3, #8
 8002724:	75fb      	strb	r3, [r7, #23]
 8002726:	e015      	b.n	8002754 <UART_SetConfig+0xf0>
 8002728:	2310      	movs	r3, #16
 800272a:	75fb      	strb	r3, [r7, #23]
 800272c:	bf00      	nop
 800272e:	e011      	b.n	8002754 <UART_SetConfig+0xf0>
 8002730:	687b      	ldr	r3, [r7, #4]
 8002732:	681b      	ldr	r3, [r3, #0]
 8002734:	4a7c      	ldr	r2, [pc, #496]	; (8002928 <UART_SetConfig+0x2c4>)
 8002736:	4293      	cmp	r3, r2
 8002738:	d102      	bne.n	8002740 <UART_SetConfig+0xdc>
 800273a:	2300      	movs	r3, #0
 800273c:	75fb      	strb	r3, [r7, #23]
 800273e:	e009      	b.n	8002754 <UART_SetConfig+0xf0>
 8002740:	687b      	ldr	r3, [r7, #4]
 8002742:	681b      	ldr	r3, [r3, #0]
 8002744:	4a79      	ldr	r2, [pc, #484]	; (800292c <UART_SetConfig+0x2c8>)
 8002746:	4293      	cmp	r3, r2
 8002748:	d102      	bne.n	8002750 <UART_SetConfig+0xec>
 800274a:	2300      	movs	r3, #0
 800274c:	75fb      	strb	r3, [r7, #23]
 800274e:	e001      	b.n	8002754 <UART_SetConfig+0xf0>
 8002750:	2310      	movs	r3, #16
 8002752:	75fb      	strb	r3, [r7, #23]

  /* Check UART Over Sampling to set Baud Rate Register */
  if (huart->Init.OverSampling == UART_OVERSAMPLING_8)
 8002754:	687b      	ldr	r3, [r7, #4]
 8002756:	69db      	ldr	r3, [r3, #28]
 8002758:	f5b3 4f00 	cmp.w	r3, #32768	; 0x8000
 800275c:	d16f      	bne.n	800283e <UART_SetConfig+0x1da>
  {
    switch (clocksource)
 800275e:	7dfb      	ldrb	r3, [r7, #23]
 8002760:	2b08      	cmp	r3, #8
 8002762:	d857      	bhi.n	8002814 <UART_SetConfig+0x1b0>
 8002764:	a201      	add	r2, pc, #4	; (adr r2, 800276c <UART_SetConfig+0x108>)
 8002766:	f852 f023 	ldr.w	pc, [r2, r3, lsl #2]
 800276a:	bf00      	nop
 800276c:	08002791 	.word	0x08002791
 8002770:	080027ad 	.word	0x080027ad
 8002774:	080027c9 	.word	0x080027c9
 8002778:	08002815 	.word	0x08002815
 800277c:	080027e3 	.word	0x080027e3
 8002780:	08002815 	.word	0x08002815
 8002784:	08002815 	.word	0x08002815
 8002788:	08002815 	.word	0x08002815
 800278c:	080027ff 	.word	0x080027ff
    {
      case UART_CLOCKSOURCE_PCLK1:
        usartdiv = (uint16_t)(UART_DIV_SAMPLING8(HAL_RCC_GetPCLK1Freq(), huart->Init.BaudRate));
 8002790:	f7ff fdac 	bl	80022ec <HAL_RCC_GetPCLK1Freq>
 8002794:	4603      	mov	r3, r0
 8002796:	005a      	lsls	r2, r3, #1
 8002798:	687b      	ldr	r3, [r7, #4]
 800279a:	685b      	ldr	r3, [r3, #4]
 800279c:	085b      	lsrs	r3, r3, #1
 800279e:	441a      	add	r2, r3
 80027a0:	687b      	ldr	r3, [r7, #4]
 80027a2:	685b      	ldr	r3, [r3, #4]
 80027a4:	fbb2 f3f3 	udiv	r3, r2, r3
 80027a8:	82bb      	strh	r3, [r7, #20]
        break;
 80027aa:	e036      	b.n	800281a <UART_SetConfig+0x1b6>
      case UART_CLOCKSOURCE_PCLK2:
        usartdiv = (uint16_t)(UART_DIV_SAMPLING8(HAL_RCC_GetPCLK2Freq(), huart->Init.BaudRate));
 80027ac:	f7ff fdc0 	bl	8002330 <HAL_RCC_GetPCLK2Freq>
 80027b0:	4603      	mov	r3, r0
 80027b2:	005a      	lsls	r2, r3, #1
 80027b4:	687b      	ldr	r3, [r7, #4]
 80027b6:	685b      	ldr	r3, [r3, #4]
 80027b8:	085b      	lsrs	r3, r3, #1
 80027ba:	441a      	add	r2, r3
 80027bc:	687b      	ldr	r3, [r7, #4]
 80027be:	685b      	ldr	r3, [r3, #4]
 80027c0:	fbb2 f3f3 	udiv	r3, r2, r3
 80027c4:	82bb      	strh	r3, [r7, #20]
        break;
 80027c6:	e028      	b.n	800281a <UART_SetConfig+0x1b6>
      case UART_CLOCKSOURCE_HSI:
        usartdiv = (uint16_t)(UART_DIV_SAMPLING8(HSI_VALUE, huart->Init.BaudRate));
 80027c8:	687b      	ldr	r3, [r7, #4]
 80027ca:	685b      	ldr	r3, [r3, #4]
 80027cc:	085b      	lsrs	r3, r3, #1
 80027ce:	f503 0374 	add.w	r3, r3, #15990784	; 0xf40000
 80027d2:	f503 5310 	add.w	r3, r3, #9216	; 0x2400
 80027d6:	687a      	ldr	r2, [r7, #4]
 80027d8:	6852      	ldr	r2, [r2, #4]
 80027da:	fbb3 f3f2 	udiv	r3, r3, r2
 80027de:	82bb      	strh	r3, [r7, #20]
        break;
 80027e0:	e01b      	b.n	800281a <UART_SetConfig+0x1b6>
      case UART_CLOCKSOURCE_SYSCLK:
        usartdiv = (uint16_t)(UART_DIV_SAMPLING8(HAL_RCC_GetSysClockFreq(), huart->Init.BaudRate));
 80027e2:	f7ff fd0d 	bl	8002200 <HAL_RCC_GetSysClockFreq>
 80027e6:	4603      	mov	r3, r0
 80027e8:	005a      	lsls	r2, r3, #1
 80027ea:	687b      	ldr	r3, [r7, #4]
 80027ec:	685b      	ldr	r3, [r3, #4]
 80027ee:	085b      	lsrs	r3, r3, #1
 80027f0:	441a      	add	r2, r3
 80027f2:	687b      	ldr	r3, [r7, #4]
 80027f4:	685b      	ldr	r3, [r3, #4]
 80027f6:	fbb2 f3f3 	udiv	r3, r2, r3
 80027fa:	82bb      	strh	r3, [r7, #20]
        break;
 80027fc:	e00d      	b.n	800281a <UART_SetConfig+0x1b6>
      case UART_CLOCKSOURCE_LSE:
        usartdiv = (uint16_t)(UART_DIV_SAMPLING8(LSE_VALUE, huart->Init.BaudRate));
 80027fe:	687b      	ldr	r3, [r7, #4]
 8002800:	685b      	ldr	r3, [r3, #4]
 8002802:	085b      	lsrs	r3, r3, #1
 8002804:	f503 3280 	add.w	r2, r3, #65536	; 0x10000
 8002808:	687b      	ldr	r3, [r7, #4]
 800280a:	685b      	ldr	r3, [r3, #4]
 800280c:	fbb2 f3f3 	udiv	r3, r2, r3
 8002810:	82bb      	strh	r3, [r7, #20]
        break;
 8002812:	e002      	b.n	800281a <UART_SetConfig+0x1b6>
      case UART_CLOCKSOURCE_UNDEFINED:
      default:
        ret = HAL_ERROR;
 8002814:	2301      	movs	r3, #1
 8002816:	74fb      	strb	r3, [r7, #19]
        break;
 8002818:	bf00      	nop
    }

    brrtemp = usartdiv & 0xFFF0U;
 800281a:	8abb      	ldrh	r3, [r7, #20]
 800281c:	f023 030f 	bic.w	r3, r3, #15
 8002820:	817b      	strh	r3, [r7, #10]
    brrtemp |= (uint16_t)((usartdiv & (uint16_t)0x000FU) >> 1U);
 8002822:	8abb      	ldrh	r3, [r7, #20]
 8002824:	105b      	asrs	r3, r3, #1
 8002826:	b29b      	uxth	r3, r3
 8002828:	f003 0307 	and.w	r3, r3, #7
 800282c:	b29a      	uxth	r2, r3
 800282e:	897b      	ldrh	r3, [r7, #10]
 8002830:	4313      	orrs	r3, r2
 8002832:	817b      	strh	r3, [r7, #10]
    huart->Instance->BRR = brrtemp;
 8002834:	687b      	ldr	r3, [r7, #4]
 8002836:	681b      	ldr	r3, [r3, #0]
 8002838:	897a      	ldrh	r2, [r7, #10]
 800283a:	60da      	str	r2, [r3, #12]
 800283c:	e069      	b.n	8002912 <UART_SetConfig+0x2ae>
  }
  else
  {
    switch (clocksource)
 800283e:	7dfb      	ldrb	r3, [r7, #23]
 8002840:	2b08      	cmp	r3, #8
 8002842:	d863      	bhi.n	800290c <UART_SetConfig+0x2a8>
 8002844:	a201      	add	r2, pc, #4	; (adr r2, 800284c <UART_SetConfig+0x1e8>)
 8002846:	f852 f023 	ldr.w	pc, [r2, r3, lsl #2]
 800284a:	bf00      	nop
 800284c:	08002871 	.word	0x08002871
 8002850:	08002891 	.word	0x08002891
 8002854:	080028b1 	.word	0x080028b1
 8002858:	0800290d 	.word	0x0800290d
 800285c:	080028d1 	.word	0x080028d1
 8002860:	0800290d 	.word	0x0800290d
 8002864:	0800290d 	.word	0x0800290d
 8002868:	0800290d 	.word	0x0800290d
 800286c:	080028f1 	.word	0x080028f1
    {
      case UART_CLOCKSOURCE_PCLK1:
        huart->Instance->BRR = (uint16_t)(UART_DIV_SAMPLING16(HAL_RCC_GetPCLK1Freq(), huart->Init.BaudRate));
 8002870:	f7ff fd3c 	bl	80022ec <HAL_RCC_GetPCLK1Freq>
 8002874:	4602      	mov	r2, r0
 8002876:	687b      	ldr	r3, [r7, #4]
 8002878:	685b      	ldr	r3, [r3, #4]
 800287a:	085b      	lsrs	r3, r3, #1
 800287c:	441a      	add	r2, r3
 800287e:	687b      	ldr	r3, [r7, #4]
 8002880:	685b      	ldr	r3, [r3, #4]
 8002882:	fbb2 f3f3 	udiv	r3, r2, r3
 8002886:	b29a      	uxth	r2, r3
 8002888:	687b      	ldr	r3, [r7, #4]
 800288a:	681b      	ldr	r3, [r3, #0]
 800288c:	60da      	str	r2, [r3, #12]
        break;
 800288e:	e040      	b.n	8002912 <UART_SetConfig+0x2ae>
      case UART_CLOCKSOURCE_PCLK2:
        huart->Instance->BRR = (uint16_t)(UART_DIV_SAMPLING16(HAL_RCC_GetPCLK2Freq(), huart->Init.BaudRate));
 8002890:	f7ff fd4e 	bl	8002330 <HAL_RCC_GetPCLK2Freq>
 8002894:	4602      	mov	r2, r0
 8002896:	687b      	ldr	r3, [r7, #4]
 8002898:	685b      	ldr	r3, [r3, #4]
 800289a:	085b      	lsrs	r3, r3, #1
 800289c:	441a      	add	r2, r3
 800289e:	687b      	ldr	r3, [r7, #4]
 80028a0:	685b      	ldr	r3, [r3, #4]
 80028a2:	fbb2 f3f3 	udiv	r3, r2, r3
 80028a6:	b29a      	uxth	r2, r3
 80028a8:	687b      	ldr	r3, [r7, #4]
 80028aa:	681b      	ldr	r3, [r3, #0]
 80028ac:	60da      	str	r2, [r3, #12]
        break;
 80028ae:	e030      	b.n	8002912 <UART_SetConfig+0x2ae>
      case UART_CLOCKSOURCE_HSI:
        huart->Instance->BRR = (uint16_t)(UART_DIV_SAMPLING16(HSI_VALUE, huart->Init.BaudRate));
 80028b0:	687b      	ldr	r3, [r7, #4]
 80028b2:	685b      	ldr	r3, [r3, #4]
 80028b4:	085b      	lsrs	r3, r3, #1
 80028b6:	f503 03f4 	add.w	r3, r3, #7995392	; 0x7a0000
 80028ba:	f503 5390 	add.w	r3, r3, #4608	; 0x1200
 80028be:	687a      	ldr	r2, [r7, #4]
 80028c0:	6852      	ldr	r2, [r2, #4]
 80028c2:	fbb3 f3f2 	udiv	r3, r3, r2
 80028c6:	b29a      	uxth	r2, r3
 80028c8:	687b      	ldr	r3, [r7, #4]
 80028ca:	681b      	ldr	r3, [r3, #0]
 80028cc:	60da      	str	r2, [r3, #12]
        break;
 80028ce:	e020      	b.n	8002912 <UART_SetConfig+0x2ae>
      case UART_CLOCKSOURCE_SYSCLK:
        huart->Instance->BRR = (uint16_t)(UART_DIV_SAMPLING16(HAL_RCC_GetSysClockFreq(), huart->Init.BaudRate));
 80028d0:	f7ff fc96 	bl	8002200 <HAL_RCC_GetSysClockFreq>
 80028d4:	4602      	mov	r2, r0
 80028d6:	687b      	ldr	r3, [r7, #4]
 80028d8:	685b      	ldr	r3, [r3, #4]
 80028da:	085b      	lsrs	r3, r3, #1
 80028dc:	441a      	add	r2, r3
 80028de:	687b      	ldr	r3, [r7, #4]
 80028e0:	685b      	ldr	r3, [r3, #4]
 80028e2:	fbb2 f3f3 	udiv	r3, r2, r3
 80028e6:	b29a      	uxth	r2, r3
 80028e8:	687b      	ldr	r3, [r7, #4]
 80028ea:	681b      	ldr	r3, [r3, #0]
 80028ec:	60da      	str	r2, [r3, #12]
        break;
 80028ee:	e010      	b.n	8002912 <UART_SetConfig+0x2ae>
      case UART_CLOCKSOURCE_LSE:
        huart->Instance->BRR = (uint16_t)(UART_DIV_SAMPLING16(LSE_VALUE, huart->Init.BaudRate));
 80028f0:	687b      	ldr	r3, [r7, #4]
 80028f2:	685b      	ldr	r3, [r3, #4]
 80028f4:	085b      	lsrs	r3, r3, #1
 80028f6:	f503 4200 	add.w	r2, r3, #32768	; 0x8000
 80028fa:	687b      	ldr	r3, [r7, #4]
 80028fc:	685b      	ldr	r3, [r3, #4]
 80028fe:	fbb2 f3f3 	udiv	r3, r2, r3
 8002902:	b29a      	uxth	r2, r3
 8002904:	687b      	ldr	r3, [r7, #4]
 8002906:	681b      	ldr	r3, [r3, #0]
 8002908:	60da      	str	r2, [r3, #12]
        break;
 800290a:	e002      	b.n	8002912 <UART_SetConfig+0x2ae>
      case UART_CLOCKSOURCE_UNDEFINED:
      default:
        ret = HAL_ERROR;
 800290c:	2301      	movs	r3, #1
 800290e:	74fb      	strb	r3, [r7, #19]
        break;
 8002910:	bf00      	nop
    }
  }

  return ret;
 8002912:	7cfb      	ldrb	r3, [r7, #19]

}
 8002914:	4618      	mov	r0, r3
 8002916:	3718      	adds	r7, #24
 8002918:	46bd      	mov	sp, r7
 800291a:	bd80      	pop	{r7, pc}
 800291c:	efff69f3 	.word	0xefff69f3
 8002920:	40013800 	.word	0x40013800
 8002924:	40021000 	.word	0x40021000
 8002928:	40004400 	.word	0x40004400
 800292c:	40004800 	.word	0x40004800

08002930 <UART_AdvFeatureConfig>:
  * @brief Configure the UART peripheral advanced features.
  * @param huart UART handle.
  * @retval None
  */
void UART_AdvFeatureConfig(UART_HandleTypeDef *huart)
{
 8002930:	b480      	push	{r7}
 8002932:	b083      	sub	sp, #12
 8002934:	af00      	add	r7, sp, #0
 8002936:	6078      	str	r0, [r7, #4]
  /* Check whether the set of advanced features to configure is properly set */
  assert_param(IS_UART_ADVFEATURE_INIT(huart->AdvancedInit.AdvFeatureInit));

  /* if required, configure TX pin active level inversion */
  if(HAL_IS_BIT_SET(huart->AdvancedInit.AdvFeatureInit, UART_ADVFEATURE_TXINVERT_INIT))
 8002938:	687b      	ldr	r3, [r7, #4]
 800293a:	6a5b      	ldr	r3, [r3, #36]	; 0x24
 800293c:	f003 0301 	and.w	r3, r3, #1
 8002940:	2b00      	cmp	r3, #0
 8002942:	d00a      	beq.n	800295a <UART_AdvFeatureConfig+0x2a>
  {
    assert_param(IS_UART_ADVFEATURE_TXINV(huart->AdvancedInit.TxPinLevelInvert));
    MODIFY_REG(huart->Instance->CR2, USART_CR2_TXINV, huart->AdvancedInit.TxPinLevelInvert);
 8002944:	687b      	ldr	r3, [r7, #4]
 8002946:	681b      	ldr	r3, [r3, #0]
 8002948:	685b      	ldr	r3, [r3, #4]
 800294a:	f423 3100 	bic.w	r1, r3, #131072	; 0x20000
 800294e:	687b      	ldr	r3, [r7, #4]
 8002950:	6a9a      	ldr	r2, [r3, #40]	; 0x28
 8002952:	687b      	ldr	r3, [r7, #4]
 8002954:	681b      	ldr	r3, [r3, #0]
 8002956:	430a      	orrs	r2, r1
 8002958:	605a      	str	r2, [r3, #4]
  }

  /* if required, configure RX pin active level inversion */
  if(HAL_IS_BIT_SET(huart->AdvancedInit.AdvFeatureInit, UART_ADVFEATURE_RXINVERT_INIT))
 800295a:	687b      	ldr	r3, [r7, #4]
 800295c:	6a5b      	ldr	r3, [r3, #36]	; 0x24
 800295e:	f003 0302 	and.w	r3, r3, #2
 8002962:	2b00      	cmp	r3, #0
 8002964:	d00a      	beq.n	800297c <UART_AdvFeatureConfig+0x4c>
  {
    assert_param(IS_UART_ADVFEATURE_RXINV(huart->AdvancedInit.RxPinLevelInvert));
    MODIFY_REG(huart->Instance->CR2, USART_CR2_RXINV, huart->AdvancedInit.RxPinLevelInvert);
 8002966:	687b      	ldr	r3, [r7, #4]
 8002968:	681b      	ldr	r3, [r3, #0]
 800296a:	685b      	ldr	r3, [r3, #4]
 800296c:	f423 3180 	bic.w	r1, r3, #65536	; 0x10000
 8002970:	687b      	ldr	r3, [r7, #4]
 8002972:	6ada      	ldr	r2, [r3, #44]	; 0x2c
 8002974:	687b      	ldr	r3, [r7, #4]
 8002976:	681b      	ldr	r3, [r3, #0]
 8002978:	430a      	orrs	r2, r1
 800297a:	605a      	str	r2, [r3, #4]
  }

  /* if required, configure data inversion */
  if(HAL_IS_BIT_SET(huart->AdvancedInit.AdvFeatureInit, UART_ADVFEATURE_DATAINVERT_INIT))
 800297c:	687b      	ldr	r3, [r7, #4]
 800297e:	6a5b      	ldr	r3, [r3, #36]	; 0x24
 8002980:	f003 0304 	and.w	r3, r3, #4
 8002984:	2b00      	cmp	r3, #0
 8002986:	d00a      	beq.n	800299e <UART_AdvFeatureConfig+0x6e>
  {
    assert_param(IS_UART_ADVFEATURE_DATAINV(huart->AdvancedInit.DataInvert));
    MODIFY_REG(huart->Instance->CR2, USART_CR2_DATAINV, huart->AdvancedInit.DataInvert);
 8002988:	687b      	ldr	r3, [r7, #4]
 800298a:	681b      	ldr	r3, [r3, #0]
 800298c:	685b      	ldr	r3, [r3, #4]
 800298e:	f423 2180 	bic.w	r1, r3, #262144	; 0x40000
 8002992:	687b      	ldr	r3, [r7, #4]
 8002994:	6b1a      	ldr	r2, [r3, #48]	; 0x30
 8002996:	687b      	ldr	r3, [r7, #4]
 8002998:	681b      	ldr	r3, [r3, #0]
 800299a:	430a      	orrs	r2, r1
 800299c:	605a      	str	r2, [r3, #4]
  }

  /* if required, configure RX/TX pins swap */
  if(HAL_IS_BIT_SET(huart->AdvancedInit.AdvFeatureInit, UART_ADVFEATURE_SWAP_INIT))
 800299e:	687b      	ldr	r3, [r7, #4]
 80029a0:	6a5b      	ldr	r3, [r3, #36]	; 0x24
 80029a2:	f003 0308 	and.w	r3, r3, #8
 80029a6:	2b00      	cmp	r3, #0
 80029a8:	d00a      	beq.n	80029c0 <UART_AdvFeatureConfig+0x90>
  {
    assert_param(IS_UART_ADVFEATURE_SWAP(huart->AdvancedInit.Swap));
    MODIFY_REG(huart->Instance->CR2, USART_CR2_SWAP, huart->AdvancedInit.Swap);
 80029aa:	687b      	ldr	r3, [r7, #4]
 80029ac:	681b      	ldr	r3, [r3, #0]
 80029ae:	685b      	ldr	r3, [r3, #4]
 80029b0:	f423 4100 	bic.w	r1, r3, #32768	; 0x8000
 80029b4:	687b      	ldr	r3, [r7, #4]
 80029b6:	6b5a      	ldr	r2, [r3, #52]	; 0x34
 80029b8:	687b      	ldr	r3, [r7, #4]
 80029ba:	681b      	ldr	r3, [r3, #0]
 80029bc:	430a      	orrs	r2, r1
 80029be:	605a      	str	r2, [r3, #4]
  }

  /* if required, configure RX overrun detection disabling */
  if(HAL_IS_BIT_SET(huart->AdvancedInit.AdvFeatureInit, UART_ADVFEATURE_RXOVERRUNDISABLE_INIT))
 80029c0:	687b      	ldr	r3, [r7, #4]
 80029c2:	6a5b      	ldr	r3, [r3, #36]	; 0x24
 80029c4:	f003 0310 	and.w	r3, r3, #16
 80029c8:	2b00      	cmp	r3, #0
 80029ca:	d00a      	beq.n	80029e2 <UART_AdvFeatureConfig+0xb2>
  {
    assert_param(IS_UART_OVERRUN(huart->AdvancedInit.OverrunDisable));
    MODIFY_REG(huart->Instance->CR3, USART_CR3_OVRDIS, huart->AdvancedInit.OverrunDisable);
 80029cc:	687b      	ldr	r3, [r7, #4]
 80029ce:	681b      	ldr	r3, [r3, #0]
 80029d0:	689b      	ldr	r3, [r3, #8]
 80029d2:	f423 5180 	bic.w	r1, r3, #4096	; 0x1000
 80029d6:	687b      	ldr	r3, [r7, #4]
 80029d8:	6b9a      	ldr	r2, [r3, #56]	; 0x38
 80029da:	687b      	ldr	r3, [r7, #4]
 80029dc:	681b      	ldr	r3, [r3, #0]
 80029de:	430a      	orrs	r2, r1
 80029e0:	609a      	str	r2, [r3, #8]
  }

  /* if required, configure DMA disabling on reception error */
  if(HAL_IS_BIT_SET(huart->AdvancedInit.AdvFeatureInit, UART_ADVFEATURE_DMADISABLEONERROR_INIT))
 80029e2:	687b      	ldr	r3, [r7, #4]
 80029e4:	6a5b      	ldr	r3, [r3, #36]	; 0x24
 80029e6:	f003 0320 	and.w	r3, r3, #32
 80029ea:	2b00      	cmp	r3, #0
 80029ec:	d00a      	beq.n	8002a04 <UART_AdvFeatureConfig+0xd4>
  {
    assert_param(IS_UART_ADVFEATURE_DMAONRXERROR(huart->AdvancedInit.DMADisableonRxError));
    MODIFY_REG(huart->Instance->CR3, USART_CR3_DDRE, huart->AdvancedInit.DMADisableonRxError);
 80029ee:	687b      	ldr	r3, [r7, #4]
 80029f0:	681b      	ldr	r3, [r3, #0]
 80029f2:	689b      	ldr	r3, [r3, #8]
 80029f4:	f423 5100 	bic.w	r1, r3, #8192	; 0x2000
 80029f8:	687b      	ldr	r3, [r7, #4]
 80029fa:	6bda      	ldr	r2, [r3, #60]	; 0x3c
 80029fc:	687b      	ldr	r3, [r7, #4]
 80029fe:	681b      	ldr	r3, [r3, #0]
 8002a00:	430a      	orrs	r2, r1
 8002a02:	609a      	str	r2, [r3, #8]
  }

  /* if required, configure auto Baud rate detection scheme */
  if(HAL_IS_BIT_SET(huart->AdvancedInit.AdvFeatureInit, UART_ADVFEATURE_AUTOBAUDRATE_INIT))
 8002a04:	687b      	ldr	r3, [r7, #4]
 8002a06:	6a5b      	ldr	r3, [r3, #36]	; 0x24
 8002a08:	f003 0340 	and.w	r3, r3, #64	; 0x40
 8002a0c:	2b00      	cmp	r3, #0
 8002a0e:	d01a      	beq.n	8002a46 <UART_AdvFeatureConfig+0x116>
  {
    assert_param(IS_USART_AUTOBAUDRATE_DETECTION_INSTANCE(huart->Instance));
    assert_param(IS_UART_ADVFEATURE_AUTOBAUDRATE(huart->AdvancedInit.AutoBaudRateEnable));
    MODIFY_REG(huart->Instance->CR2, USART_CR2_ABREN, huart->AdvancedInit.AutoBaudRateEnable);
 8002a10:	687b      	ldr	r3, [r7, #4]
 8002a12:	681b      	ldr	r3, [r3, #0]
 8002a14:	685b      	ldr	r3, [r3, #4]
 8002a16:	f423 1180 	bic.w	r1, r3, #1048576	; 0x100000
 8002a1a:	687b      	ldr	r3, [r7, #4]
 8002a1c:	6c1a      	ldr	r2, [r3, #64]	; 0x40
 8002a1e:	687b      	ldr	r3, [r7, #4]
 8002a20:	681b      	ldr	r3, [r3, #0]
 8002a22:	430a      	orrs	r2, r1
 8002a24:	605a      	str	r2, [r3, #4]
    /* set auto Baudrate detection parameters if detection is enabled */
    if(huart->AdvancedInit.AutoBaudRateEnable == UART_ADVFEATURE_AUTOBAUDRATE_ENABLE)
 8002a26:	687b      	ldr	r3, [r7, #4]
 8002a28:	6c1b      	ldr	r3, [r3, #64]	; 0x40
 8002a2a:	f5b3 1f80 	cmp.w	r3, #1048576	; 0x100000
 8002a2e:	d10a      	bne.n	8002a46 <UART_AdvFeatureConfig+0x116>
    {
      assert_param(IS_UART_ADVFEATURE_AUTOBAUDRATEMODE(huart->AdvancedInit.AutoBaudRateMode));
      MODIFY_REG(huart->Instance->CR2, USART_CR2_ABRMODE, huart->AdvancedInit.AutoBaudRateMode);
 8002a30:	687b      	ldr	r3, [r7, #4]
 8002a32:	681b      	ldr	r3, [r3, #0]
 8002a34:	685b      	ldr	r3, [r3, #4]
 8002a36:	f423 01c0 	bic.w	r1, r3, #6291456	; 0x600000
 8002a3a:	687b      	ldr	r3, [r7, #4]
 8002a3c:	6c5a      	ldr	r2, [r3, #68]	; 0x44
 8002a3e:	687b      	ldr	r3, [r7, #4]
 8002a40:	681b      	ldr	r3, [r3, #0]
 8002a42:	430a      	orrs	r2, r1
 8002a44:	605a      	str	r2, [r3, #4]
    }
  }

  /* if required, configure MSB first on communication line */
  if(HAL_IS_BIT_SET(huart->AdvancedInit.AdvFeatureInit, UART_ADVFEATURE_MSBFIRST_INIT))
 8002a46:	687b      	ldr	r3, [r7, #4]
 8002a48:	6a5b      	ldr	r3, [r3, #36]	; 0x24
 8002a4a:	f003 0380 	and.w	r3, r3, #128	; 0x80
 8002a4e:	2b00      	cmp	r3, #0
 8002a50:	d00a      	beq.n	8002a68 <UART_AdvFeatureConfig+0x138>
  {
    assert_param(IS_UART_ADVFEATURE_MSBFIRST(huart->AdvancedInit.MSBFirst));
    MODIFY_REG(huart->Instance->CR2, USART_CR2_MSBFIRST, huart->AdvancedInit.MSBFirst);
 8002a52:	687b      	ldr	r3, [r7, #4]
 8002a54:	681b      	ldr	r3, [r3, #0]
 8002a56:	685b      	ldr	r3, [r3, #4]
 8002a58:	f423 2100 	bic.w	r1, r3, #524288	; 0x80000
 8002a5c:	687b      	ldr	r3, [r7, #4]
 8002a5e:	6c9a      	ldr	r2, [r3, #72]	; 0x48
 8002a60:	687b      	ldr	r3, [r7, #4]
 8002a62:	681b      	ldr	r3, [r3, #0]
 8002a64:	430a      	orrs	r2, r1
 8002a66:	605a      	str	r2, [r3, #4]
  }
}
 8002a68:	bf00      	nop
 8002a6a:	370c      	adds	r7, #12
 8002a6c:	46bd      	mov	sp, r7
 8002a6e:	f85d 7b04 	ldr.w	r7, [sp], #4
 8002a72:	4770      	bx	lr

08002a74 <UART_CheckIdleState>:
  * @brief Check the UART Idle State.
  * @param huart UART handle.
  * @retval HAL status
  */
HAL_StatusTypeDef UART_CheckIdleState(UART_HandleTypeDef *huart)
{
 8002a74:	b580      	push	{r7, lr}
 8002a76:	b086      	sub	sp, #24
 8002a78:	af02      	add	r7, sp, #8
 8002a7a:	6078      	str	r0, [r7, #4]
  uint32_t tickstart = 0U;
 8002a7c:	2300      	movs	r3, #0
 8002a7e:	60fb      	str	r3, [r7, #12]

  /* Initialize the UART ErrorCode */
  huart->ErrorCode = HAL_UART_ERROR_NONE;
 8002a80:	687b      	ldr	r3, [r7, #4]
 8002a82:	2200      	movs	r2, #0
 8002a84:	66da      	str	r2, [r3, #108]	; 0x6c

  /* Init tickstart for timeout managment*/
  tickstart = HAL_GetTick();
 8002a86:	f7fe f8c7 	bl	8000c18 <HAL_GetTick>
 8002a8a:	60f8      	str	r0, [r7, #12]

  /* Check if the Transmitter is enabled */
  if((huart->Instance->CR1 & USART_CR1_TE) == USART_CR1_TE)
 8002a8c:	687b      	ldr	r3, [r7, #4]
 8002a8e:	681b      	ldr	r3, [r3, #0]
 8002a90:	681b      	ldr	r3, [r3, #0]
 8002a92:	f003 0308 	and.w	r3, r3, #8
 8002a96:	2b08      	cmp	r3, #8
 8002a98:	d10e      	bne.n	8002ab8 <UART_CheckIdleState+0x44>
  {
    /* Wait until TEACK flag is set */
    if(UART_WaitOnFlagUntilTimeout(huart, USART_ISR_TEACK, RESET, tickstart, HAL_UART_TIMEOUT_VALUE) != HAL_OK)
 8002a9a:	f06f 437e 	mvn.w	r3, #4261412864	; 0xfe000000
 8002a9e:	9300      	str	r3, [sp, #0]
 8002aa0:	68fb      	ldr	r3, [r7, #12]
 8002aa2:	2200      	movs	r2, #0
 8002aa4:	f44f 1100 	mov.w	r1, #2097152	; 0x200000
 8002aa8:	6878      	ldr	r0, [r7, #4]
 8002aaa:	f000 f82c 	bl	8002b06 <UART_WaitOnFlagUntilTimeout>
 8002aae:	4603      	mov	r3, r0
 8002ab0:	2b00      	cmp	r3, #0
 8002ab2:	d001      	beq.n	8002ab8 <UART_CheckIdleState+0x44>
    {
      /* Timeout Occured */
      return HAL_TIMEOUT;
 8002ab4:	2303      	movs	r3, #3
 8002ab6:	e022      	b.n	8002afe <UART_CheckIdleState+0x8a>
    }
  }
  /* Check if the Receiver is enabled */
  if((huart->Instance->CR1 & USART_CR1_RE) == USART_CR1_RE)
 8002ab8:	687b      	ldr	r3, [r7, #4]
 8002aba:	681b      	ldr	r3, [r3, #0]
 8002abc:	681b      	ldr	r3, [r3, #0]
 8002abe:	f003 0304 	and.w	r3, r3, #4
 8002ac2:	2b04      	cmp	r3, #4
 8002ac4:	d10e      	bne.n	8002ae4 <UART_CheckIdleState+0x70>
  {
    /* Wait until REACK flag is set */
    if(UART_WaitOnFlagUntilTimeout(huart, USART_ISR_REACK, RESET, tickstart, HAL_UART_TIMEOUT_VALUE) != HAL_OK)
 8002ac6:	f06f 437e 	mvn.w	r3, #4261412864	; 0xfe000000
 8002aca:	9300      	str	r3, [sp, #0]
 8002acc:	68fb      	ldr	r3, [r7, #12]
 8002ace:	2200      	movs	r2, #0
 8002ad0:	f44f 0180 	mov.w	r1, #4194304	; 0x400000
 8002ad4:	6878      	ldr	r0, [r7, #4]
 8002ad6:	f000 f816 	bl	8002b06 <UART_WaitOnFlagUntilTimeout>
 8002ada:	4603      	mov	r3, r0
 8002adc:	2b00      	cmp	r3, #0
 8002ade:	d001      	beq.n	8002ae4 <UART_CheckIdleState+0x70>
    {
      /* Timeout Occured */
      return HAL_TIMEOUT;
 8002ae0:	2303      	movs	r3, #3
 8002ae2:	e00c      	b.n	8002afe <UART_CheckIdleState+0x8a>
    }
  }

  /* Initialize the UART State */
  huart->gState  = HAL_UART_STATE_READY;
 8002ae4:	687b      	ldr	r3, [r7, #4]
 8002ae6:	2220      	movs	r2, #32
 8002ae8:	f883 2069 	strb.w	r2, [r3, #105]	; 0x69
  huart->RxState = HAL_UART_STATE_READY;
 8002aec:	687b      	ldr	r3, [r7, #4]
 8002aee:	2220      	movs	r2, #32
 8002af0:	f883 206a 	strb.w	r2, [r3, #106]	; 0x6a

  /* Process Unlocked */
  __HAL_UNLOCK(huart);
 8002af4:	687b      	ldr	r3, [r7, #4]
 8002af6:	2200      	movs	r2, #0
 8002af8:	f883 2068 	strb.w	r2, [r3, #104]	; 0x68

  return HAL_OK;
 8002afc:	2300      	movs	r3, #0
}
 8002afe:	4618      	mov	r0, r3
 8002b00:	3710      	adds	r7, #16
 8002b02:	46bd      	mov	sp, r7
 8002b04:	bd80      	pop	{r7, pc}

08002b06 <UART_WaitOnFlagUntilTimeout>:
  * @param  Tickstart Tick start value
  * @param  Timeout Timeout duration
  * @retval HAL status
  */
HAL_StatusTypeDef UART_WaitOnFlagUntilTimeout(UART_HandleTypeDef *huart, uint32_t Flag, FlagStatus Status, uint32_t Tickstart, uint32_t Timeout)
{
 8002b06:	b580      	push	{r7, lr}
 8002b08:	b084      	sub	sp, #16
 8002b0a:	af00      	add	r7, sp, #0
 8002b0c:	60f8      	str	r0, [r7, #12]
 8002b0e:	60b9      	str	r1, [r7, #8]
 8002b10:	603b      	str	r3, [r7, #0]
 8002b12:	4613      	mov	r3, r2
 8002b14:	71fb      	strb	r3, [r7, #7]
  /* Wait until flag is set */
  while((__HAL_UART_GET_FLAG(huart, Flag) ? SET : RESET) == Status)
 8002b16:	e02c      	b.n	8002b72 <UART_WaitOnFlagUntilTimeout+0x6c>
  {
    /* Check for the Timeout */
    if(Timeout != HAL_MAX_DELAY)
 8002b18:	69bb      	ldr	r3, [r7, #24]
 8002b1a:	f1b3 3fff 	cmp.w	r3, #4294967295
 8002b1e:	d028      	beq.n	8002b72 <UART_WaitOnFlagUntilTimeout+0x6c>
    {
      if((Timeout == 0U) || ((HAL_GetTick()-Tickstart) > Timeout))
 8002b20:	69bb      	ldr	r3, [r7, #24]
 8002b22:	2b00      	cmp	r3, #0
 8002b24:	d007      	beq.n	8002b36 <UART_WaitOnFlagUntilTimeout+0x30>
 8002b26:	f7fe f877 	bl	8000c18 <HAL_GetTick>
 8002b2a:	4602      	mov	r2, r0
 8002b2c:	683b      	ldr	r3, [r7, #0]
 8002b2e:	1ad3      	subs	r3, r2, r3
 8002b30:	69ba      	ldr	r2, [r7, #24]
 8002b32:	429a      	cmp	r2, r3
 8002b34:	d21d      	bcs.n	8002b72 <UART_WaitOnFlagUntilTimeout+0x6c>
      {
        /* Disable TXE, RXNE, PE and ERR (Frame error, noise error, overrun error) interrupts for the interrupt process */
        CLEAR_BIT(huart->Instance->CR1, (USART_CR1_RXNEIE | USART_CR1_PEIE | USART_CR1_TXEIE));
 8002b36:	68fb      	ldr	r3, [r7, #12]
 8002b38:	681b      	ldr	r3, [r3, #0]
 8002b3a:	681a      	ldr	r2, [r3, #0]
 8002b3c:	68fb      	ldr	r3, [r7, #12]
 8002b3e:	681b      	ldr	r3, [r3, #0]
 8002b40:	f422 72d0 	bic.w	r2, r2, #416	; 0x1a0
 8002b44:	601a      	str	r2, [r3, #0]
        CLEAR_BIT(huart->Instance->CR3, USART_CR3_EIE);
 8002b46:	68fb      	ldr	r3, [r7, #12]
 8002b48:	681b      	ldr	r3, [r3, #0]
 8002b4a:	689a      	ldr	r2, [r3, #8]
 8002b4c:	68fb      	ldr	r3, [r7, #12]
 8002b4e:	681b      	ldr	r3, [r3, #0]
 8002b50:	f022 0201 	bic.w	r2, r2, #1
 8002b54:	609a      	str	r2, [r3, #8]

        huart->gState  = HAL_UART_STATE_READY;
 8002b56:	68fb      	ldr	r3, [r7, #12]
 8002b58:	2220      	movs	r2, #32
 8002b5a:	f883 2069 	strb.w	r2, [r3, #105]	; 0x69
        huart->RxState = HAL_UART_STATE_READY;
 8002b5e:	68fb      	ldr	r3, [r7, #12]
 8002b60:	2220      	movs	r2, #32
 8002b62:	f883 206a 	strb.w	r2, [r3, #106]	; 0x6a

        /* Process Unlocked */
        __HAL_UNLOCK(huart);
 8002b66:	68fb      	ldr	r3, [r7, #12]
 8002b68:	2200      	movs	r2, #0
 8002b6a:	f883 2068 	strb.w	r2, [r3, #104]	; 0x68
        return HAL_TIMEOUT;
 8002b6e:	2303      	movs	r3, #3
 8002b70:	e00f      	b.n	8002b92 <UART_WaitOnFlagUntilTimeout+0x8c>
  while((__HAL_UART_GET_FLAG(huart, Flag) ? SET : RESET) == Status)
 8002b72:	68fb      	ldr	r3, [r7, #12]
 8002b74:	681b      	ldr	r3, [r3, #0]
 8002b76:	69da      	ldr	r2, [r3, #28]
 8002b78:	68bb      	ldr	r3, [r7, #8]
 8002b7a:	4013      	ands	r3, r2
 8002b7c:	68ba      	ldr	r2, [r7, #8]
 8002b7e:	429a      	cmp	r2, r3
 8002b80:	bf0c      	ite	eq
 8002b82:	2301      	moveq	r3, #1
 8002b84:	2300      	movne	r3, #0
 8002b86:	b2db      	uxtb	r3, r3
 8002b88:	461a      	mov	r2, r3
 8002b8a:	79fb      	ldrb	r3, [r7, #7]
 8002b8c:	429a      	cmp	r2, r3
 8002b8e:	d0c3      	beq.n	8002b18 <UART_WaitOnFlagUntilTimeout+0x12>
      }
    }
  }
  return HAL_OK;
 8002b90:	2300      	movs	r3, #0
}
 8002b92:	4618      	mov	r0, r3
 8002b94:	3710      	adds	r7, #16
 8002b96:	46bd      	mov	sp, r7
 8002b98:	bd80      	pop	{r7, pc}

08002b9a <LL_ADC_REG_SetSequencerLength>:
  *         @arg @ref LL_ADC_REG_SEQ_SCAN_ENABLE_15RANKS
  *         @arg @ref LL_ADC_REG_SEQ_SCAN_ENABLE_16RANKS
  * @retval None
  */
__STATIC_INLINE void LL_ADC_REG_SetSequencerLength(ADC_TypeDef *ADCx, uint32_t SequencerNbRanks)
{
 8002b9a:	b480      	push	{r7}
 8002b9c:	b083      	sub	sp, #12
 8002b9e:	af00      	add	r7, sp, #0
 8002ba0:	6078      	str	r0, [r7, #4]
 8002ba2:	6039      	str	r1, [r7, #0]
  MODIFY_REG(ADCx->SQR1, ADC_SQR1_L, SequencerNbRanks);
 8002ba4:	687b      	ldr	r3, [r7, #4]
 8002ba6:	6b1b      	ldr	r3, [r3, #48]	; 0x30
 8002ba8:	f023 020f 	bic.w	r2, r3, #15
 8002bac:	683b      	ldr	r3, [r7, #0]
 8002bae:	431a      	orrs	r2, r3
 8002bb0:	687b      	ldr	r3, [r7, #4]
 8002bb2:	631a      	str	r2, [r3, #48]	; 0x30
}
 8002bb4:	bf00      	nop
 8002bb6:	370c      	adds	r7, #12
 8002bb8:	46bd      	mov	sp, r7
 8002bba:	f85d 7b04 	ldr.w	r7, [sp], #4
 8002bbe:	4770      	bx	lr

08002bc0 <LL_ADC_IsEnabled>:
  * @rmtoll CR       ADEN           LL_ADC_IsEnabled
  * @param  ADCx ADC instance
  * @retval 0: ADC is disabled, 1: ADC is enabled.
  */
__STATIC_INLINE uint32_t LL_ADC_IsEnabled(ADC_TypeDef *ADCx)
{
 8002bc0:	b480      	push	{r7}
 8002bc2:	b083      	sub	sp, #12
 8002bc4:	af00      	add	r7, sp, #0
 8002bc6:	6078      	str	r0, [r7, #4]
  return (READ_BIT(ADCx->CR, ADC_CR_ADEN) == (ADC_CR_ADEN));
 8002bc8:	687b      	ldr	r3, [r7, #4]
 8002bca:	689b      	ldr	r3, [r3, #8]
 8002bcc:	f003 0301 	and.w	r3, r3, #1
 8002bd0:	2b01      	cmp	r3, #1
 8002bd2:	bf0c      	ite	eq
 8002bd4:	2301      	moveq	r3, #1
 8002bd6:	2300      	movne	r3, #0
 8002bd8:	b2db      	uxtb	r3, r3
}
 8002bda:	4618      	mov	r0, r3
 8002bdc:	370c      	adds	r7, #12
 8002bde:	46bd      	mov	sp, r7
 8002be0:	f85d 7b04 	ldr.w	r7, [sp], #4
 8002be4:	4770      	bx	lr
	...

08002be8 <LL_ADC_CommonInit>:
  * @retval An ErrorStatus enumeration value:
  *          - SUCCESS: ADC common registers are initialized
  *          - ERROR: ADC common registers are not initialized
  */
ErrorStatus LL_ADC_CommonInit(ADC_Common_TypeDef *ADCxy_COMMON, LL_ADC_CommonInitTypeDef *ADC_CommonInitStruct)
{
 8002be8:	b590      	push	{r4, r7, lr}
 8002bea:	b085      	sub	sp, #20
 8002bec:	af00      	add	r7, sp, #0
 8002bee:	6078      	str	r0, [r7, #4]
 8002bf0:	6039      	str	r1, [r7, #0]
  ErrorStatus status = SUCCESS;
 8002bf2:	2300      	movs	r3, #0
 8002bf4:	73fb      	strb	r3, [r7, #15]
  /* Note: Hardware constraint (refer to description of functions             */
  /*       "LL_ADC_SetCommonXXX()" and "LL_ADC_SetMultiXXX()"):               */
  /*       On this STM32 serie, setting of these features is conditioned to   */
  /*       ADC state:                                                         */
  /*       All ADC instances of the ADC common group must be disabled.        */
  if(__LL_ADC_IS_ENABLED_ALL_COMMON_INSTANCE(ADCxy_COMMON) == 0U)
 8002bf6:	f04f 40a0 	mov.w	r0, #1342177280	; 0x50000000
 8002bfa:	f7ff ffe1 	bl	8002bc0 <LL_ADC_IsEnabled>
 8002bfe:	4604      	mov	r4, r0
 8002c00:	4817      	ldr	r0, [pc, #92]	; (8002c60 <LL_ADC_CommonInit+0x78>)
 8002c02:	f7ff ffdd 	bl	8002bc0 <LL_ADC_IsEnabled>
 8002c06:	4603      	mov	r3, r0
 8002c08:	4323      	orrs	r3, r4
 8002c0a:	2b00      	cmp	r3, #0
 8002c0c:	d120      	bne.n	8002c50 <LL_ADC_CommonInit+0x68>
    /*    selected device)                                                    */
    /*    - Set ADC multimode configuration                                   */
    /*    - Set ADC multimode DMA transfer                                    */
    /*    - Set ADC multimode: delay between 2 sampling phases                */
#if defined(ADC_MULTIMODE_SUPPORT)
    if(ADC_CommonInitStruct->Multimode != LL_ADC_MULTI_INDEPENDENT)
 8002c0e:	683b      	ldr	r3, [r7, #0]
 8002c10:	685b      	ldr	r3, [r3, #4]
 8002c12:	2b00      	cmp	r3, #0
 8002c14:	d012      	beq.n	8002c3c <LL_ADC_CommonInit+0x54>
    {
      MODIFY_REG(ADCxy_COMMON->CCR,
 8002c16:	687b      	ldr	r3, [r7, #4]
 8002c18:	689a      	ldr	r2, [r3, #8]
 8002c1a:	4b12      	ldr	r3, [pc, #72]	; (8002c64 <LL_ADC_CommonInit+0x7c>)
 8002c1c:	4013      	ands	r3, r2
 8002c1e:	683a      	ldr	r2, [r7, #0]
 8002c20:	6811      	ldr	r1, [r2, #0]
 8002c22:	683a      	ldr	r2, [r7, #0]
 8002c24:	6852      	ldr	r2, [r2, #4]
 8002c26:	4311      	orrs	r1, r2
 8002c28:	683a      	ldr	r2, [r7, #0]
 8002c2a:	6892      	ldr	r2, [r2, #8]
 8002c2c:	4311      	orrs	r1, r2
 8002c2e:	683a      	ldr	r2, [r7, #0]
 8002c30:	68d2      	ldr	r2, [r2, #12]
 8002c32:	430a      	orrs	r2, r1
 8002c34:	431a      	orrs	r2, r3
 8002c36:	687b      	ldr	r3, [r7, #4]
 8002c38:	609a      	str	r2, [r3, #8]
 8002c3a:	e00b      	b.n	8002c54 <LL_ADC_CommonInit+0x6c>
                 | ADC_CommonInitStruct->MultiTwoSamplingDelay
                );
    }
    else
    {
      MODIFY_REG(ADCxy_COMMON->CCR,
 8002c3c:	687b      	ldr	r3, [r7, #4]
 8002c3e:	689a      	ldr	r2, [r3, #8]
 8002c40:	4b08      	ldr	r3, [pc, #32]	; (8002c64 <LL_ADC_CommonInit+0x7c>)
 8002c42:	4013      	ands	r3, r2
 8002c44:	683a      	ldr	r2, [r7, #0]
 8002c46:	6812      	ldr	r2, [r2, #0]
 8002c48:	431a      	orrs	r2, r3
 8002c4a:	687b      	ldr	r3, [r7, #4]
 8002c4c:	609a      	str	r2, [r3, #8]
 8002c4e:	e001      	b.n	8002c54 <LL_ADC_CommonInit+0x6c>
  }
  else
  {
    /* Initialization error: One or several ADC instances belonging to        */
    /* the same ADC common instance are not disabled.                         */
    status = ERROR;
 8002c50:	2301      	movs	r3, #1
 8002c52:	73fb      	strb	r3, [r7, #15]
  }
  
  return status;
 8002c54:	7bfb      	ldrb	r3, [r7, #15]
}
 8002c56:	4618      	mov	r0, r3
 8002c58:	3714      	adds	r7, #20
 8002c5a:	46bd      	mov	sp, r7
 8002c5c:	bd90      	pop	{r4, r7, pc}
 8002c5e:	bf00      	nop
 8002c60:	50000100 	.word	0x50000100
 8002c64:	fffc30e0 	.word	0xfffc30e0

08002c68 <LL_ADC_Init>:
  * @retval An ErrorStatus enumeration value:
  *          - SUCCESS: ADC registers are initialized
  *          - ERROR: ADC registers are not initialized
  */
ErrorStatus LL_ADC_Init(ADC_TypeDef *ADCx, LL_ADC_InitTypeDef *ADC_InitStruct)
{
 8002c68:	b580      	push	{r7, lr}
 8002c6a:	b084      	sub	sp, #16
 8002c6c:	af00      	add	r7, sp, #0
 8002c6e:	6078      	str	r0, [r7, #4]
 8002c70:	6039      	str	r1, [r7, #0]
  ErrorStatus status = SUCCESS;
 8002c72:	2300      	movs	r3, #0
 8002c74:	73fb      	strb	r3, [r7, #15]
  assert_param(IS_LL_ADC_DATA_ALIGN(ADC_InitStruct->DataAlignment));
  assert_param(IS_LL_ADC_LOW_POWER(ADC_InitStruct->LowPowerMode));
  
  /* Note: Hardware constraint (refer to description of this function):       */
  /*       ADC instance must be disabled.                                     */
  if(LL_ADC_IsEnabled(ADCx) == 0U)
 8002c76:	6878      	ldr	r0, [r7, #4]
 8002c78:	f7ff ffa2 	bl	8002bc0 <LL_ADC_IsEnabled>
 8002c7c:	4603      	mov	r3, r0
 8002c7e:	2b00      	cmp	r3, #0
 8002c80:	d111      	bne.n	8002ca6 <LL_ADC_Init+0x3e>
    /* Configuration of ADC hierarchical scope:                               */
    /*  - ADC instance                                                        */
    /*    - Set ADC data resolution                                           */
    /*    - Set ADC conversion data alignment                                 */
    /*    - Set ADC low power mode                                            */
    MODIFY_REG(ADCx->CFGR,
 8002c82:	687b      	ldr	r3, [r7, #4]
 8002c84:	68db      	ldr	r3, [r3, #12]
 8002c86:	f423 4380 	bic.w	r3, r3, #16384	; 0x4000
 8002c8a:	f023 0338 	bic.w	r3, r3, #56	; 0x38
 8002c8e:	683a      	ldr	r2, [r7, #0]
 8002c90:	6811      	ldr	r1, [r2, #0]
 8002c92:	683a      	ldr	r2, [r7, #0]
 8002c94:	6852      	ldr	r2, [r2, #4]
 8002c96:	4311      	orrs	r1, r2
 8002c98:	683a      	ldr	r2, [r7, #0]
 8002c9a:	6892      	ldr	r2, [r2, #8]
 8002c9c:	430a      	orrs	r2, r1
 8002c9e:	431a      	orrs	r2, r3
 8002ca0:	687b      	ldr	r3, [r7, #4]
 8002ca2:	60da      	str	r2, [r3, #12]
 8002ca4:	e001      	b.n	8002caa <LL_ADC_Init+0x42>
    
  }
  else
  {
    /* Initialization error: ADC instance is not disabled. */
    status = ERROR;
 8002ca6:	2301      	movs	r3, #1
 8002ca8:	73fb      	strb	r3, [r7, #15]
  }
  return status;
 8002caa:	7bfb      	ldrb	r3, [r7, #15]
}
 8002cac:	4618      	mov	r0, r3
 8002cae:	3710      	adds	r7, #16
 8002cb0:	46bd      	mov	sp, r7
 8002cb2:	bd80      	pop	{r7, pc}

08002cb4 <LL_ADC_REG_Init>:
  * @retval An ErrorStatus enumeration value:
  *          - SUCCESS: ADC registers are initialized
  *          - ERROR: ADC registers are not initialized
  */
ErrorStatus LL_ADC_REG_Init(ADC_TypeDef *ADCx, LL_ADC_REG_InitTypeDef *ADC_REG_InitStruct)
{
 8002cb4:	b580      	push	{r7, lr}
 8002cb6:	b084      	sub	sp, #16
 8002cb8:	af00      	add	r7, sp, #0
 8002cba:	6078      	str	r0, [r7, #4]
 8002cbc:	6039      	str	r1, [r7, #0]
  ErrorStatus status = SUCCESS;
 8002cbe:	2300      	movs	r3, #0
 8002cc0:	73fb      	strb	r3, [r7, #15]
  assert_param(IS_LL_ADC_REG_DMA_TRANSFER(ADC_REG_InitStruct->DMATransfer));
  assert_param(IS_LL_ADC_REG_OVR_DATA_BEHAVIOR(ADC_REG_InitStruct->Overrun));
  
  /* Note: Hardware constraint (refer to description of this function):       */
  /*       ADC instance must be disabled.                                     */
  if(LL_ADC_IsEnabled(ADCx) == 0U)
 8002cc2:	6878      	ldr	r0, [r7, #4]
 8002cc4:	f7ff ff7c 	bl	8002bc0 <LL_ADC_IsEnabled>
 8002cc8:	4603      	mov	r3, r0
 8002cca:	2b00      	cmp	r3, #0
 8002ccc:	d132      	bne.n	8002d34 <LL_ADC_REG_Init+0x80>
    /*    - Set ADC group regular conversion data transfer: no transfer or    */
    /*      transfer by DMA, and DMA requests mode                            */
    /*    - Set ADC group regular overrun behavior                            */
    /* Note: On this STM32 serie, ADC trigger edge is set to value 0x0 by     */
    /*       setting of trigger source to SW start.                           */
    if(ADC_REG_InitStruct->SequencerLength != LL_ADC_REG_SEQ_SCAN_DISABLE)
 8002cce:	683b      	ldr	r3, [r7, #0]
 8002cd0:	685b      	ldr	r3, [r3, #4]
 8002cd2:	2b00      	cmp	r3, #0
 8002cd4:	d015      	beq.n	8002d02 <LL_ADC_REG_Init+0x4e>
    {
      MODIFY_REG(ADCx->CFGR,
 8002cd6:	687b      	ldr	r3, [r7, #4]
 8002cd8:	68da      	ldr	r2, [r3, #12]
 8002cda:	4b1a      	ldr	r3, [pc, #104]	; (8002d44 <LL_ADC_REG_Init+0x90>)
 8002cdc:	4013      	ands	r3, r2
 8002cde:	683a      	ldr	r2, [r7, #0]
 8002ce0:	6811      	ldr	r1, [r2, #0]
 8002ce2:	683a      	ldr	r2, [r7, #0]
 8002ce4:	6892      	ldr	r2, [r2, #8]
 8002ce6:	4311      	orrs	r1, r2
 8002ce8:	683a      	ldr	r2, [r7, #0]
 8002cea:	68d2      	ldr	r2, [r2, #12]
 8002cec:	4311      	orrs	r1, r2
 8002cee:	683a      	ldr	r2, [r7, #0]
 8002cf0:	6912      	ldr	r2, [r2, #16]
 8002cf2:	4311      	orrs	r1, r2
 8002cf4:	683a      	ldr	r2, [r7, #0]
 8002cf6:	6952      	ldr	r2, [r2, #20]
 8002cf8:	430a      	orrs	r2, r1
 8002cfa:	431a      	orrs	r2, r3
 8002cfc:	687b      	ldr	r3, [r7, #4]
 8002cfe:	60da      	str	r2, [r3, #12]
 8002d00:	e011      	b.n	8002d26 <LL_ADC_REG_Init+0x72>
                 | ADC_REG_InitStruct->Overrun
                );
    }
    else
    {
      MODIFY_REG(ADCx->CFGR,
 8002d02:	687b      	ldr	r3, [r7, #4]
 8002d04:	68da      	ldr	r2, [r3, #12]
 8002d06:	4b0f      	ldr	r3, [pc, #60]	; (8002d44 <LL_ADC_REG_Init+0x90>)
 8002d08:	4013      	ands	r3, r2
 8002d0a:	683a      	ldr	r2, [r7, #0]
 8002d0c:	6811      	ldr	r1, [r2, #0]
 8002d0e:	683a      	ldr	r2, [r7, #0]
 8002d10:	68d2      	ldr	r2, [r2, #12]
 8002d12:	4311      	orrs	r1, r2
 8002d14:	683a      	ldr	r2, [r7, #0]
 8002d16:	6912      	ldr	r2, [r2, #16]
 8002d18:	4311      	orrs	r1, r2
 8002d1a:	683a      	ldr	r2, [r7, #0]
 8002d1c:	6952      	ldr	r2, [r2, #20]
 8002d1e:	430a      	orrs	r2, r1
 8002d20:	431a      	orrs	r2, r3
 8002d22:	687b      	ldr	r3, [r7, #4]
 8002d24:	60da      	str	r2, [r3, #12]
                 | ADC_REG_InitStruct->Overrun
                );
    }
    
    /* Set ADC group regular sequencer length and scan direction */
    LL_ADC_REG_SetSequencerLength(ADCx, ADC_REG_InitStruct->SequencerLength);
 8002d26:	683b      	ldr	r3, [r7, #0]
 8002d28:	685b      	ldr	r3, [r3, #4]
 8002d2a:	4619      	mov	r1, r3
 8002d2c:	6878      	ldr	r0, [r7, #4]
 8002d2e:	f7ff ff34 	bl	8002b9a <LL_ADC_REG_SetSequencerLength>
 8002d32:	e001      	b.n	8002d38 <LL_ADC_REG_Init+0x84>
  }
  else
  {
    /* Initialization error: ADC instance is not disabled. */
    status = ERROR;
 8002d34:	2301      	movs	r3, #1
 8002d36:	73fb      	strb	r3, [r7, #15]
  }
  return status;
 8002d38:	7bfb      	ldrb	r3, [r7, #15]
}
 8002d3a:	4618      	mov	r0, r3
 8002d3c:	3710      	adds	r7, #16
 8002d3e:	46bd      	mov	sp, r7
 8002d40:	bd80      	pop	{r7, pc}
 8002d42:	bf00      	nop
 8002d44:	fff0c03c 	.word	0xfff0c03c

08002d48 <LL_ADC_INJ_Init>:
  * @retval An ErrorStatus enumeration value:
  *          - SUCCESS: ADC registers are initialized
  *          - ERROR: ADC registers are not initialized
  */
ErrorStatus LL_ADC_INJ_Init(ADC_TypeDef *ADCx, LL_ADC_INJ_InitTypeDef *ADC_INJ_InitStruct)
{
 8002d48:	b580      	push	{r7, lr}
 8002d4a:	b084      	sub	sp, #16
 8002d4c:	af00      	add	r7, sp, #0
 8002d4e:	6078      	str	r0, [r7, #4]
 8002d50:	6039      	str	r1, [r7, #0]
  ErrorStatus status = SUCCESS;
 8002d52:	2300      	movs	r3, #0
 8002d54:	73fb      	strb	r3, [r7, #15]
  }
  assert_param(IS_LL_ADC_INJ_TRIG_AUTO(ADC_INJ_InitStruct->TrigAuto));
  
  /* Note: Hardware constraint (refer to description of this function):       */
  /*       ADC instance must be disabled.                                     */
  if(LL_ADC_IsEnabled(ADCx) == 0U)
 8002d56:	6878      	ldr	r0, [r7, #4]
 8002d58:	f7ff ff32 	bl	8002bc0 <LL_ADC_IsEnabled>
 8002d5c:	4603      	mov	r3, r0
 8002d5e:	2b00      	cmp	r3, #0
 8002d60:	d126      	bne.n	8002db0 <LL_ADC_INJ_Init+0x68>
    /*    - Set ADC group injected sequencer discontinuous mode               */
    /*    - Set ADC group injected conversion trigger: independent or         */
    /*      from ADC group regular                                            */
    /* Note: On this STM32 serie, ADC trigger edge is set to value 0x0 by     */
    /*       setting of trigger source to SW start.                           */
    if(ADC_INJ_InitStruct->SequencerLength != LL_ADC_REG_SEQ_SCAN_DISABLE)
 8002d62:	683b      	ldr	r3, [r7, #0]
 8002d64:	685b      	ldr	r3, [r3, #4]
 8002d66:	2b00      	cmp	r3, #0
 8002d68:	d00c      	beq.n	8002d84 <LL_ADC_INJ_Init+0x3c>
    {
      MODIFY_REG(ADCx->CFGR,
 8002d6a:	687b      	ldr	r3, [r7, #4]
 8002d6c:	68db      	ldr	r3, [r3, #12]
 8002d6e:	f023 7204 	bic.w	r2, r3, #34603008	; 0x2100000
 8002d72:	683b      	ldr	r3, [r7, #0]
 8002d74:	6899      	ldr	r1, [r3, #8]
 8002d76:	683b      	ldr	r3, [r7, #0]
 8002d78:	68db      	ldr	r3, [r3, #12]
 8002d7a:	430b      	orrs	r3, r1
 8002d7c:	431a      	orrs	r2, r3
 8002d7e:	687b      	ldr	r3, [r7, #4]
 8002d80:	60da      	str	r2, [r3, #12]
 8002d82:	e008      	b.n	8002d96 <LL_ADC_INJ_Init+0x4e>
                 | ADC_INJ_InitStruct->TrigAuto
                );
    }
    else
    {
      MODIFY_REG(ADCx->CFGR,
 8002d84:	687b      	ldr	r3, [r7, #4]
 8002d86:	68db      	ldr	r3, [r3, #12]
 8002d88:	f023 7204 	bic.w	r2, r3, #34603008	; 0x2100000
 8002d8c:	683b      	ldr	r3, [r7, #0]
 8002d8e:	68db      	ldr	r3, [r3, #12]
 8002d90:	431a      	orrs	r2, r3
 8002d92:	687b      	ldr	r3, [r7, #4]
 8002d94:	60da      	str	r2, [r3, #12]
                   LL_ADC_REG_SEQ_DISCONT_DISABLE
                 | ADC_INJ_InitStruct->TrigAuto
                );
    }
    
    MODIFY_REG(ADCx->JSQR,
 8002d96:	687b      	ldr	r3, [r7, #4]
 8002d98:	6cdb      	ldr	r3, [r3, #76]	; 0x4c
 8002d9a:	f023 02ff 	bic.w	r2, r3, #255	; 0xff
 8002d9e:	683b      	ldr	r3, [r7, #0]
 8002da0:	6819      	ldr	r1, [r3, #0]
 8002da2:	683b      	ldr	r3, [r7, #0]
 8002da4:	685b      	ldr	r3, [r3, #4]
 8002da6:	430b      	orrs	r3, r1
 8002da8:	431a      	orrs	r2, r3
 8002daa:	687b      	ldr	r3, [r7, #4]
 8002dac:	64da      	str	r2, [r3, #76]	; 0x4c
 8002dae:	e001      	b.n	8002db4 <LL_ADC_INJ_Init+0x6c>
              );
  }
  else
  {
    /* Initialization error: ADC instance is not disabled. */
    status = ERROR;
 8002db0:	2301      	movs	r3, #1
 8002db2:	73fb      	strb	r3, [r7, #15]
  }
  return status;
 8002db4:	7bfb      	ldrb	r3, [r7, #15]
}
 8002db6:	4618      	mov	r0, r3
 8002db8:	3710      	adds	r7, #16
 8002dba:	46bd      	mov	sp, r7
 8002dbc:	bd80      	pop	{r7, pc}

08002dbe <LL_GPIO_SetPinMode>:
  *         @arg @ref LL_GPIO_MODE_ALTERNATE
  *         @arg @ref LL_GPIO_MODE_ANALOG
  * @retval None
  */
__STATIC_INLINE void LL_GPIO_SetPinMode(GPIO_TypeDef *GPIOx, uint32_t Pin, uint32_t Mode)
{
 8002dbe:	b480      	push	{r7}
 8002dc0:	b089      	sub	sp, #36	; 0x24
 8002dc2:	af00      	add	r7, sp, #0
 8002dc4:	60f8      	str	r0, [r7, #12]
 8002dc6:	60b9      	str	r1, [r7, #8]
 8002dc8:	607a      	str	r2, [r7, #4]
  MODIFY_REG(GPIOx->MODER, (GPIO_MODER_MODER0 << (POSITION_VAL(Pin) * 2U)), (Mode << (POSITION_VAL(Pin) * 2U)));
 8002dca:	68fb      	ldr	r3, [r7, #12]
 8002dcc:	681a      	ldr	r2, [r3, #0]
 8002dce:	68bb      	ldr	r3, [r7, #8]
 8002dd0:	617b      	str	r3, [r7, #20]
   __ASM volatile ("rbit %0, %1" : "=r" (result) : "r" (value) );
 8002dd2:	697b      	ldr	r3, [r7, #20]
 8002dd4:	fa93 f3a3 	rbit	r3, r3
 8002dd8:	613b      	str	r3, [r7, #16]
  return(result);
 8002dda:	693b      	ldr	r3, [r7, #16]
 8002ddc:	fab3 f383 	clz	r3, r3
 8002de0:	005b      	lsls	r3, r3, #1
 8002de2:	2103      	movs	r1, #3
 8002de4:	fa01 f303 	lsl.w	r3, r1, r3
 8002de8:	43db      	mvns	r3, r3
 8002dea:	401a      	ands	r2, r3
 8002dec:	68bb      	ldr	r3, [r7, #8]
 8002dee:	61fb      	str	r3, [r7, #28]
   __ASM volatile ("rbit %0, %1" : "=r" (result) : "r" (value) );
 8002df0:	69fb      	ldr	r3, [r7, #28]
 8002df2:	fa93 f3a3 	rbit	r3, r3
 8002df6:	61bb      	str	r3, [r7, #24]
  return(result);
 8002df8:	69bb      	ldr	r3, [r7, #24]
 8002dfa:	fab3 f383 	clz	r3, r3
 8002dfe:	005b      	lsls	r3, r3, #1
 8002e00:	6879      	ldr	r1, [r7, #4]
 8002e02:	fa01 f303 	lsl.w	r3, r1, r3
 8002e06:	431a      	orrs	r2, r3
 8002e08:	68fb      	ldr	r3, [r7, #12]
 8002e0a:	601a      	str	r2, [r3, #0]
}
 8002e0c:	bf00      	nop
 8002e0e:	3724      	adds	r7, #36	; 0x24
 8002e10:	46bd      	mov	sp, r7
 8002e12:	f85d 7b04 	ldr.w	r7, [sp], #4
 8002e16:	4770      	bx	lr

08002e18 <LL_GPIO_SetPinOutputType>:
  *         @arg @ref LL_GPIO_OUTPUT_PUSHPULL
  *         @arg @ref LL_GPIO_OUTPUT_OPENDRAIN
  * @retval None
  */
__STATIC_INLINE void LL_GPIO_SetPinOutputType(GPIO_TypeDef *GPIOx, uint32_t PinMask, uint32_t OutputType)
{
 8002e18:	b480      	push	{r7}
 8002e1a:	b085      	sub	sp, #20
 8002e1c:	af00      	add	r7, sp, #0
 8002e1e:	60f8      	str	r0, [r7, #12]
 8002e20:	60b9      	str	r1, [r7, #8]
 8002e22:	607a      	str	r2, [r7, #4]
  MODIFY_REG(GPIOx->OTYPER, PinMask, (PinMask * OutputType));
 8002e24:	68fb      	ldr	r3, [r7, #12]
 8002e26:	685a      	ldr	r2, [r3, #4]
 8002e28:	68bb      	ldr	r3, [r7, #8]
 8002e2a:	43db      	mvns	r3, r3
 8002e2c:	401a      	ands	r2, r3
 8002e2e:	68bb      	ldr	r3, [r7, #8]
 8002e30:	6879      	ldr	r1, [r7, #4]
 8002e32:	fb01 f303 	mul.w	r3, r1, r3
 8002e36:	431a      	orrs	r2, r3
 8002e38:	68fb      	ldr	r3, [r7, #12]
 8002e3a:	605a      	str	r2, [r3, #4]
}
 8002e3c:	bf00      	nop
 8002e3e:	3714      	adds	r7, #20
 8002e40:	46bd      	mov	sp, r7
 8002e42:	f85d 7b04 	ldr.w	r7, [sp], #4
 8002e46:	4770      	bx	lr

08002e48 <LL_GPIO_SetPinSpeed>:
  *         @arg @ref LL_GPIO_SPEED_FREQ_MEDIUM
  *         @arg @ref LL_GPIO_SPEED_FREQ_HIGH
  * @retval None
  */
__STATIC_INLINE void LL_GPIO_SetPinSpeed(GPIO_TypeDef *GPIOx, uint32_t Pin, uint32_t  Speed)
{
 8002e48:	b480      	push	{r7}
 8002e4a:	b089      	sub	sp, #36	; 0x24
 8002e4c:	af00      	add	r7, sp, #0
 8002e4e:	60f8      	str	r0, [r7, #12]
 8002e50:	60b9      	str	r1, [r7, #8]
 8002e52:	607a      	str	r2, [r7, #4]
  MODIFY_REG(GPIOx->OSPEEDR, (GPIO_OSPEEDER_OSPEEDR0 << (POSITION_VAL(Pin) * 2U)),
 8002e54:	68fb      	ldr	r3, [r7, #12]
 8002e56:	689a      	ldr	r2, [r3, #8]
 8002e58:	68bb      	ldr	r3, [r7, #8]
 8002e5a:	617b      	str	r3, [r7, #20]
   __ASM volatile ("rbit %0, %1" : "=r" (result) : "r" (value) );
 8002e5c:	697b      	ldr	r3, [r7, #20]
 8002e5e:	fa93 f3a3 	rbit	r3, r3
 8002e62:	613b      	str	r3, [r7, #16]
  return(result);
 8002e64:	693b      	ldr	r3, [r7, #16]
 8002e66:	fab3 f383 	clz	r3, r3
 8002e6a:	005b      	lsls	r3, r3, #1
 8002e6c:	2103      	movs	r1, #3
 8002e6e:	fa01 f303 	lsl.w	r3, r1, r3
 8002e72:	43db      	mvns	r3, r3
 8002e74:	401a      	ands	r2, r3
 8002e76:	68bb      	ldr	r3, [r7, #8]
 8002e78:	61fb      	str	r3, [r7, #28]
   __ASM volatile ("rbit %0, %1" : "=r" (result) : "r" (value) );
 8002e7a:	69fb      	ldr	r3, [r7, #28]
 8002e7c:	fa93 f3a3 	rbit	r3, r3
 8002e80:	61bb      	str	r3, [r7, #24]
  return(result);
 8002e82:	69bb      	ldr	r3, [r7, #24]
 8002e84:	fab3 f383 	clz	r3, r3
 8002e88:	005b      	lsls	r3, r3, #1
 8002e8a:	6879      	ldr	r1, [r7, #4]
 8002e8c:	fa01 f303 	lsl.w	r3, r1, r3
 8002e90:	431a      	orrs	r2, r3
 8002e92:	68fb      	ldr	r3, [r7, #12]
 8002e94:	609a      	str	r2, [r3, #8]
             (Speed << (POSITION_VAL(Pin) * 2U)));
}
 8002e96:	bf00      	nop
 8002e98:	3724      	adds	r7, #36	; 0x24
 8002e9a:	46bd      	mov	sp, r7
 8002e9c:	f85d 7b04 	ldr.w	r7, [sp], #4
 8002ea0:	4770      	bx	lr

08002ea2 <LL_GPIO_SetPinPull>:
  *         @arg @ref LL_GPIO_PULL_UP
  *         @arg @ref LL_GPIO_PULL_DOWN
  * @retval None
  */
__STATIC_INLINE void LL_GPIO_SetPinPull(GPIO_TypeDef *GPIOx, uint32_t Pin, uint32_t Pull)
{
 8002ea2:	b480      	push	{r7}
 8002ea4:	b089      	sub	sp, #36	; 0x24
 8002ea6:	af00      	add	r7, sp, #0
 8002ea8:	60f8      	str	r0, [r7, #12]
 8002eaa:	60b9      	str	r1, [r7, #8]
 8002eac:	607a      	str	r2, [r7, #4]
  MODIFY_REG(GPIOx->PUPDR, (GPIO_PUPDR_PUPDR0 << (POSITION_VAL(Pin) * 2U)), (Pull << (POSITION_VAL(Pin) * 2U)));
 8002eae:	68fb      	ldr	r3, [r7, #12]
 8002eb0:	68da      	ldr	r2, [r3, #12]
 8002eb2:	68bb      	ldr	r3, [r7, #8]
 8002eb4:	617b      	str	r3, [r7, #20]
   __ASM volatile ("rbit %0, %1" : "=r" (result) : "r" (value) );
 8002eb6:	697b      	ldr	r3, [r7, #20]
 8002eb8:	fa93 f3a3 	rbit	r3, r3
 8002ebc:	613b      	str	r3, [r7, #16]
  return(result);
 8002ebe:	693b      	ldr	r3, [r7, #16]
 8002ec0:	fab3 f383 	clz	r3, r3
 8002ec4:	005b      	lsls	r3, r3, #1
 8002ec6:	2103      	movs	r1, #3
 8002ec8:	fa01 f303 	lsl.w	r3, r1, r3
 8002ecc:	43db      	mvns	r3, r3
 8002ece:	401a      	ands	r2, r3
 8002ed0:	68bb      	ldr	r3, [r7, #8]
 8002ed2:	61fb      	str	r3, [r7, #28]
   __ASM volatile ("rbit %0, %1" : "=r" (result) : "r" (value) );
 8002ed4:	69fb      	ldr	r3, [r7, #28]
 8002ed6:	fa93 f3a3 	rbit	r3, r3
 8002eda:	61bb      	str	r3, [r7, #24]
  return(result);
 8002edc:	69bb      	ldr	r3, [r7, #24]
 8002ede:	fab3 f383 	clz	r3, r3
 8002ee2:	005b      	lsls	r3, r3, #1
 8002ee4:	6879      	ldr	r1, [r7, #4]
 8002ee6:	fa01 f303 	lsl.w	r3, r1, r3
 8002eea:	431a      	orrs	r2, r3
 8002eec:	68fb      	ldr	r3, [r7, #12]
 8002eee:	60da      	str	r2, [r3, #12]
}
 8002ef0:	bf00      	nop
 8002ef2:	3724      	adds	r7, #36	; 0x24
 8002ef4:	46bd      	mov	sp, r7
 8002ef6:	f85d 7b04 	ldr.w	r7, [sp], #4
 8002efa:	4770      	bx	lr

08002efc <LL_GPIO_SetAFPin_0_7>:
  *         @arg @ref LL_GPIO_AF_14
  *         @arg @ref LL_GPIO_AF_15
  * @retval None
  */
__STATIC_INLINE void LL_GPIO_SetAFPin_0_7(GPIO_TypeDef *GPIOx, uint32_t Pin, uint32_t Alternate)
{
 8002efc:	b480      	push	{r7}
 8002efe:	b089      	sub	sp, #36	; 0x24
 8002f00:	af00      	add	r7, sp, #0
 8002f02:	60f8      	str	r0, [r7, #12]
 8002f04:	60b9      	str	r1, [r7, #8]
 8002f06:	607a      	str	r2, [r7, #4]
  MODIFY_REG(GPIOx->AFR[0], (GPIO_AFRL_AFRL0 << (POSITION_VAL(Pin) * 4U)),
 8002f08:	68fb      	ldr	r3, [r7, #12]
 8002f0a:	6a1a      	ldr	r2, [r3, #32]
 8002f0c:	68bb      	ldr	r3, [r7, #8]
 8002f0e:	617b      	str	r3, [r7, #20]
   __ASM volatile ("rbit %0, %1" : "=r" (result) : "r" (value) );
 8002f10:	697b      	ldr	r3, [r7, #20]
 8002f12:	fa93 f3a3 	rbit	r3, r3
 8002f16:	613b      	str	r3, [r7, #16]
  return(result);
 8002f18:	693b      	ldr	r3, [r7, #16]
 8002f1a:	fab3 f383 	clz	r3, r3
 8002f1e:	009b      	lsls	r3, r3, #2
 8002f20:	210f      	movs	r1, #15
 8002f22:	fa01 f303 	lsl.w	r3, r1, r3
 8002f26:	43db      	mvns	r3, r3
 8002f28:	401a      	ands	r2, r3
 8002f2a:	68bb      	ldr	r3, [r7, #8]
 8002f2c:	61fb      	str	r3, [r7, #28]
   __ASM volatile ("rbit %0, %1" : "=r" (result) : "r" (value) );
 8002f2e:	69fb      	ldr	r3, [r7, #28]
 8002f30:	fa93 f3a3 	rbit	r3, r3
 8002f34:	61bb      	str	r3, [r7, #24]
  return(result);
 8002f36:	69bb      	ldr	r3, [r7, #24]
 8002f38:	fab3 f383 	clz	r3, r3
 8002f3c:	009b      	lsls	r3, r3, #2
 8002f3e:	6879      	ldr	r1, [r7, #4]
 8002f40:	fa01 f303 	lsl.w	r3, r1, r3
 8002f44:	431a      	orrs	r2, r3
 8002f46:	68fb      	ldr	r3, [r7, #12]
 8002f48:	621a      	str	r2, [r3, #32]
             (Alternate << (POSITION_VAL(Pin) * 4U)));
}
 8002f4a:	bf00      	nop
 8002f4c:	3724      	adds	r7, #36	; 0x24
 8002f4e:	46bd      	mov	sp, r7
 8002f50:	f85d 7b04 	ldr.w	r7, [sp], #4
 8002f54:	4770      	bx	lr

08002f56 <LL_GPIO_SetAFPin_8_15>:
  *         @arg @ref LL_GPIO_AF_14
  *         @arg @ref LL_GPIO_AF_15
  * @retval None
  */
__STATIC_INLINE void LL_GPIO_SetAFPin_8_15(GPIO_TypeDef *GPIOx, uint32_t Pin, uint32_t Alternate)
{
 8002f56:	b480      	push	{r7}
 8002f58:	b089      	sub	sp, #36	; 0x24
 8002f5a:	af00      	add	r7, sp, #0
 8002f5c:	60f8      	str	r0, [r7, #12]
 8002f5e:	60b9      	str	r1, [r7, #8]
 8002f60:	607a      	str	r2, [r7, #4]
  MODIFY_REG(GPIOx->AFR[1], (GPIO_AFRH_AFRH0 << (POSITION_VAL(Pin >> 8U) * 4U)),
 8002f62:	68fb      	ldr	r3, [r7, #12]
 8002f64:	6a5a      	ldr	r2, [r3, #36]	; 0x24
 8002f66:	68bb      	ldr	r3, [r7, #8]
 8002f68:	0a1b      	lsrs	r3, r3, #8
 8002f6a:	617b      	str	r3, [r7, #20]
   __ASM volatile ("rbit %0, %1" : "=r" (result) : "r" (value) );
 8002f6c:	697b      	ldr	r3, [r7, #20]
 8002f6e:	fa93 f3a3 	rbit	r3, r3
 8002f72:	613b      	str	r3, [r7, #16]
  return(result);
 8002f74:	693b      	ldr	r3, [r7, #16]
 8002f76:	fab3 f383 	clz	r3, r3
 8002f7a:	009b      	lsls	r3, r3, #2
 8002f7c:	210f      	movs	r1, #15
 8002f7e:	fa01 f303 	lsl.w	r3, r1, r3
 8002f82:	43db      	mvns	r3, r3
 8002f84:	401a      	ands	r2, r3
 8002f86:	68bb      	ldr	r3, [r7, #8]
 8002f88:	0a1b      	lsrs	r3, r3, #8
 8002f8a:	61fb      	str	r3, [r7, #28]
   __ASM volatile ("rbit %0, %1" : "=r" (result) : "r" (value) );
 8002f8c:	69fb      	ldr	r3, [r7, #28]
 8002f8e:	fa93 f3a3 	rbit	r3, r3
 8002f92:	61bb      	str	r3, [r7, #24]
  return(result);
 8002f94:	69bb      	ldr	r3, [r7, #24]
 8002f96:	fab3 f383 	clz	r3, r3
 8002f9a:	009b      	lsls	r3, r3, #2
 8002f9c:	6879      	ldr	r1, [r7, #4]
 8002f9e:	fa01 f303 	lsl.w	r3, r1, r3
 8002fa2:	431a      	orrs	r2, r3
 8002fa4:	68fb      	ldr	r3, [r7, #12]
 8002fa6:	625a      	str	r2, [r3, #36]	; 0x24
             (Alternate << (POSITION_VAL(Pin >> 8U) * 4U)));
}
 8002fa8:	bf00      	nop
 8002faa:	3724      	adds	r7, #36	; 0x24
 8002fac:	46bd      	mov	sp, r7
 8002fae:	f85d 7b04 	ldr.w	r7, [sp], #4
 8002fb2:	4770      	bx	lr

08002fb4 <LL_GPIO_Init>:
  * @retval An ErrorStatus enumeration value:
  *          - SUCCESS: GPIO registers are initialized according to GPIO_InitStruct content
  *          - ERROR:   Not applicable
  */
ErrorStatus LL_GPIO_Init(GPIO_TypeDef *GPIOx, LL_GPIO_InitTypeDef *GPIO_InitStruct)
{
 8002fb4:	b580      	push	{r7, lr}
 8002fb6:	b088      	sub	sp, #32
 8002fb8:	af00      	add	r7, sp, #0
 8002fba:	6078      	str	r0, [r7, #4]
 8002fbc:	6039      	str	r1, [r7, #0]
  uint32_t pinpos     = 0x00000000U;
 8002fbe:	2300      	movs	r3, #0
 8002fc0:	61fb      	str	r3, [r7, #28]
  uint32_t currentpin = 0x00000000U;
 8002fc2:	2300      	movs	r3, #0
 8002fc4:	61bb      	str	r3, [r7, #24]
  assert_param(IS_LL_GPIO_MODE(GPIO_InitStruct->Mode));
  assert_param(IS_LL_GPIO_PULL(GPIO_InitStruct->Pull));

  /* ------------------------- Configure the port pins ---------------- */
  /* Initialize  pinpos on first pin set */
  pinpos = POSITION_VAL(GPIO_InitStruct->Pin);
 8002fc6:	683b      	ldr	r3, [r7, #0]
 8002fc8:	681b      	ldr	r3, [r3, #0]
 8002fca:	617b      	str	r3, [r7, #20]
   __ASM volatile ("rbit %0, %1" : "=r" (result) : "r" (value) );
 8002fcc:	697b      	ldr	r3, [r7, #20]
 8002fce:	fa93 f3a3 	rbit	r3, r3
 8002fd2:	613b      	str	r3, [r7, #16]
  return(result);
 8002fd4:	693b      	ldr	r3, [r7, #16]
 8002fd6:	fab3 f383 	clz	r3, r3
 8002fda:	61fb      	str	r3, [r7, #28]

  /* Configure the port pins */
  while (((GPIO_InitStruct->Pin) >> pinpos) != 0x00000000U)
 8002fdc:	e048      	b.n	8003070 <LL_GPIO_Init+0xbc>
  {
    /* Get current io position */
    currentpin = (GPIO_InitStruct->Pin) & (0x00000001U << pinpos);
 8002fde:	683b      	ldr	r3, [r7, #0]
 8002fe0:	681a      	ldr	r2, [r3, #0]
 8002fe2:	2101      	movs	r1, #1
 8002fe4:	69fb      	ldr	r3, [r7, #28]
 8002fe6:	fa01 f303 	lsl.w	r3, r1, r3
 8002fea:	4013      	ands	r3, r2
 8002fec:	61bb      	str	r3, [r7, #24]

    if (currentpin)
 8002fee:	69bb      	ldr	r3, [r7, #24]
 8002ff0:	2b00      	cmp	r3, #0
 8002ff2:	d03a      	beq.n	800306a <LL_GPIO_Init+0xb6>
    {
      /* Pin Mode configuration */
      LL_GPIO_SetPinMode(GPIOx, currentpin, GPIO_InitStruct->Mode);
 8002ff4:	683b      	ldr	r3, [r7, #0]
 8002ff6:	685b      	ldr	r3, [r3, #4]
 8002ff8:	461a      	mov	r2, r3
 8002ffa:	69b9      	ldr	r1, [r7, #24]
 8002ffc:	6878      	ldr	r0, [r7, #4]
 8002ffe:	f7ff fede 	bl	8002dbe <LL_GPIO_SetPinMode>

      if ((GPIO_InitStruct->Mode == LL_GPIO_MODE_OUTPUT) || (GPIO_InitStruct->Mode == LL_GPIO_MODE_ALTERNATE))
 8003002:	683b      	ldr	r3, [r7, #0]
 8003004:	685b      	ldr	r3, [r3, #4]
 8003006:	2b01      	cmp	r3, #1
 8003008:	d003      	beq.n	8003012 <LL_GPIO_Init+0x5e>
 800300a:	683b      	ldr	r3, [r7, #0]
 800300c:	685b      	ldr	r3, [r3, #4]
 800300e:	2b02      	cmp	r3, #2
 8003010:	d106      	bne.n	8003020 <LL_GPIO_Init+0x6c>
      {
        /* Check Speed mode parameters */
        assert_param(IS_LL_GPIO_SPEED(GPIO_InitStruct->Speed));

        /* Speed mode configuration */
        LL_GPIO_SetPinSpeed(GPIOx, currentpin, GPIO_InitStruct->Speed);
 8003012:	683b      	ldr	r3, [r7, #0]
 8003014:	689b      	ldr	r3, [r3, #8]
 8003016:	461a      	mov	r2, r3
 8003018:	69b9      	ldr	r1, [r7, #24]
 800301a:	6878      	ldr	r0, [r7, #4]
 800301c:	f7ff ff14 	bl	8002e48 <LL_GPIO_SetPinSpeed>
      }

      /* Pull-up Pull down resistor configuration*/
      LL_GPIO_SetPinPull(GPIOx, currentpin, GPIO_InitStruct->Pull);
 8003020:	683b      	ldr	r3, [r7, #0]
 8003022:	691b      	ldr	r3, [r3, #16]
 8003024:	461a      	mov	r2, r3
 8003026:	69b9      	ldr	r1, [r7, #24]
 8003028:	6878      	ldr	r0, [r7, #4]
 800302a:	f7ff ff3a 	bl	8002ea2 <LL_GPIO_SetPinPull>

      if (GPIO_InitStruct->Mode == LL_GPIO_MODE_ALTERNATE)
 800302e:	683b      	ldr	r3, [r7, #0]
 8003030:	685b      	ldr	r3, [r3, #4]
 8003032:	2b02      	cmp	r3, #2
 8003034:	d119      	bne.n	800306a <LL_GPIO_Init+0xb6>
 8003036:	69bb      	ldr	r3, [r7, #24]
 8003038:	60fb      	str	r3, [r7, #12]
   __ASM volatile ("rbit %0, %1" : "=r" (result) : "r" (value) );
 800303a:	68fb      	ldr	r3, [r7, #12]
 800303c:	fa93 f3a3 	rbit	r3, r3
 8003040:	60bb      	str	r3, [r7, #8]
  return(result);
 8003042:	68bb      	ldr	r3, [r7, #8]
      {
        /* Check Alternate parameter */
        assert_param(IS_LL_GPIO_ALTERNATE(GPIO_InitStruct->Alternate));

        /* Speed mode configuration */
        if (POSITION_VAL(currentpin) < 0x00000008U)
 8003044:	fab3 f383 	clz	r3, r3
 8003048:	2b07      	cmp	r3, #7
 800304a:	d807      	bhi.n	800305c <LL_GPIO_Init+0xa8>
        {
          LL_GPIO_SetAFPin_0_7(GPIOx, currentpin, GPIO_InitStruct->Alternate);
 800304c:	683b      	ldr	r3, [r7, #0]
 800304e:	695b      	ldr	r3, [r3, #20]
 8003050:	461a      	mov	r2, r3
 8003052:	69b9      	ldr	r1, [r7, #24]
 8003054:	6878      	ldr	r0, [r7, #4]
 8003056:	f7ff ff51 	bl	8002efc <LL_GPIO_SetAFPin_0_7>
 800305a:	e006      	b.n	800306a <LL_GPIO_Init+0xb6>
        }
        else
        {
          LL_GPIO_SetAFPin_8_15(GPIOx, currentpin, GPIO_InitStruct->Alternate);
 800305c:	683b      	ldr	r3, [r7, #0]
 800305e:	695b      	ldr	r3, [r3, #20]
 8003060:	461a      	mov	r2, r3
 8003062:	69b9      	ldr	r1, [r7, #24]
 8003064:	6878      	ldr	r0, [r7, #4]
 8003066:	f7ff ff76 	bl	8002f56 <LL_GPIO_SetAFPin_8_15>
        }
      }
    }
    pinpos++;
 800306a:	69fb      	ldr	r3, [r7, #28]
 800306c:	3301      	adds	r3, #1
 800306e:	61fb      	str	r3, [r7, #28]
  while (((GPIO_InitStruct->Pin) >> pinpos) != 0x00000000U)
 8003070:	683b      	ldr	r3, [r7, #0]
 8003072:	681a      	ldr	r2, [r3, #0]
 8003074:	69fb      	ldr	r3, [r7, #28]
 8003076:	fa22 f303 	lsr.w	r3, r2, r3
 800307a:	2b00      	cmp	r3, #0
 800307c:	d1af      	bne.n	8002fde <LL_GPIO_Init+0x2a>
  }

  if ((GPIO_InitStruct->Mode == LL_GPIO_MODE_OUTPUT) || (GPIO_InitStruct->Mode == LL_GPIO_MODE_ALTERNATE))
 800307e:	683b      	ldr	r3, [r7, #0]
 8003080:	685b      	ldr	r3, [r3, #4]
 8003082:	2b01      	cmp	r3, #1
 8003084:	d003      	beq.n	800308e <LL_GPIO_Init+0xda>
 8003086:	683b      	ldr	r3, [r7, #0]
 8003088:	685b      	ldr	r3, [r3, #4]
 800308a:	2b02      	cmp	r3, #2
 800308c:	d107      	bne.n	800309e <LL_GPIO_Init+0xea>
  {
    /* Check Output mode parameters */
    assert_param(IS_LL_GPIO_OUTPUT_TYPE(GPIO_InitStruct->OutputType));

    /* Output mode configuration*/
    LL_GPIO_SetPinOutputType(GPIOx, GPIO_InitStruct->Pin, GPIO_InitStruct->OutputType);
 800308e:	683b      	ldr	r3, [r7, #0]
 8003090:	6819      	ldr	r1, [r3, #0]
 8003092:	683b      	ldr	r3, [r7, #0]
 8003094:	68db      	ldr	r3, [r3, #12]
 8003096:	461a      	mov	r2, r3
 8003098:	6878      	ldr	r0, [r7, #4]
 800309a:	f7ff febd 	bl	8002e18 <LL_GPIO_SetPinOutputType>

  }
  return (SUCCESS);
 800309e:	2300      	movs	r3, #0
}
 80030a0:	4618      	mov	r0, r3
 80030a2:	3720      	adds	r7, #32
 80030a4:	46bd      	mov	sp, r7
 80030a6:	bd80      	pop	{r7, pc}

080030a8 <LL_TIM_SetPrescaler>:
  * @param  TIMx Timer instance
  * @param  Prescaler between Min_Data=0 and Max_Data=65535
  * @retval None
  */
__STATIC_INLINE void LL_TIM_SetPrescaler(TIM_TypeDef *TIMx, uint32_t Prescaler)
{
 80030a8:	b480      	push	{r7}
 80030aa:	b083      	sub	sp, #12
 80030ac:	af00      	add	r7, sp, #0
 80030ae:	6078      	str	r0, [r7, #4]
 80030b0:	6039      	str	r1, [r7, #0]
  WRITE_REG(TIMx->PSC, Prescaler);
 80030b2:	687b      	ldr	r3, [r7, #4]
 80030b4:	683a      	ldr	r2, [r7, #0]
 80030b6:	629a      	str	r2, [r3, #40]	; 0x28
}
 80030b8:	bf00      	nop
 80030ba:	370c      	adds	r7, #12
 80030bc:	46bd      	mov	sp, r7
 80030be:	f85d 7b04 	ldr.w	r7, [sp], #4
 80030c2:	4770      	bx	lr

080030c4 <LL_TIM_SetAutoReload>:
  * @param  TIMx Timer instance
  * @param  AutoReload between Min_Data=0 and Max_Data=65535
  * @retval None
  */
__STATIC_INLINE void LL_TIM_SetAutoReload(TIM_TypeDef *TIMx, uint32_t AutoReload)
{
 80030c4:	b480      	push	{r7}
 80030c6:	b083      	sub	sp, #12
 80030c8:	af00      	add	r7, sp, #0
 80030ca:	6078      	str	r0, [r7, #4]
 80030cc:	6039      	str	r1, [r7, #0]
  WRITE_REG(TIMx->ARR, AutoReload);
 80030ce:	687b      	ldr	r3, [r7, #4]
 80030d0:	683a      	ldr	r2, [r7, #0]
 80030d2:	62da      	str	r2, [r3, #44]	; 0x2c
}
 80030d4:	bf00      	nop
 80030d6:	370c      	adds	r7, #12
 80030d8:	46bd      	mov	sp, r7
 80030da:	f85d 7b04 	ldr.w	r7, [sp], #4
 80030de:	4770      	bx	lr

080030e0 <LL_TIM_SetRepetitionCounter>:
  * @param  TIMx Timer instance
  * @param  RepetitionCounter between Min_Data=0 and Max_Data=255
  * @retval None
  */
__STATIC_INLINE void LL_TIM_SetRepetitionCounter(TIM_TypeDef *TIMx, uint32_t RepetitionCounter)
{
 80030e0:	b480      	push	{r7}
 80030e2:	b083      	sub	sp, #12
 80030e4:	af00      	add	r7, sp, #0
 80030e6:	6078      	str	r0, [r7, #4]
 80030e8:	6039      	str	r1, [r7, #0]
  WRITE_REG(TIMx->RCR, RepetitionCounter);
 80030ea:	687b      	ldr	r3, [r7, #4]
 80030ec:	683a      	ldr	r2, [r7, #0]
 80030ee:	631a      	str	r2, [r3, #48]	; 0x30
}
 80030f0:	bf00      	nop
 80030f2:	370c      	adds	r7, #12
 80030f4:	46bd      	mov	sp, r7
 80030f6:	f85d 7b04 	ldr.w	r7, [sp], #4
 80030fa:	4770      	bx	lr

080030fc <LL_TIM_OC_SetCompareCH1>:
  * @param  TIMx Timer instance
  * @param  CompareValue between Min_Data=0 and Max_Data=65535
  * @retval None
  */
__STATIC_INLINE void LL_TIM_OC_SetCompareCH1(TIM_TypeDef *TIMx, uint32_t CompareValue)
{
 80030fc:	b480      	push	{r7}
 80030fe:	b083      	sub	sp, #12
 8003100:	af00      	add	r7, sp, #0
 8003102:	6078      	str	r0, [r7, #4]
 8003104:	6039      	str	r1, [r7, #0]
  WRITE_REG(TIMx->CCR1, CompareValue);
 8003106:	687b      	ldr	r3, [r7, #4]
 8003108:	683a      	ldr	r2, [r7, #0]
 800310a:	635a      	str	r2, [r3, #52]	; 0x34
}
 800310c:	bf00      	nop
 800310e:	370c      	adds	r7, #12
 8003110:	46bd      	mov	sp, r7
 8003112:	f85d 7b04 	ldr.w	r7, [sp], #4
 8003116:	4770      	bx	lr

08003118 <LL_TIM_OC_SetCompareCH2>:
  * @param  TIMx Timer instance
  * @param  CompareValue between Min_Data=0 and Max_Data=65535
  * @retval None
  */
__STATIC_INLINE void LL_TIM_OC_SetCompareCH2(TIM_TypeDef *TIMx, uint32_t CompareValue)
{
 8003118:	b480      	push	{r7}
 800311a:	b083      	sub	sp, #12
 800311c:	af00      	add	r7, sp, #0
 800311e:	6078      	str	r0, [r7, #4]
 8003120:	6039      	str	r1, [r7, #0]
  WRITE_REG(TIMx->CCR2, CompareValue);
 8003122:	687b      	ldr	r3, [r7, #4]
 8003124:	683a      	ldr	r2, [r7, #0]
 8003126:	639a      	str	r2, [r3, #56]	; 0x38
}
 8003128:	bf00      	nop
 800312a:	370c      	adds	r7, #12
 800312c:	46bd      	mov	sp, r7
 800312e:	f85d 7b04 	ldr.w	r7, [sp], #4
 8003132:	4770      	bx	lr

08003134 <LL_TIM_OC_SetCompareCH3>:
  * @param  TIMx Timer instance
  * @param  CompareValue between Min_Data=0 and Max_Data=65535
  * @retval None
  */
__STATIC_INLINE void LL_TIM_OC_SetCompareCH3(TIM_TypeDef *TIMx, uint32_t CompareValue)
{
 8003134:	b480      	push	{r7}
 8003136:	b083      	sub	sp, #12
 8003138:	af00      	add	r7, sp, #0
 800313a:	6078      	str	r0, [r7, #4]
 800313c:	6039      	str	r1, [r7, #0]
  WRITE_REG(TIMx->CCR3, CompareValue);
 800313e:	687b      	ldr	r3, [r7, #4]
 8003140:	683a      	ldr	r2, [r7, #0]
 8003142:	63da      	str	r2, [r3, #60]	; 0x3c
}
 8003144:	bf00      	nop
 8003146:	370c      	adds	r7, #12
 8003148:	46bd      	mov	sp, r7
 800314a:	f85d 7b04 	ldr.w	r7, [sp], #4
 800314e:	4770      	bx	lr

08003150 <LL_TIM_OC_SetCompareCH4>:
  * @param  TIMx Timer instance
  * @param  CompareValue between Min_Data=0 and Max_Data=65535
  * @retval None
  */
__STATIC_INLINE void LL_TIM_OC_SetCompareCH4(TIM_TypeDef *TIMx, uint32_t CompareValue)
{
 8003150:	b480      	push	{r7}
 8003152:	b083      	sub	sp, #12
 8003154:	af00      	add	r7, sp, #0
 8003156:	6078      	str	r0, [r7, #4]
 8003158:	6039      	str	r1, [r7, #0]
  WRITE_REG(TIMx->CCR4, CompareValue);
 800315a:	687b      	ldr	r3, [r7, #4]
 800315c:	683a      	ldr	r2, [r7, #0]
 800315e:	641a      	str	r2, [r3, #64]	; 0x40
}
 8003160:	bf00      	nop
 8003162:	370c      	adds	r7, #12
 8003164:	46bd      	mov	sp, r7
 8003166:	f85d 7b04 	ldr.w	r7, [sp], #4
 800316a:	4770      	bx	lr

0800316c <LL_TIM_OC_SetCompareCH5>:
  * @param  CompareValue between Min_Data=0 and Max_Data=65535
  * @note   CH5 channel is not available for all F3 devices
  * @retval None
  */
__STATIC_INLINE void LL_TIM_OC_SetCompareCH5(TIM_TypeDef *TIMx, uint32_t CompareValue)
{
 800316c:	b480      	push	{r7}
 800316e:	b083      	sub	sp, #12
 8003170:	af00      	add	r7, sp, #0
 8003172:	6078      	str	r0, [r7, #4]
 8003174:	6039      	str	r1, [r7, #0]
  WRITE_REG(TIMx->CCR5, CompareValue);
 8003176:	687b      	ldr	r3, [r7, #4]
 8003178:	683a      	ldr	r2, [r7, #0]
 800317a:	659a      	str	r2, [r3, #88]	; 0x58
}
 800317c:	bf00      	nop
 800317e:	370c      	adds	r7, #12
 8003180:	46bd      	mov	sp, r7
 8003182:	f85d 7b04 	ldr.w	r7, [sp], #4
 8003186:	4770      	bx	lr

08003188 <LL_TIM_OC_SetCompareCH6>:
  * @param  CompareValue between Min_Data=0 and Max_Data=65535
  * @note   CH6 channel is not available for all F3 devices
  * @retval None
  */
__STATIC_INLINE void LL_TIM_OC_SetCompareCH6(TIM_TypeDef *TIMx, uint32_t CompareValue)
{
 8003188:	b480      	push	{r7}
 800318a:	b083      	sub	sp, #12
 800318c:	af00      	add	r7, sp, #0
 800318e:	6078      	str	r0, [r7, #4]
 8003190:	6039      	str	r1, [r7, #0]
  WRITE_REG(TIMx->CCR6, CompareValue);
 8003192:	687b      	ldr	r3, [r7, #4]
 8003194:	683a      	ldr	r2, [r7, #0]
 8003196:	65da      	str	r2, [r3, #92]	; 0x5c
}
 8003198:	bf00      	nop
 800319a:	370c      	adds	r7, #12
 800319c:	46bd      	mov	sp, r7
 800319e:	f85d 7b04 	ldr.w	r7, [sp], #4
 80031a2:	4770      	bx	lr

080031a4 <LL_TIM_GenerateEvent_UPDATE>:
  * @rmtoll EGR          UG            LL_TIM_GenerateEvent_UPDATE
  * @param  TIMx Timer instance
  * @retval None
  */
__STATIC_INLINE void LL_TIM_GenerateEvent_UPDATE(TIM_TypeDef *TIMx)
{
 80031a4:	b480      	push	{r7}
 80031a6:	b083      	sub	sp, #12
 80031a8:	af00      	add	r7, sp, #0
 80031aa:	6078      	str	r0, [r7, #4]
  SET_BIT(TIMx->EGR, TIM_EGR_UG);
 80031ac:	687b      	ldr	r3, [r7, #4]
 80031ae:	695b      	ldr	r3, [r3, #20]
 80031b0:	f043 0201 	orr.w	r2, r3, #1
 80031b4:	687b      	ldr	r3, [r7, #4]
 80031b6:	615a      	str	r2, [r3, #20]
}
 80031b8:	bf00      	nop
 80031ba:	370c      	adds	r7, #12
 80031bc:	46bd      	mov	sp, r7
 80031be:	f85d 7b04 	ldr.w	r7, [sp], #4
 80031c2:	4770      	bx	lr

080031c4 <LL_TIM_Init>:
  * @retval An ErrorStatus enumeration value:
  *          - SUCCESS: TIMx registers are de-initialized
  *          - ERROR: not applicable
  */
ErrorStatus LL_TIM_Init(TIM_TypeDef *TIMx, LL_TIM_InitTypeDef *TIM_InitStruct)
{
 80031c4:	b580      	push	{r7, lr}
 80031c6:	b084      	sub	sp, #16
 80031c8:	af00      	add	r7, sp, #0
 80031ca:	6078      	str	r0, [r7, #4]
 80031cc:	6039      	str	r1, [r7, #0]
  uint32_t tmpcr1 = 0U;
 80031ce:	2300      	movs	r3, #0
 80031d0:	60fb      	str	r3, [r7, #12]
  /* Check the parameters */
  assert_param(IS_TIM_INSTANCE(TIMx));
  assert_param(IS_LL_TIM_COUNTERMODE(TIM_InitStruct->CounterMode));
  assert_param(IS_LL_TIM_CLOCKDIVISION(TIM_InitStruct->ClockDivision));

  tmpcr1 = LL_TIM_ReadReg(TIMx, CR1);
 80031d2:	687b      	ldr	r3, [r7, #4]
 80031d4:	681b      	ldr	r3, [r3, #0]
 80031d6:	60fb      	str	r3, [r7, #12]

  if (IS_TIM_COUNTER_MODE_SELECT_INSTANCE(TIMx))
 80031d8:	687b      	ldr	r3, [r7, #4]
 80031da:	4a2f      	ldr	r2, [pc, #188]	; (8003298 <LL_TIM_Init+0xd4>)
 80031dc:	4293      	cmp	r3, r2
 80031de:	d007      	beq.n	80031f0 <LL_TIM_Init+0x2c>
 80031e0:	687b      	ldr	r3, [r7, #4]
 80031e2:	f1b3 4f80 	cmp.w	r3, #1073741824	; 0x40000000
 80031e6:	d003      	beq.n	80031f0 <LL_TIM_Init+0x2c>
 80031e8:	687b      	ldr	r3, [r7, #4]
 80031ea:	4a2c      	ldr	r2, [pc, #176]	; (800329c <LL_TIM_Init+0xd8>)
 80031ec:	4293      	cmp	r3, r2
 80031ee:	d106      	bne.n	80031fe <LL_TIM_Init+0x3a>
  {
    /* Select the Counter Mode */
    MODIFY_REG(tmpcr1, (TIM_CR1_DIR | TIM_CR1_CMS), TIM_InitStruct->CounterMode);
 80031f0:	68fb      	ldr	r3, [r7, #12]
 80031f2:	f023 0270 	bic.w	r2, r3, #112	; 0x70
 80031f6:	683b      	ldr	r3, [r7, #0]
 80031f8:	685b      	ldr	r3, [r3, #4]
 80031fa:	4313      	orrs	r3, r2
 80031fc:	60fb      	str	r3, [r7, #12]
  }

  if (IS_TIM_CLOCK_DIVISION_INSTANCE(TIMx))
 80031fe:	687b      	ldr	r3, [r7, #4]
 8003200:	4a25      	ldr	r2, [pc, #148]	; (8003298 <LL_TIM_Init+0xd4>)
 8003202:	4293      	cmp	r3, r2
 8003204:	d013      	beq.n	800322e <LL_TIM_Init+0x6a>
 8003206:	687b      	ldr	r3, [r7, #4]
 8003208:	f1b3 4f80 	cmp.w	r3, #1073741824	; 0x40000000
 800320c:	d00f      	beq.n	800322e <LL_TIM_Init+0x6a>
 800320e:	687b      	ldr	r3, [r7, #4]
 8003210:	4a22      	ldr	r2, [pc, #136]	; (800329c <LL_TIM_Init+0xd8>)
 8003212:	4293      	cmp	r3, r2
 8003214:	d00b      	beq.n	800322e <LL_TIM_Init+0x6a>
 8003216:	687b      	ldr	r3, [r7, #4]
 8003218:	4a21      	ldr	r2, [pc, #132]	; (80032a0 <LL_TIM_Init+0xdc>)
 800321a:	4293      	cmp	r3, r2
 800321c:	d007      	beq.n	800322e <LL_TIM_Init+0x6a>
 800321e:	687b      	ldr	r3, [r7, #4]
 8003220:	4a20      	ldr	r2, [pc, #128]	; (80032a4 <LL_TIM_Init+0xe0>)
 8003222:	4293      	cmp	r3, r2
 8003224:	d003      	beq.n	800322e <LL_TIM_Init+0x6a>
 8003226:	687b      	ldr	r3, [r7, #4]
 8003228:	4a1f      	ldr	r2, [pc, #124]	; (80032a8 <LL_TIM_Init+0xe4>)
 800322a:	4293      	cmp	r3, r2
 800322c:	d106      	bne.n	800323c <LL_TIM_Init+0x78>
  {
    /* Set the clock division */
    MODIFY_REG(tmpcr1, TIM_CR1_CKD, TIM_InitStruct->ClockDivision);
 800322e:	68fb      	ldr	r3, [r7, #12]
 8003230:	f423 7240 	bic.w	r2, r3, #768	; 0x300
 8003234:	683b      	ldr	r3, [r7, #0]
 8003236:	68db      	ldr	r3, [r3, #12]
 8003238:	4313      	orrs	r3, r2
 800323a:	60fb      	str	r3, [r7, #12]
  }

  /* Write to TIMx CR1 */
  LL_TIM_WriteReg(TIMx, CR1, tmpcr1);
 800323c:	687b      	ldr	r3, [r7, #4]
 800323e:	68fa      	ldr	r2, [r7, #12]
 8003240:	601a      	str	r2, [r3, #0]

  /* Set the Autoreload value */
  LL_TIM_SetAutoReload(TIMx, TIM_InitStruct->Autoreload);
 8003242:	683b      	ldr	r3, [r7, #0]
 8003244:	689b      	ldr	r3, [r3, #8]
 8003246:	4619      	mov	r1, r3
 8003248:	6878      	ldr	r0, [r7, #4]
 800324a:	f7ff ff3b 	bl	80030c4 <LL_TIM_SetAutoReload>

  /* Set the Prescaler value */
  LL_TIM_SetPrescaler(TIMx, TIM_InitStruct->Prescaler);
 800324e:	683b      	ldr	r3, [r7, #0]
 8003250:	881b      	ldrh	r3, [r3, #0]
 8003252:	4619      	mov	r1, r3
 8003254:	6878      	ldr	r0, [r7, #4]
 8003256:	f7ff ff27 	bl	80030a8 <LL_TIM_SetPrescaler>

  if (IS_TIM_REPETITION_COUNTER_INSTANCE(TIMx))
 800325a:	687b      	ldr	r3, [r7, #4]
 800325c:	4a0e      	ldr	r2, [pc, #56]	; (8003298 <LL_TIM_Init+0xd4>)
 800325e:	4293      	cmp	r3, r2
 8003260:	d00b      	beq.n	800327a <LL_TIM_Init+0xb6>
 8003262:	687b      	ldr	r3, [r7, #4]
 8003264:	4a0e      	ldr	r2, [pc, #56]	; (80032a0 <LL_TIM_Init+0xdc>)
 8003266:	4293      	cmp	r3, r2
 8003268:	d007      	beq.n	800327a <LL_TIM_Init+0xb6>
 800326a:	687b      	ldr	r3, [r7, #4]
 800326c:	4a0d      	ldr	r2, [pc, #52]	; (80032a4 <LL_TIM_Init+0xe0>)
 800326e:	4293      	cmp	r3, r2
 8003270:	d003      	beq.n	800327a <LL_TIM_Init+0xb6>
 8003272:	687b      	ldr	r3, [r7, #4]
 8003274:	4a0c      	ldr	r2, [pc, #48]	; (80032a8 <LL_TIM_Init+0xe4>)
 8003276:	4293      	cmp	r3, r2
 8003278:	d105      	bne.n	8003286 <LL_TIM_Init+0xc2>
  {
    /* Set the Repetition Counter value */
    LL_TIM_SetRepetitionCounter(TIMx, TIM_InitStruct->RepetitionCounter);
 800327a:	683b      	ldr	r3, [r7, #0]
 800327c:	7c1b      	ldrb	r3, [r3, #16]
 800327e:	4619      	mov	r1, r3
 8003280:	6878      	ldr	r0, [r7, #4]
 8003282:	f7ff ff2d 	bl	80030e0 <LL_TIM_SetRepetitionCounter>
  }

  /* Generate an update event to reload the Prescaler
     and the repetition counter value (if applicable) immediately */
  LL_TIM_GenerateEvent_UPDATE(TIMx);
 8003286:	6878      	ldr	r0, [r7, #4]
 8003288:	f7ff ff8c 	bl	80031a4 <LL_TIM_GenerateEvent_UPDATE>

  return SUCCESS;
 800328c:	2300      	movs	r3, #0
}
 800328e:	4618      	mov	r0, r3
 8003290:	3710      	adds	r7, #16
 8003292:	46bd      	mov	sp, r7
 8003294:	bd80      	pop	{r7, pc}
 8003296:	bf00      	nop
 8003298:	40012c00 	.word	0x40012c00
 800329c:	40000400 	.word	0x40000400
 80032a0:	40014000 	.word	0x40014000
 80032a4:	40014400 	.word	0x40014400
 80032a8:	40014800 	.word	0x40014800

080032ac <LL_TIM_OC_Init>:
  * @retval An ErrorStatus enumeration value:
  *          - SUCCESS: TIMx output channel is initialized
  *          - ERROR: TIMx output channel is not initialized
  */
ErrorStatus LL_TIM_OC_Init(TIM_TypeDef *TIMx, uint32_t Channel, LL_TIM_OC_InitTypeDef *TIM_OC_InitStruct)
{
 80032ac:	b580      	push	{r7, lr}
 80032ae:	b086      	sub	sp, #24
 80032b0:	af00      	add	r7, sp, #0
 80032b2:	60f8      	str	r0, [r7, #12]
 80032b4:	60b9      	str	r1, [r7, #8]
 80032b6:	607a      	str	r2, [r7, #4]
  ErrorStatus result = ERROR;
 80032b8:	2301      	movs	r3, #1
 80032ba:	75fb      	strb	r3, [r7, #23]

  switch (Channel)
 80032bc:	68bb      	ldr	r3, [r7, #8]
 80032be:	f5b3 7f80 	cmp.w	r3, #256	; 0x100
 80032c2:	d01f      	beq.n	8003304 <LL_TIM_OC_Init+0x58>
 80032c4:	f5b3 7f80 	cmp.w	r3, #256	; 0x100
 80032c8:	d804      	bhi.n	80032d4 <LL_TIM_OC_Init+0x28>
 80032ca:	2b01      	cmp	r3, #1
 80032cc:	d00c      	beq.n	80032e8 <LL_TIM_OC_Init+0x3c>
 80032ce:	2b10      	cmp	r3, #16
 80032d0:	d011      	beq.n	80032f6 <LL_TIM_OC_Init+0x4a>
    case LL_TIM_CHANNEL_CH6:
      result = OC6Config(TIMx, TIM_OC_InitStruct);
      break;
#endif /* TIM_CCER_CC5E */
    default:
      break;
 80032d2:	e033      	b.n	800333c <LL_TIM_OC_Init+0x90>
  switch (Channel)
 80032d4:	f5b3 3f80 	cmp.w	r3, #65536	; 0x10000
 80032d8:	d022      	beq.n	8003320 <LL_TIM_OC_Init+0x74>
 80032da:	f5b3 1f80 	cmp.w	r3, #1048576	; 0x100000
 80032de:	d026      	beq.n	800332e <LL_TIM_OC_Init+0x82>
 80032e0:	f5b3 5f80 	cmp.w	r3, #4096	; 0x1000
 80032e4:	d015      	beq.n	8003312 <LL_TIM_OC_Init+0x66>
      break;
 80032e6:	e029      	b.n	800333c <LL_TIM_OC_Init+0x90>
      result = OC1Config(TIMx, TIM_OC_InitStruct);
 80032e8:	6879      	ldr	r1, [r7, #4]
 80032ea:	68f8      	ldr	r0, [r7, #12]
 80032ec:	f000 f89c 	bl	8003428 <OC1Config>
 80032f0:	4603      	mov	r3, r0
 80032f2:	75fb      	strb	r3, [r7, #23]
      break;
 80032f4:	e022      	b.n	800333c <LL_TIM_OC_Init+0x90>
      result = OC2Config(TIMx, TIM_OC_InitStruct);
 80032f6:	6879      	ldr	r1, [r7, #4]
 80032f8:	68f8      	ldr	r0, [r7, #12]
 80032fa:	f000 f915 	bl	8003528 <OC2Config>
 80032fe:	4603      	mov	r3, r0
 8003300:	75fb      	strb	r3, [r7, #23]
      break;
 8003302:	e01b      	b.n	800333c <LL_TIM_OC_Init+0x90>
      result = OC3Config(TIMx, TIM_OC_InitStruct);
 8003304:	6879      	ldr	r1, [r7, #4]
 8003306:	68f8      	ldr	r0, [r7, #12]
 8003308:	f000 f992 	bl	8003630 <OC3Config>
 800330c:	4603      	mov	r3, r0
 800330e:	75fb      	strb	r3, [r7, #23]
      break;
 8003310:	e014      	b.n	800333c <LL_TIM_OC_Init+0x90>
      result = OC4Config(TIMx, TIM_OC_InitStruct);
 8003312:	6879      	ldr	r1, [r7, #4]
 8003314:	68f8      	ldr	r0, [r7, #12]
 8003316:	f000 fa0f 	bl	8003738 <OC4Config>
 800331a:	4603      	mov	r3, r0
 800331c:	75fb      	strb	r3, [r7, #23]
      break;
 800331e:	e00d      	b.n	800333c <LL_TIM_OC_Init+0x90>
      result = OC5Config(TIMx, TIM_OC_InitStruct);
 8003320:	6879      	ldr	r1, [r7, #4]
 8003322:	68f8      	ldr	r0, [r7, #12]
 8003324:	f000 fa74 	bl	8003810 <OC5Config>
 8003328:	4603      	mov	r3, r0
 800332a:	75fb      	strb	r3, [r7, #23]
      break;
 800332c:	e006      	b.n	800333c <LL_TIM_OC_Init+0x90>
      result = OC6Config(TIMx, TIM_OC_InitStruct);
 800332e:	6879      	ldr	r1, [r7, #4]
 8003330:	68f8      	ldr	r0, [r7, #12]
 8003332:	f000 facf 	bl	80038d4 <OC6Config>
 8003336:	4603      	mov	r3, r0
 8003338:	75fb      	strb	r3, [r7, #23]
      break;
 800333a:	bf00      	nop
  }

  return result;
 800333c:	7dfb      	ldrb	r3, [r7, #23]
}
 800333e:	4618      	mov	r0, r3
 8003340:	3718      	adds	r7, #24
 8003342:	46bd      	mov	sp, r7
 8003344:	bd80      	pop	{r7, pc}
	...

08003348 <LL_TIM_BDTR_Init>:
  * @retval An ErrorStatus enumeration value:
  *          - SUCCESS: Break and Dead Time is initialized
  *          - ERROR: not applicable
  */
ErrorStatus LL_TIM_BDTR_Init(TIM_TypeDef *TIMx, LL_TIM_BDTR_InitTypeDef *TIM_BDTRInitStruct)
{
 8003348:	b480      	push	{r7}
 800334a:	b085      	sub	sp, #20
 800334c:	af00      	add	r7, sp, #0
 800334e:	6078      	str	r0, [r7, #4]
 8003350:	6039      	str	r1, [r7, #0]
  uint32_t tmpbdtr = 0;
 8003352:	2300      	movs	r3, #0
 8003354:	60fb      	str	r3, [r7, #12]

  /* Set the Lock level, the Break enable Bit and the Polarity, the OSSR State,
  the OSSI State, the dead time value and the Automatic Output Enable Bit */

  /* Set the BDTR bits */
  MODIFY_REG(tmpbdtr, TIM_BDTR_DTG, TIM_BDTRInitStruct->DeadTime);
 8003356:	68fb      	ldr	r3, [r7, #12]
 8003358:	f023 03ff 	bic.w	r3, r3, #255	; 0xff
 800335c:	683a      	ldr	r2, [r7, #0]
 800335e:	7b12      	ldrb	r2, [r2, #12]
 8003360:	4313      	orrs	r3, r2
 8003362:	60fb      	str	r3, [r7, #12]
  MODIFY_REG(tmpbdtr, TIM_BDTR_LOCK, TIM_BDTRInitStruct->LockLevel);
 8003364:	68fb      	ldr	r3, [r7, #12]
 8003366:	f423 7240 	bic.w	r2, r3, #768	; 0x300
 800336a:	683b      	ldr	r3, [r7, #0]
 800336c:	689b      	ldr	r3, [r3, #8]
 800336e:	4313      	orrs	r3, r2
 8003370:	60fb      	str	r3, [r7, #12]
  MODIFY_REG(tmpbdtr, TIM_BDTR_OSSI, TIM_BDTRInitStruct->OSSIState);
 8003372:	68fb      	ldr	r3, [r7, #12]
 8003374:	f423 6280 	bic.w	r2, r3, #1024	; 0x400
 8003378:	683b      	ldr	r3, [r7, #0]
 800337a:	685b      	ldr	r3, [r3, #4]
 800337c:	4313      	orrs	r3, r2
 800337e:	60fb      	str	r3, [r7, #12]
  MODIFY_REG(tmpbdtr, TIM_BDTR_OSSR, TIM_BDTRInitStruct->OSSRState);
 8003380:	68fb      	ldr	r3, [r7, #12]
 8003382:	f423 6200 	bic.w	r2, r3, #2048	; 0x800
 8003386:	683b      	ldr	r3, [r7, #0]
 8003388:	681b      	ldr	r3, [r3, #0]
 800338a:	4313      	orrs	r3, r2
 800338c:	60fb      	str	r3, [r7, #12]
  MODIFY_REG(tmpbdtr, TIM_BDTR_BKE, TIM_BDTRInitStruct->BreakState);
 800338e:	68fb      	ldr	r3, [r7, #12]
 8003390:	f423 5380 	bic.w	r3, r3, #4096	; 0x1000
 8003394:	683a      	ldr	r2, [r7, #0]
 8003396:	89d2      	ldrh	r2, [r2, #14]
 8003398:	4313      	orrs	r3, r2
 800339a:	60fb      	str	r3, [r7, #12]
  MODIFY_REG(tmpbdtr, TIM_BDTR_BKP, TIM_BDTRInitStruct->BreakPolarity);
 800339c:	68fb      	ldr	r3, [r7, #12]
 800339e:	f423 5200 	bic.w	r2, r3, #8192	; 0x2000
 80033a2:	683b      	ldr	r3, [r7, #0]
 80033a4:	691b      	ldr	r3, [r3, #16]
 80033a6:	4313      	orrs	r3, r2
 80033a8:	60fb      	str	r3, [r7, #12]
  MODIFY_REG(tmpbdtr, TIM_BDTR_AOE, TIM_BDTRInitStruct->AutomaticOutput);
 80033aa:	68fb      	ldr	r3, [r7, #12]
 80033ac:	f423 4280 	bic.w	r2, r3, #16384	; 0x4000
 80033b0:	683b      	ldr	r3, [r7, #0]
 80033b2:	6a5b      	ldr	r3, [r3, #36]	; 0x24
 80033b4:	4313      	orrs	r3, r2
 80033b6:	60fb      	str	r3, [r7, #12]
  MODIFY_REG(tmpbdtr, TIM_BDTR_MOE, TIM_BDTRInitStruct->AutomaticOutput);
 80033b8:	68fb      	ldr	r3, [r7, #12]
 80033ba:	f423 4200 	bic.w	r2, r3, #32768	; 0x8000
 80033be:	683b      	ldr	r3, [r7, #0]
 80033c0:	6a5b      	ldr	r3, [r3, #36]	; 0x24
 80033c2:	4313      	orrs	r3, r2
 80033c4:	60fb      	str	r3, [r7, #12]
#if defined(TIM_BDTR_BKF)
  if (IS_TIM_ADVANCED_INSTANCE(TIMx))
 80033c6:	687b      	ldr	r3, [r7, #4]
 80033c8:	4a16      	ldr	r2, [pc, #88]	; (8003424 <LL_TIM_BDTR_Init+0xdc>)
 80033ca:	4293      	cmp	r3, r2
 80033cc:	d106      	bne.n	80033dc <LL_TIM_BDTR_Init+0x94>
  {
    assert_param(IS_LL_TIM_BREAK_FILTER(TIM_BDTRInitStruct->BreakFilter));
    MODIFY_REG(tmpbdtr, TIM_BDTR_BKF, TIM_BDTRInitStruct->BreakFilter);
 80033ce:	68fb      	ldr	r3, [r7, #12]
 80033d0:	f423 2270 	bic.w	r2, r3, #983040	; 0xf0000
 80033d4:	683b      	ldr	r3, [r7, #0]
 80033d6:	695b      	ldr	r3, [r3, #20]
 80033d8:	4313      	orrs	r3, r2
 80033da:	60fb      	str	r3, [r7, #12]
  }
#endif /* TIM_BDTR_BKF */
#if defined(TIM_BDTR_BK2E)

  if (IS_TIM_BKIN2_INSTANCE(TIMx))
 80033dc:	687b      	ldr	r3, [r7, #4]
 80033de:	4a11      	ldr	r2, [pc, #68]	; (8003424 <LL_TIM_BDTR_Init+0xdc>)
 80033e0:	4293      	cmp	r3, r2
 80033e2:	d114      	bne.n	800340e <LL_TIM_BDTR_Init+0xc6>
    assert_param(IS_LL_TIM_BREAK2_STATE(TIM_BDTRInitStruct->Break2State));
    assert_param(IS_LL_TIM_BREAK2_POLARITY(TIM_BDTRInitStruct->Break2Polarity));
    assert_param(IS_LL_TIM_BREAK2_FILTER(TIM_BDTRInitStruct->Break2Filter));

    /* Set the BREAK2 input related BDTR bit-fields */
    MODIFY_REG(tmpbdtr, TIM_BDTR_BK2F, (TIM_BDTRInitStruct->Break2Filter));
 80033e4:	68fb      	ldr	r3, [r7, #12]
 80033e6:	f423 0270 	bic.w	r2, r3, #15728640	; 0xf00000
 80033ea:	683b      	ldr	r3, [r7, #0]
 80033ec:	6a1b      	ldr	r3, [r3, #32]
 80033ee:	4313      	orrs	r3, r2
 80033f0:	60fb      	str	r3, [r7, #12]
    MODIFY_REG(tmpbdtr, TIM_BDTR_BK2E, TIM_BDTRInitStruct->Break2State);
 80033f2:	68fb      	ldr	r3, [r7, #12]
 80033f4:	f023 7280 	bic.w	r2, r3, #16777216	; 0x1000000
 80033f8:	683b      	ldr	r3, [r7, #0]
 80033fa:	699b      	ldr	r3, [r3, #24]
 80033fc:	4313      	orrs	r3, r2
 80033fe:	60fb      	str	r3, [r7, #12]
    MODIFY_REG(tmpbdtr, TIM_BDTR_BK2P, TIM_BDTRInitStruct->Break2Polarity);
 8003400:	68fb      	ldr	r3, [r7, #12]
 8003402:	f023 7200 	bic.w	r2, r3, #33554432	; 0x2000000
 8003406:	683b      	ldr	r3, [r7, #0]
 8003408:	69db      	ldr	r3, [r3, #28]
 800340a:	4313      	orrs	r3, r2
 800340c:	60fb      	str	r3, [r7, #12]
  }
#endif /* TIM_BDTR_BK2E */

  /* Set TIMx_BDTR */
  LL_TIM_WriteReg(TIMx, BDTR, tmpbdtr);
 800340e:	687b      	ldr	r3, [r7, #4]
 8003410:	68fa      	ldr	r2, [r7, #12]
 8003412:	645a      	str	r2, [r3, #68]	; 0x44

  return SUCCESS;
 8003414:	2300      	movs	r3, #0
}
 8003416:	4618      	mov	r0, r3
 8003418:	3714      	adds	r7, #20
 800341a:	46bd      	mov	sp, r7
 800341c:	f85d 7b04 	ldr.w	r7, [sp], #4
 8003420:	4770      	bx	lr
 8003422:	bf00      	nop
 8003424:	40012c00 	.word	0x40012c00

08003428 <OC1Config>:
  * @retval An ErrorStatus enumeration value:
  *          - SUCCESS: TIMx registers are de-initialized
  *          - ERROR: not applicable
  */
static ErrorStatus OC1Config(TIM_TypeDef *TIMx, LL_TIM_OC_InitTypeDef *TIM_OCInitStruct)
{
 8003428:	b580      	push	{r7, lr}
 800342a:	b086      	sub	sp, #24
 800342c:	af00      	add	r7, sp, #0
 800342e:	6078      	str	r0, [r7, #4]
 8003430:	6039      	str	r1, [r7, #0]
  uint32_t tmpccmr1 = 0U;
 8003432:	2300      	movs	r3, #0
 8003434:	60fb      	str	r3, [r7, #12]
  uint32_t tmpccer = 0U;
 8003436:	2300      	movs	r3, #0
 8003438:	617b      	str	r3, [r7, #20]
  uint32_t tmpcr2 = 0U;
 800343a:	2300      	movs	r3, #0
 800343c:	613b      	str	r3, [r7, #16]
  assert_param(IS_LL_TIM_OCPOLARITY(TIM_OCInitStruct->OCPolarity));
  assert_param(IS_LL_TIM_OCSTATE(TIM_OCInitStruct->OCNState));
  assert_param(IS_LL_TIM_OCPOLARITY(TIM_OCInitStruct->OCNPolarity));

  /* Disable the Channel 1: Reset the CC1E Bit */
  CLEAR_BIT(TIMx->CCER, TIM_CCER_CC1E);
 800343e:	687b      	ldr	r3, [r7, #4]
 8003440:	6a1b      	ldr	r3, [r3, #32]
 8003442:	f023 0201 	bic.w	r2, r3, #1
 8003446:	687b      	ldr	r3, [r7, #4]
 8003448:	621a      	str	r2, [r3, #32]

  /* Get the TIMx CCER register value */
  tmpccer = LL_TIM_ReadReg(TIMx, CCER);
 800344a:	687b      	ldr	r3, [r7, #4]
 800344c:	6a1b      	ldr	r3, [r3, #32]
 800344e:	617b      	str	r3, [r7, #20]

  /* Get the TIMx CR2 register value */
  tmpcr2 = LL_TIM_ReadReg(TIMx, CR2);
 8003450:	687b      	ldr	r3, [r7, #4]
 8003452:	685b      	ldr	r3, [r3, #4]
 8003454:	613b      	str	r3, [r7, #16]

  /* Get the TIMx CCMR1 register value */
  tmpccmr1 = LL_TIM_ReadReg(TIMx, CCMR1);
 8003456:	687b      	ldr	r3, [r7, #4]
 8003458:	699b      	ldr	r3, [r3, #24]
 800345a:	60fb      	str	r3, [r7, #12]

  /* Reset Capture/Compare selection Bits */
  CLEAR_BIT(tmpccmr1, TIM_CCMR1_CC1S);
 800345c:	68fb      	ldr	r3, [r7, #12]
 800345e:	f023 0303 	bic.w	r3, r3, #3
 8003462:	60fb      	str	r3, [r7, #12]

  /* Set the Output Compare Mode */
  MODIFY_REG(tmpccmr1, TIM_CCMR1_OC1M, TIM_OCInitStruct->OCMode);
 8003464:	68fb      	ldr	r3, [r7, #12]
 8003466:	f423 3380 	bic.w	r3, r3, #65536	; 0x10000
 800346a:	f023 0370 	bic.w	r3, r3, #112	; 0x70
 800346e:	683a      	ldr	r2, [r7, #0]
 8003470:	6812      	ldr	r2, [r2, #0]
 8003472:	4313      	orrs	r3, r2
 8003474:	60fb      	str	r3, [r7, #12]

  /* Set the Output Compare Polarity */
  MODIFY_REG(tmpccer, TIM_CCER_CC1P, TIM_OCInitStruct->OCPolarity);
 8003476:	697b      	ldr	r3, [r7, #20]
 8003478:	f023 0202 	bic.w	r2, r3, #2
 800347c:	683b      	ldr	r3, [r7, #0]
 800347e:	691b      	ldr	r3, [r3, #16]
 8003480:	4313      	orrs	r3, r2
 8003482:	617b      	str	r3, [r7, #20]

  /* Set the Output State */
  MODIFY_REG(tmpccer, TIM_CCER_CC1E, TIM_OCInitStruct->OCState);
 8003484:	697b      	ldr	r3, [r7, #20]
 8003486:	f023 0201 	bic.w	r2, r3, #1
 800348a:	683b      	ldr	r3, [r7, #0]
 800348c:	685b      	ldr	r3, [r3, #4]
 800348e:	4313      	orrs	r3, r2
 8003490:	617b      	str	r3, [r7, #20]

  if (IS_TIM_BREAK_INSTANCE(TIMx))
 8003492:	687b      	ldr	r3, [r7, #4]
 8003494:	4a20      	ldr	r2, [pc, #128]	; (8003518 <OC1Config+0xf0>)
 8003496:	4293      	cmp	r3, r2
 8003498:	d00b      	beq.n	80034b2 <OC1Config+0x8a>
 800349a:	687b      	ldr	r3, [r7, #4]
 800349c:	4a1f      	ldr	r2, [pc, #124]	; (800351c <OC1Config+0xf4>)
 800349e:	4293      	cmp	r3, r2
 80034a0:	d007      	beq.n	80034b2 <OC1Config+0x8a>
 80034a2:	687b      	ldr	r3, [r7, #4]
 80034a4:	4a1e      	ldr	r2, [pc, #120]	; (8003520 <OC1Config+0xf8>)
 80034a6:	4293      	cmp	r3, r2
 80034a8:	d003      	beq.n	80034b2 <OC1Config+0x8a>
 80034aa:	687b      	ldr	r3, [r7, #4]
 80034ac:	4a1d      	ldr	r2, [pc, #116]	; (8003524 <OC1Config+0xfc>)
 80034ae:	4293      	cmp	r3, r2
 80034b0:	d11e      	bne.n	80034f0 <OC1Config+0xc8>
  {
    assert_param(IS_LL_TIM_OCIDLESTATE(TIM_OCInitStruct->OCNIdleState));
    assert_param(IS_LL_TIM_OCIDLESTATE(TIM_OCInitStruct->OCIdleState));

    /* Set the complementary output Polarity */
    MODIFY_REG(tmpccer, TIM_CCER_CC1NP, TIM_OCInitStruct->OCNPolarity << 2U);
 80034b2:	697b      	ldr	r3, [r7, #20]
 80034b4:	f023 0208 	bic.w	r2, r3, #8
 80034b8:	683b      	ldr	r3, [r7, #0]
 80034ba:	695b      	ldr	r3, [r3, #20]
 80034bc:	009b      	lsls	r3, r3, #2
 80034be:	4313      	orrs	r3, r2
 80034c0:	617b      	str	r3, [r7, #20]

    /* Set the complementary output State */
    MODIFY_REG(tmpccer, TIM_CCER_CC1NE, TIM_OCInitStruct->OCNState << 2U);
 80034c2:	697b      	ldr	r3, [r7, #20]
 80034c4:	f023 0204 	bic.w	r2, r3, #4
 80034c8:	683b      	ldr	r3, [r7, #0]
 80034ca:	689b      	ldr	r3, [r3, #8]
 80034cc:	009b      	lsls	r3, r3, #2
 80034ce:	4313      	orrs	r3, r2
 80034d0:	617b      	str	r3, [r7, #20]

    /* Set the Output Idle state */
    MODIFY_REG(tmpcr2, TIM_CR2_OIS1, TIM_OCInitStruct->OCIdleState);
 80034d2:	693b      	ldr	r3, [r7, #16]
 80034d4:	f423 7280 	bic.w	r2, r3, #256	; 0x100
 80034d8:	683b      	ldr	r3, [r7, #0]
 80034da:	699b      	ldr	r3, [r3, #24]
 80034dc:	4313      	orrs	r3, r2
 80034de:	613b      	str	r3, [r7, #16]

    /* Set the complementary output Idle state */
    MODIFY_REG(tmpcr2, TIM_CR2_OIS1N, TIM_OCInitStruct->OCNIdleState << 1U);
 80034e0:	693b      	ldr	r3, [r7, #16]
 80034e2:	f423 7200 	bic.w	r2, r3, #512	; 0x200
 80034e6:	683b      	ldr	r3, [r7, #0]
 80034e8:	69db      	ldr	r3, [r3, #28]
 80034ea:	005b      	lsls	r3, r3, #1
 80034ec:	4313      	orrs	r3, r2
 80034ee:	613b      	str	r3, [r7, #16]
  }

  /* Write to TIMx CR2 */
  LL_TIM_WriteReg(TIMx, CR2, tmpcr2);
 80034f0:	687b      	ldr	r3, [r7, #4]
 80034f2:	693a      	ldr	r2, [r7, #16]
 80034f4:	605a      	str	r2, [r3, #4]

  /* Write to TIMx CCMR1 */
  LL_TIM_WriteReg(TIMx, CCMR1, tmpccmr1);
 80034f6:	687b      	ldr	r3, [r7, #4]
 80034f8:	68fa      	ldr	r2, [r7, #12]
 80034fa:	619a      	str	r2, [r3, #24]

  /* Set the Capture Compare Register value */
  LL_TIM_OC_SetCompareCH1(TIMx, TIM_OCInitStruct->CompareValue);
 80034fc:	683b      	ldr	r3, [r7, #0]
 80034fe:	68db      	ldr	r3, [r3, #12]
 8003500:	4619      	mov	r1, r3
 8003502:	6878      	ldr	r0, [r7, #4]
 8003504:	f7ff fdfa 	bl	80030fc <LL_TIM_OC_SetCompareCH1>

  /* Write to TIMx CCER */
  LL_TIM_WriteReg(TIMx, CCER, tmpccer);
 8003508:	687b      	ldr	r3, [r7, #4]
 800350a:	697a      	ldr	r2, [r7, #20]
 800350c:	621a      	str	r2, [r3, #32]

  return SUCCESS;
 800350e:	2300      	movs	r3, #0
}
 8003510:	4618      	mov	r0, r3
 8003512:	3718      	adds	r7, #24
 8003514:	46bd      	mov	sp, r7
 8003516:	bd80      	pop	{r7, pc}
 8003518:	40012c00 	.word	0x40012c00
 800351c:	40014000 	.word	0x40014000
 8003520:	40014400 	.word	0x40014400
 8003524:	40014800 	.word	0x40014800

08003528 <OC2Config>:
  * @retval An ErrorStatus enumeration value:
  *          - SUCCESS: TIMx registers are de-initialized
  *          - ERROR: not applicable
  */
static ErrorStatus OC2Config(TIM_TypeDef *TIMx, LL_TIM_OC_InitTypeDef *TIM_OCInitStruct)
{
 8003528:	b580      	push	{r7, lr}
 800352a:	b086      	sub	sp, #24
 800352c:	af00      	add	r7, sp, #0
 800352e:	6078      	str	r0, [r7, #4]
 8003530:	6039      	str	r1, [r7, #0]
  uint32_t tmpccmr1 = 0U;
 8003532:	2300      	movs	r3, #0
 8003534:	60fb      	str	r3, [r7, #12]
  uint32_t tmpccer = 0U;
 8003536:	2300      	movs	r3, #0
 8003538:	617b      	str	r3, [r7, #20]
  uint32_t tmpcr2 = 0U;
 800353a:	2300      	movs	r3, #0
 800353c:	613b      	str	r3, [r7, #16]
  assert_param(IS_LL_TIM_OCPOLARITY(TIM_OCInitStruct->OCPolarity));
  assert_param(IS_LL_TIM_OCSTATE(TIM_OCInitStruct->OCNState));
  assert_param(IS_LL_TIM_OCPOLARITY(TIM_OCInitStruct->OCNPolarity));

  /* Disable the Channel 2: Reset the CC2E Bit */
  CLEAR_BIT(TIMx->CCER, TIM_CCER_CC2E);
 800353e:	687b      	ldr	r3, [r7, #4]
 8003540:	6a1b      	ldr	r3, [r3, #32]
 8003542:	f023 0210 	bic.w	r2, r3, #16
 8003546:	687b      	ldr	r3, [r7, #4]
 8003548:	621a      	str	r2, [r3, #32]

  /* Get the TIMx CCER register value */
  tmpccer =  LL_TIM_ReadReg(TIMx, CCER);
 800354a:	687b      	ldr	r3, [r7, #4]
 800354c:	6a1b      	ldr	r3, [r3, #32]
 800354e:	617b      	str	r3, [r7, #20]

  /* Get the TIMx CR2 register value */
  tmpcr2 = LL_TIM_ReadReg(TIMx, CR2);
 8003550:	687b      	ldr	r3, [r7, #4]
 8003552:	685b      	ldr	r3, [r3, #4]
 8003554:	613b      	str	r3, [r7, #16]

  /* Get the TIMx CCMR1 register value */
  tmpccmr1 = LL_TIM_ReadReg(TIMx, CCMR1);
 8003556:	687b      	ldr	r3, [r7, #4]
 8003558:	699b      	ldr	r3, [r3, #24]
 800355a:	60fb      	str	r3, [r7, #12]

  /* Reset Capture/Compare selection Bits */
  CLEAR_BIT(tmpccmr1, TIM_CCMR1_CC2S);
 800355c:	68fb      	ldr	r3, [r7, #12]
 800355e:	f423 7340 	bic.w	r3, r3, #768	; 0x300
 8003562:	60fb      	str	r3, [r7, #12]

  /* Select the Output Compare Mode */
  MODIFY_REG(tmpccmr1, TIM_CCMR1_OC2M, TIM_OCInitStruct->OCMode << 8U);
 8003564:	68fb      	ldr	r3, [r7, #12]
 8003566:	f023 7380 	bic.w	r3, r3, #16777216	; 0x1000000
 800356a:	f423 43e0 	bic.w	r3, r3, #28672	; 0x7000
 800356e:	683a      	ldr	r2, [r7, #0]
 8003570:	6812      	ldr	r2, [r2, #0]
 8003572:	0212      	lsls	r2, r2, #8
 8003574:	4313      	orrs	r3, r2
 8003576:	60fb      	str	r3, [r7, #12]

  /* Set the Output Compare Polarity */
  MODIFY_REG(tmpccer, TIM_CCER_CC2P, TIM_OCInitStruct->OCPolarity << 4U);
 8003578:	697b      	ldr	r3, [r7, #20]
 800357a:	f023 0220 	bic.w	r2, r3, #32
 800357e:	683b      	ldr	r3, [r7, #0]
 8003580:	691b      	ldr	r3, [r3, #16]
 8003582:	011b      	lsls	r3, r3, #4
 8003584:	4313      	orrs	r3, r2
 8003586:	617b      	str	r3, [r7, #20]

  /* Set the Output State */
  MODIFY_REG(tmpccer, TIM_CCER_CC2E, TIM_OCInitStruct->OCState << 4U);
 8003588:	697b      	ldr	r3, [r7, #20]
 800358a:	f023 0210 	bic.w	r2, r3, #16
 800358e:	683b      	ldr	r3, [r7, #0]
 8003590:	685b      	ldr	r3, [r3, #4]
 8003592:	011b      	lsls	r3, r3, #4
 8003594:	4313      	orrs	r3, r2
 8003596:	617b      	str	r3, [r7, #20]

  if (IS_TIM_BREAK_INSTANCE(TIMx))
 8003598:	687b      	ldr	r3, [r7, #4]
 800359a:	4a21      	ldr	r2, [pc, #132]	; (8003620 <OC2Config+0xf8>)
 800359c:	4293      	cmp	r3, r2
 800359e:	d00b      	beq.n	80035b8 <OC2Config+0x90>
 80035a0:	687b      	ldr	r3, [r7, #4]
 80035a2:	4a20      	ldr	r2, [pc, #128]	; (8003624 <OC2Config+0xfc>)
 80035a4:	4293      	cmp	r3, r2
 80035a6:	d007      	beq.n	80035b8 <OC2Config+0x90>
 80035a8:	687b      	ldr	r3, [r7, #4]
 80035aa:	4a1f      	ldr	r2, [pc, #124]	; (8003628 <OC2Config+0x100>)
 80035ac:	4293      	cmp	r3, r2
 80035ae:	d003      	beq.n	80035b8 <OC2Config+0x90>
 80035b0:	687b      	ldr	r3, [r7, #4]
 80035b2:	4a1e      	ldr	r2, [pc, #120]	; (800362c <OC2Config+0x104>)
 80035b4:	4293      	cmp	r3, r2
 80035b6:	d11f      	bne.n	80035f8 <OC2Config+0xd0>
  {
    assert_param(IS_LL_TIM_OCIDLESTATE(TIM_OCInitStruct->OCNIdleState));
    assert_param(IS_LL_TIM_OCIDLESTATE(TIM_OCInitStruct->OCIdleState));

    /* Set the complementary output Polarity */
    MODIFY_REG(tmpccer, TIM_CCER_CC2NP, TIM_OCInitStruct->OCNPolarity << 6U);
 80035b8:	697b      	ldr	r3, [r7, #20]
 80035ba:	f023 0280 	bic.w	r2, r3, #128	; 0x80
 80035be:	683b      	ldr	r3, [r7, #0]
 80035c0:	695b      	ldr	r3, [r3, #20]
 80035c2:	019b      	lsls	r3, r3, #6
 80035c4:	4313      	orrs	r3, r2
 80035c6:	617b      	str	r3, [r7, #20]

    /* Set the complementary output State */
    MODIFY_REG(tmpccer, TIM_CCER_CC2NE, TIM_OCInitStruct->OCNState << 6U);
 80035c8:	697b      	ldr	r3, [r7, #20]
 80035ca:	f023 0240 	bic.w	r2, r3, #64	; 0x40
 80035ce:	683b      	ldr	r3, [r7, #0]
 80035d0:	689b      	ldr	r3, [r3, #8]
 80035d2:	019b      	lsls	r3, r3, #6
 80035d4:	4313      	orrs	r3, r2
 80035d6:	617b      	str	r3, [r7, #20]

    /* Set the Output Idle state */
    MODIFY_REG(tmpcr2, TIM_CR2_OIS2, TIM_OCInitStruct->OCIdleState << 2U);
 80035d8:	693b      	ldr	r3, [r7, #16]
 80035da:	f423 6280 	bic.w	r2, r3, #1024	; 0x400
 80035de:	683b      	ldr	r3, [r7, #0]
 80035e0:	699b      	ldr	r3, [r3, #24]
 80035e2:	009b      	lsls	r3, r3, #2
 80035e4:	4313      	orrs	r3, r2
 80035e6:	613b      	str	r3, [r7, #16]

#if defined(STM32F373xC) || defined(STM32F378xx)
#else
    /* Set the complementary output Idle state */
    MODIFY_REG(tmpcr2, TIM_CR2_OIS2N, TIM_OCInitStruct->OCNIdleState << 3U);
 80035e8:	693b      	ldr	r3, [r7, #16]
 80035ea:	f423 6200 	bic.w	r2, r3, #2048	; 0x800
 80035ee:	683b      	ldr	r3, [r7, #0]
 80035f0:	69db      	ldr	r3, [r3, #28]
 80035f2:	00db      	lsls	r3, r3, #3
 80035f4:	4313      	orrs	r3, r2
 80035f6:	613b      	str	r3, [r7, #16]
#endif
  }

  /* Write to TIMx CR2 */
  LL_TIM_WriteReg(TIMx, CR2, tmpcr2);
 80035f8:	687b      	ldr	r3, [r7, #4]
 80035fa:	693a      	ldr	r2, [r7, #16]
 80035fc:	605a      	str	r2, [r3, #4]

  /* Write to TIMx CCMR1 */
  LL_TIM_WriteReg(TIMx, CCMR1, tmpccmr1);
 80035fe:	687b      	ldr	r3, [r7, #4]
 8003600:	68fa      	ldr	r2, [r7, #12]
 8003602:	619a      	str	r2, [r3, #24]

  /* Set the Capture Compare Register value */
  LL_TIM_OC_SetCompareCH2(TIMx, TIM_OCInitStruct->CompareValue);
 8003604:	683b      	ldr	r3, [r7, #0]
 8003606:	68db      	ldr	r3, [r3, #12]
 8003608:	4619      	mov	r1, r3
 800360a:	6878      	ldr	r0, [r7, #4]
 800360c:	f7ff fd84 	bl	8003118 <LL_TIM_OC_SetCompareCH2>

  /* Write to TIMx CCER */
  LL_TIM_WriteReg(TIMx, CCER, tmpccer);
 8003610:	687b      	ldr	r3, [r7, #4]
 8003612:	697a      	ldr	r2, [r7, #20]
 8003614:	621a      	str	r2, [r3, #32]

  return SUCCESS;
 8003616:	2300      	movs	r3, #0
}
 8003618:	4618      	mov	r0, r3
 800361a:	3718      	adds	r7, #24
 800361c:	46bd      	mov	sp, r7
 800361e:	bd80      	pop	{r7, pc}
 8003620:	40012c00 	.word	0x40012c00
 8003624:	40014000 	.word	0x40014000
 8003628:	40014400 	.word	0x40014400
 800362c:	40014800 	.word	0x40014800

08003630 <OC3Config>:
  * @retval An ErrorStatus enumeration value:
  *          - SUCCESS: TIMx registers are de-initialized
  *          - ERROR: not applicable
  */
static ErrorStatus OC3Config(TIM_TypeDef *TIMx, LL_TIM_OC_InitTypeDef *TIM_OCInitStruct)
{
 8003630:	b580      	push	{r7, lr}
 8003632:	b086      	sub	sp, #24
 8003634:	af00      	add	r7, sp, #0
 8003636:	6078      	str	r0, [r7, #4]
 8003638:	6039      	str	r1, [r7, #0]
  uint32_t tmpccmr2 = 0U;
 800363a:	2300      	movs	r3, #0
 800363c:	60fb      	str	r3, [r7, #12]
  uint32_t tmpccer = 0U;
 800363e:	2300      	movs	r3, #0
 8003640:	617b      	str	r3, [r7, #20]
  uint32_t tmpcr2 = 0U;
 8003642:	2300      	movs	r3, #0
 8003644:	613b      	str	r3, [r7, #16]
  assert_param(IS_LL_TIM_OCPOLARITY(TIM_OCInitStruct->OCPolarity));
  assert_param(IS_LL_TIM_OCSTATE(TIM_OCInitStruct->OCNState));
  assert_param(IS_LL_TIM_OCPOLARITY(TIM_OCInitStruct->OCNPolarity));

  /* Disable the Channel 3: Reset the CC3E Bit */
  CLEAR_BIT(TIMx->CCER, TIM_CCER_CC3E);
 8003646:	687b      	ldr	r3, [r7, #4]
 8003648:	6a1b      	ldr	r3, [r3, #32]
 800364a:	f423 7280 	bic.w	r2, r3, #256	; 0x100
 800364e:	687b      	ldr	r3, [r7, #4]
 8003650:	621a      	str	r2, [r3, #32]

  /* Get the TIMx CCER register value */
  tmpccer =  LL_TIM_ReadReg(TIMx, CCER);
 8003652:	687b      	ldr	r3, [r7, #4]
 8003654:	6a1b      	ldr	r3, [r3, #32]
 8003656:	617b      	str	r3, [r7, #20]

  /* Get the TIMx CR2 register value */
  tmpcr2 = LL_TIM_ReadReg(TIMx, CR2);
 8003658:	687b      	ldr	r3, [r7, #4]
 800365a:	685b      	ldr	r3, [r3, #4]
 800365c:	613b      	str	r3, [r7, #16]

  /* Get the TIMx CCMR2 register value */
  tmpccmr2 = LL_TIM_ReadReg(TIMx, CCMR2);
 800365e:	687b      	ldr	r3, [r7, #4]
 8003660:	69db      	ldr	r3, [r3, #28]
 8003662:	60fb      	str	r3, [r7, #12]

  /* Reset Capture/Compare selection Bits */
  CLEAR_BIT(tmpccmr2, TIM_CCMR2_CC3S);
 8003664:	68fb      	ldr	r3, [r7, #12]
 8003666:	f023 0303 	bic.w	r3, r3, #3
 800366a:	60fb      	str	r3, [r7, #12]

  /* Select the Output Compare Mode */
  MODIFY_REG(tmpccmr2, TIM_CCMR2_OC3M, TIM_OCInitStruct->OCMode);
 800366c:	68fb      	ldr	r3, [r7, #12]
 800366e:	f423 3380 	bic.w	r3, r3, #65536	; 0x10000
 8003672:	f023 0370 	bic.w	r3, r3, #112	; 0x70
 8003676:	683a      	ldr	r2, [r7, #0]
 8003678:	6812      	ldr	r2, [r2, #0]
 800367a:	4313      	orrs	r3, r2
 800367c:	60fb      	str	r3, [r7, #12]

  /* Set the Output Compare Polarity */
  MODIFY_REG(tmpccer, TIM_CCER_CC3P, TIM_OCInitStruct->OCPolarity << 8U);
 800367e:	697b      	ldr	r3, [r7, #20]
 8003680:	f423 7200 	bic.w	r2, r3, #512	; 0x200
 8003684:	683b      	ldr	r3, [r7, #0]
 8003686:	691b      	ldr	r3, [r3, #16]
 8003688:	021b      	lsls	r3, r3, #8
 800368a:	4313      	orrs	r3, r2
 800368c:	617b      	str	r3, [r7, #20]

  /* Set the Output State */
  MODIFY_REG(tmpccer, TIM_CCER_CC3E, TIM_OCInitStruct->OCState << 8U);
 800368e:	697b      	ldr	r3, [r7, #20]
 8003690:	f423 7280 	bic.w	r2, r3, #256	; 0x100
 8003694:	683b      	ldr	r3, [r7, #0]
 8003696:	685b      	ldr	r3, [r3, #4]
 8003698:	021b      	lsls	r3, r3, #8
 800369a:	4313      	orrs	r3, r2
 800369c:	617b      	str	r3, [r7, #20]

  if (IS_TIM_BREAK_INSTANCE(TIMx))
 800369e:	687b      	ldr	r3, [r7, #4]
 80036a0:	4a21      	ldr	r2, [pc, #132]	; (8003728 <OC3Config+0xf8>)
 80036a2:	4293      	cmp	r3, r2
 80036a4:	d00b      	beq.n	80036be <OC3Config+0x8e>
 80036a6:	687b      	ldr	r3, [r7, #4]
 80036a8:	4a20      	ldr	r2, [pc, #128]	; (800372c <OC3Config+0xfc>)
 80036aa:	4293      	cmp	r3, r2
 80036ac:	d007      	beq.n	80036be <OC3Config+0x8e>
 80036ae:	687b      	ldr	r3, [r7, #4]
 80036b0:	4a1f      	ldr	r2, [pc, #124]	; (8003730 <OC3Config+0x100>)
 80036b2:	4293      	cmp	r3, r2
 80036b4:	d003      	beq.n	80036be <OC3Config+0x8e>
 80036b6:	687b      	ldr	r3, [r7, #4]
 80036b8:	4a1e      	ldr	r2, [pc, #120]	; (8003734 <OC3Config+0x104>)
 80036ba:	4293      	cmp	r3, r2
 80036bc:	d11f      	bne.n	80036fe <OC3Config+0xce>
  {
    assert_param(IS_LL_TIM_OCIDLESTATE(TIM_OCInitStruct->OCNIdleState));
    assert_param(IS_LL_TIM_OCIDLESTATE(TIM_OCInitStruct->OCIdleState));

    /* Set the complementary output Polarity */
    MODIFY_REG(tmpccer, TIM_CCER_CC3NP, TIM_OCInitStruct->OCNPolarity << 10U);
 80036be:	697b      	ldr	r3, [r7, #20]
 80036c0:	f423 6200 	bic.w	r2, r3, #2048	; 0x800
 80036c4:	683b      	ldr	r3, [r7, #0]
 80036c6:	695b      	ldr	r3, [r3, #20]
 80036c8:	029b      	lsls	r3, r3, #10
 80036ca:	4313      	orrs	r3, r2
 80036cc:	617b      	str	r3, [r7, #20]

    /* Set the complementary output State */
    MODIFY_REG(tmpccer, TIM_CCER_CC3NE, TIM_OCInitStruct->OCNState << 10U);
 80036ce:	697b      	ldr	r3, [r7, #20]
 80036d0:	f423 6280 	bic.w	r2, r3, #1024	; 0x400
 80036d4:	683b      	ldr	r3, [r7, #0]
 80036d6:	689b      	ldr	r3, [r3, #8]
 80036d8:	029b      	lsls	r3, r3, #10
 80036da:	4313      	orrs	r3, r2
 80036dc:	617b      	str	r3, [r7, #20]

#if defined(STM32F373xC) || defined(STM32F378xx)
#else
    /* Set the Output Idle state */
    MODIFY_REG(tmpcr2, TIM_CR2_OIS3, TIM_OCInitStruct->OCIdleState << 4U);
 80036de:	693b      	ldr	r3, [r7, #16]
 80036e0:	f423 5280 	bic.w	r2, r3, #4096	; 0x1000
 80036e4:	683b      	ldr	r3, [r7, #0]
 80036e6:	699b      	ldr	r3, [r3, #24]
 80036e8:	011b      	lsls	r3, r3, #4
 80036ea:	4313      	orrs	r3, r2
 80036ec:	613b      	str	r3, [r7, #16]

    /* Set the complementary output Idle state */
    MODIFY_REG(tmpcr2, TIM_CR2_OIS3N, TIM_OCInitStruct->OCNIdleState << 5U);
 80036ee:	693b      	ldr	r3, [r7, #16]
 80036f0:	f423 5200 	bic.w	r2, r3, #8192	; 0x2000
 80036f4:	683b      	ldr	r3, [r7, #0]
 80036f6:	69db      	ldr	r3, [r3, #28]
 80036f8:	015b      	lsls	r3, r3, #5
 80036fa:	4313      	orrs	r3, r2
 80036fc:	613b      	str	r3, [r7, #16]
#endif
  }

  /* Write to TIMx CR2 */
  LL_TIM_WriteReg(TIMx, CR2, tmpcr2);
 80036fe:	687b      	ldr	r3, [r7, #4]
 8003700:	693a      	ldr	r2, [r7, #16]
 8003702:	605a      	str	r2, [r3, #4]

  /* Write to TIMx CCMR2 */
  LL_TIM_WriteReg(TIMx, CCMR2, tmpccmr2);
 8003704:	687b      	ldr	r3, [r7, #4]
 8003706:	68fa      	ldr	r2, [r7, #12]
 8003708:	61da      	str	r2, [r3, #28]

  /* Set the Capture Compare Register value */
  LL_TIM_OC_SetCompareCH3(TIMx, TIM_OCInitStruct->CompareValue);
 800370a:	683b      	ldr	r3, [r7, #0]
 800370c:	68db      	ldr	r3, [r3, #12]
 800370e:	4619      	mov	r1, r3
 8003710:	6878      	ldr	r0, [r7, #4]
 8003712:	f7ff fd0f 	bl	8003134 <LL_TIM_OC_SetCompareCH3>

  /* Write to TIMx CCER */
  LL_TIM_WriteReg(TIMx, CCER, tmpccer);
 8003716:	687b      	ldr	r3, [r7, #4]
 8003718:	697a      	ldr	r2, [r7, #20]
 800371a:	621a      	str	r2, [r3, #32]

  return SUCCESS;
 800371c:	2300      	movs	r3, #0
}
 800371e:	4618      	mov	r0, r3
 8003720:	3718      	adds	r7, #24
 8003722:	46bd      	mov	sp, r7
 8003724:	bd80      	pop	{r7, pc}
 8003726:	bf00      	nop
 8003728:	40012c00 	.word	0x40012c00
 800372c:	40014000 	.word	0x40014000
 8003730:	40014400 	.word	0x40014400
 8003734:	40014800 	.word	0x40014800

08003738 <OC4Config>:
  * @retval An ErrorStatus enumeration value:
  *          - SUCCESS: TIMx registers are de-initialized
  *          - ERROR: not applicable
  */
static ErrorStatus OC4Config(TIM_TypeDef *TIMx, LL_TIM_OC_InitTypeDef *TIM_OCInitStruct)
{
 8003738:	b580      	push	{r7, lr}
 800373a:	b086      	sub	sp, #24
 800373c:	af00      	add	r7, sp, #0
 800373e:	6078      	str	r0, [r7, #4]
 8003740:	6039      	str	r1, [r7, #0]
  uint32_t tmpccmr2 = 0U;
 8003742:	2300      	movs	r3, #0
 8003744:	613b      	str	r3, [r7, #16]
  uint32_t tmpccer = 0U;
 8003746:	2300      	movs	r3, #0
 8003748:	60fb      	str	r3, [r7, #12]
  uint32_t tmpcr2 = 0U;
 800374a:	2300      	movs	r3, #0
 800374c:	617b      	str	r3, [r7, #20]
  assert_param(IS_LL_TIM_OCPOLARITY(TIM_OCInitStruct->OCPolarity));
  assert_param(IS_LL_TIM_OCPOLARITY(TIM_OCInitStruct->OCNPolarity));
  assert_param(IS_LL_TIM_OCSTATE(TIM_OCInitStruct->OCNState));

  /* Disable the Channel 4: Reset the CC4E Bit */
  CLEAR_BIT(TIMx->CCER, TIM_CCER_CC4E);
 800374e:	687b      	ldr	r3, [r7, #4]
 8003750:	6a1b      	ldr	r3, [r3, #32]
 8003752:	f423 5280 	bic.w	r2, r3, #4096	; 0x1000
 8003756:	687b      	ldr	r3, [r7, #4]
 8003758:	621a      	str	r2, [r3, #32]

  /* Get the TIMx CCER register value */
  tmpccer = LL_TIM_ReadReg(TIMx, CCER);
 800375a:	687b      	ldr	r3, [r7, #4]
 800375c:	6a1b      	ldr	r3, [r3, #32]
 800375e:	60fb      	str	r3, [r7, #12]

  /* Get the TIMx CR2 register value */
  tmpcr2 =  LL_TIM_ReadReg(TIMx, CR2);
 8003760:	687b      	ldr	r3, [r7, #4]
 8003762:	685b      	ldr	r3, [r3, #4]
 8003764:	617b      	str	r3, [r7, #20]

  /* Get the TIMx CCMR2 register value */
  tmpccmr2 = LL_TIM_ReadReg(TIMx, CCMR2);
 8003766:	687b      	ldr	r3, [r7, #4]
 8003768:	69db      	ldr	r3, [r3, #28]
 800376a:	613b      	str	r3, [r7, #16]

  /* Reset Capture/Compare selection Bits */
  CLEAR_BIT(tmpccmr2, TIM_CCMR2_CC4S);
 800376c:	693b      	ldr	r3, [r7, #16]
 800376e:	f423 7340 	bic.w	r3, r3, #768	; 0x300
 8003772:	613b      	str	r3, [r7, #16]

  /* Select the Output Compare Mode */
  MODIFY_REG(tmpccmr2, TIM_CCMR2_OC4M, TIM_OCInitStruct->OCMode << 8U);
 8003774:	693b      	ldr	r3, [r7, #16]
 8003776:	f023 7380 	bic.w	r3, r3, #16777216	; 0x1000000
 800377a:	f423 43e0 	bic.w	r3, r3, #28672	; 0x7000
 800377e:	683a      	ldr	r2, [r7, #0]
 8003780:	6812      	ldr	r2, [r2, #0]
 8003782:	0212      	lsls	r2, r2, #8
 8003784:	4313      	orrs	r3, r2
 8003786:	613b      	str	r3, [r7, #16]

  /* Set the Output Compare Polarity */
  MODIFY_REG(tmpccer, TIM_CCER_CC4P, TIM_OCInitStruct->OCPolarity << 12U);
 8003788:	68fb      	ldr	r3, [r7, #12]
 800378a:	f423 5200 	bic.w	r2, r3, #8192	; 0x2000
 800378e:	683b      	ldr	r3, [r7, #0]
 8003790:	691b      	ldr	r3, [r3, #16]
 8003792:	031b      	lsls	r3, r3, #12
 8003794:	4313      	orrs	r3, r2
 8003796:	60fb      	str	r3, [r7, #12]

  /* Set the Output State */
  MODIFY_REG(tmpccer, TIM_CCER_CC4E, TIM_OCInitStruct->OCState << 12U);
 8003798:	68fb      	ldr	r3, [r7, #12]
 800379a:	f423 5280 	bic.w	r2, r3, #4096	; 0x1000
 800379e:	683b      	ldr	r3, [r7, #0]
 80037a0:	685b      	ldr	r3, [r3, #4]
 80037a2:	031b      	lsls	r3, r3, #12
 80037a4:	4313      	orrs	r3, r2
 80037a6:	60fb      	str	r3, [r7, #12]

  if (IS_TIM_BREAK_INSTANCE(TIMx))
 80037a8:	687b      	ldr	r3, [r7, #4]
 80037aa:	4a15      	ldr	r2, [pc, #84]	; (8003800 <OC4Config+0xc8>)
 80037ac:	4293      	cmp	r3, r2
 80037ae:	d00b      	beq.n	80037c8 <OC4Config+0x90>
 80037b0:	687b      	ldr	r3, [r7, #4]
 80037b2:	4a14      	ldr	r2, [pc, #80]	; (8003804 <OC4Config+0xcc>)
 80037b4:	4293      	cmp	r3, r2
 80037b6:	d007      	beq.n	80037c8 <OC4Config+0x90>
 80037b8:	687b      	ldr	r3, [r7, #4]
 80037ba:	4a13      	ldr	r2, [pc, #76]	; (8003808 <OC4Config+0xd0>)
 80037bc:	4293      	cmp	r3, r2
 80037be:	d003      	beq.n	80037c8 <OC4Config+0x90>
 80037c0:	687b      	ldr	r3, [r7, #4]
 80037c2:	4a12      	ldr	r2, [pc, #72]	; (800380c <OC4Config+0xd4>)
 80037c4:	4293      	cmp	r3, r2
 80037c6:	d107      	bne.n	80037d8 <OC4Config+0xa0>
    assert_param(IS_LL_TIM_OCIDLESTATE(TIM_OCInitStruct->OCIdleState));

#if defined(STM32F373xC) || defined(STM32F378xx)
#else
    /* Set the Output Idle state */
    MODIFY_REG(tmpcr2, TIM_CR2_OIS4, TIM_OCInitStruct->OCIdleState << 6U);
 80037c8:	697b      	ldr	r3, [r7, #20]
 80037ca:	f423 4280 	bic.w	r2, r3, #16384	; 0x4000
 80037ce:	683b      	ldr	r3, [r7, #0]
 80037d0:	699b      	ldr	r3, [r3, #24]
 80037d2:	019b      	lsls	r3, r3, #6
 80037d4:	4313      	orrs	r3, r2
 80037d6:	617b      	str	r3, [r7, #20]
#endif
  }

  /* Write to TIMx CR2 */
  LL_TIM_WriteReg(TIMx, CR2, tmpcr2);
 80037d8:	687b      	ldr	r3, [r7, #4]
 80037da:	697a      	ldr	r2, [r7, #20]
 80037dc:	605a      	str	r2, [r3, #4]

  /* Write to TIMx CCMR2 */
  LL_TIM_WriteReg(TIMx, CCMR2, tmpccmr2);
 80037de:	687b      	ldr	r3, [r7, #4]
 80037e0:	693a      	ldr	r2, [r7, #16]
 80037e2:	61da      	str	r2, [r3, #28]

  /* Set the Capture Compare Register value */
  LL_TIM_OC_SetCompareCH4(TIMx, TIM_OCInitStruct->CompareValue);
 80037e4:	683b      	ldr	r3, [r7, #0]
 80037e6:	68db      	ldr	r3, [r3, #12]
 80037e8:	4619      	mov	r1, r3
 80037ea:	6878      	ldr	r0, [r7, #4]
 80037ec:	f7ff fcb0 	bl	8003150 <LL_TIM_OC_SetCompareCH4>

  /* Write to TIMx CCER */
  LL_TIM_WriteReg(TIMx, CCER, tmpccer);
 80037f0:	687b      	ldr	r3, [r7, #4]
 80037f2:	68fa      	ldr	r2, [r7, #12]
 80037f4:	621a      	str	r2, [r3, #32]

  return SUCCESS;
 80037f6:	2300      	movs	r3, #0
}
 80037f8:	4618      	mov	r0, r3
 80037fa:	3718      	adds	r7, #24
 80037fc:	46bd      	mov	sp, r7
 80037fe:	bd80      	pop	{r7, pc}
 8003800:	40012c00 	.word	0x40012c00
 8003804:	40014000 	.word	0x40014000
 8003808:	40014400 	.word	0x40014400
 800380c:	40014800 	.word	0x40014800

08003810 <OC5Config>:
  * @retval An ErrorStatus enumeration value:
  *          - SUCCESS: TIMx registers are de-initialized
  *          - ERROR: not applicable
  */
static ErrorStatus OC5Config(TIM_TypeDef *TIMx, LL_TIM_OC_InitTypeDef *TIM_OCInitStruct)
{
 8003810:	b580      	push	{r7, lr}
 8003812:	b084      	sub	sp, #16
 8003814:	af00      	add	r7, sp, #0
 8003816:	6078      	str	r0, [r7, #4]
 8003818:	6039      	str	r1, [r7, #0]
  uint32_t tmpccmr3 = 0U;
 800381a:	2300      	movs	r3, #0
 800381c:	60fb      	str	r3, [r7, #12]
  uint32_t tmpccer = 0U;
 800381e:	2300      	movs	r3, #0
 8003820:	60bb      	str	r3, [r7, #8]
  assert_param(IS_LL_TIM_OCPOLARITY(TIM_OCInitStruct->OCPolarity));
  assert_param(IS_LL_TIM_OCPOLARITY(TIM_OCInitStruct->OCNPolarity));
  assert_param(IS_LL_TIM_OCSTATE(TIM_OCInitStruct->OCNState));

  /* Disable the Channel 5: Reset the CC5E Bit */
  CLEAR_BIT(TIMx->CCER, TIM_CCER_CC5E);
 8003822:	687b      	ldr	r3, [r7, #4]
 8003824:	6a1b      	ldr	r3, [r3, #32]
 8003826:	f423 3280 	bic.w	r2, r3, #65536	; 0x10000
 800382a:	687b      	ldr	r3, [r7, #4]
 800382c:	621a      	str	r2, [r3, #32]

  /* Get the TIMx CCER register value */
  tmpccer = LL_TIM_ReadReg(TIMx, CCER);
 800382e:	687b      	ldr	r3, [r7, #4]
 8003830:	6a1b      	ldr	r3, [r3, #32]
 8003832:	60bb      	str	r3, [r7, #8]

  /* Get the TIMx CCMR3 register value */
  tmpccmr3 = LL_TIM_ReadReg(TIMx, CCMR3);
 8003834:	687b      	ldr	r3, [r7, #4]
 8003836:	6d5b      	ldr	r3, [r3, #84]	; 0x54
 8003838:	60fb      	str	r3, [r7, #12]

  /* Select the Output Compare Mode */
  MODIFY_REG(tmpccmr3, TIM_CCMR3_OC5M, TIM_OCInitStruct->OCMode);
 800383a:	68fb      	ldr	r3, [r7, #12]
 800383c:	f423 3380 	bic.w	r3, r3, #65536	; 0x10000
 8003840:	f023 0370 	bic.w	r3, r3, #112	; 0x70
 8003844:	683a      	ldr	r2, [r7, #0]
 8003846:	6812      	ldr	r2, [r2, #0]
 8003848:	4313      	orrs	r3, r2
 800384a:	60fb      	str	r3, [r7, #12]

  /* Set the Output Compare Polarity */
  MODIFY_REG(tmpccer, TIM_CCER_CC5P, TIM_OCInitStruct->OCPolarity << 16U);
 800384c:	68bb      	ldr	r3, [r7, #8]
 800384e:	f423 3200 	bic.w	r2, r3, #131072	; 0x20000
 8003852:	683b      	ldr	r3, [r7, #0]
 8003854:	691b      	ldr	r3, [r3, #16]
 8003856:	041b      	lsls	r3, r3, #16
 8003858:	4313      	orrs	r3, r2
 800385a:	60bb      	str	r3, [r7, #8]

  /* Set the Output State */
  MODIFY_REG(tmpccer, TIM_CCER_CC5E, TIM_OCInitStruct->OCState << 16U);
 800385c:	68bb      	ldr	r3, [r7, #8]
 800385e:	f423 3280 	bic.w	r2, r3, #65536	; 0x10000
 8003862:	683b      	ldr	r3, [r7, #0]
 8003864:	685b      	ldr	r3, [r3, #4]
 8003866:	041b      	lsls	r3, r3, #16
 8003868:	4313      	orrs	r3, r2
 800386a:	60bb      	str	r3, [r7, #8]

  if (IS_TIM_BREAK_INSTANCE(TIMx))
 800386c:	687b      	ldr	r3, [r7, #4]
 800386e:	4a15      	ldr	r2, [pc, #84]	; (80038c4 <OC5Config+0xb4>)
 8003870:	4293      	cmp	r3, r2
 8003872:	d00b      	beq.n	800388c <OC5Config+0x7c>
 8003874:	687b      	ldr	r3, [r7, #4]
 8003876:	4a14      	ldr	r2, [pc, #80]	; (80038c8 <OC5Config+0xb8>)
 8003878:	4293      	cmp	r3, r2
 800387a:	d007      	beq.n	800388c <OC5Config+0x7c>
 800387c:	687b      	ldr	r3, [r7, #4]
 800387e:	4a13      	ldr	r2, [pc, #76]	; (80038cc <OC5Config+0xbc>)
 8003880:	4293      	cmp	r3, r2
 8003882:	d003      	beq.n	800388c <OC5Config+0x7c>
 8003884:	687b      	ldr	r3, [r7, #4]
 8003886:	4a12      	ldr	r2, [pc, #72]	; (80038d0 <OC5Config+0xc0>)
 8003888:	4293      	cmp	r3, r2
 800388a:	d109      	bne.n	80038a0 <OC5Config+0x90>
  {
    assert_param(IS_LL_TIM_OCIDLESTATE(TIM_OCInitStruct->OCNIdleState));
    assert_param(IS_LL_TIM_OCIDLESTATE(TIM_OCInitStruct->OCIdleState));

    /* Set the Output Idle state */
    MODIFY_REG(TIMx->CR2, TIM_CR2_OIS5, TIM_OCInitStruct->OCIdleState << 8U);
 800388c:	687b      	ldr	r3, [r7, #4]
 800388e:	685b      	ldr	r3, [r3, #4]
 8003890:	f423 3280 	bic.w	r2, r3, #65536	; 0x10000
 8003894:	683b      	ldr	r3, [r7, #0]
 8003896:	699b      	ldr	r3, [r3, #24]
 8003898:	021b      	lsls	r3, r3, #8
 800389a:	431a      	orrs	r2, r3
 800389c:	687b      	ldr	r3, [r7, #4]
 800389e:	605a      	str	r2, [r3, #4]

  }

  /* Write to TIMx CCMR3 */
  LL_TIM_WriteReg(TIMx, CCMR3, tmpccmr3);
 80038a0:	687b      	ldr	r3, [r7, #4]
 80038a2:	68fa      	ldr	r2, [r7, #12]
 80038a4:	655a      	str	r2, [r3, #84]	; 0x54

  /* Set the Capture Compare Register value */
  LL_TIM_OC_SetCompareCH5(TIMx, TIM_OCInitStruct->CompareValue);
 80038a6:	683b      	ldr	r3, [r7, #0]
 80038a8:	68db      	ldr	r3, [r3, #12]
 80038aa:	4619      	mov	r1, r3
 80038ac:	6878      	ldr	r0, [r7, #4]
 80038ae:	f7ff fc5d 	bl	800316c <LL_TIM_OC_SetCompareCH5>

  /* Write to TIMx CCER */
  LL_TIM_WriteReg(TIMx, CCER, tmpccer);
 80038b2:	687b      	ldr	r3, [r7, #4]
 80038b4:	68ba      	ldr	r2, [r7, #8]
 80038b6:	621a      	str	r2, [r3, #32]

  return SUCCESS;
 80038b8:	2300      	movs	r3, #0
}
 80038ba:	4618      	mov	r0, r3
 80038bc:	3710      	adds	r7, #16
 80038be:	46bd      	mov	sp, r7
 80038c0:	bd80      	pop	{r7, pc}
 80038c2:	bf00      	nop
 80038c4:	40012c00 	.word	0x40012c00
 80038c8:	40014000 	.word	0x40014000
 80038cc:	40014400 	.word	0x40014400
 80038d0:	40014800 	.word	0x40014800

080038d4 <OC6Config>:
  * @retval An ErrorStatus enumeration value:
  *          - SUCCESS: TIMx registers are de-initialized
  *          - ERROR: not applicable
  */
static ErrorStatus OC6Config(TIM_TypeDef *TIMx, LL_TIM_OC_InitTypeDef *TIM_OCInitStruct)
{
 80038d4:	b580      	push	{r7, lr}
 80038d6:	b084      	sub	sp, #16
 80038d8:	af00      	add	r7, sp, #0
 80038da:	6078      	str	r0, [r7, #4]
 80038dc:	6039      	str	r1, [r7, #0]
  uint32_t tmpccmr3 = 0U;
 80038de:	2300      	movs	r3, #0
 80038e0:	60fb      	str	r3, [r7, #12]
  uint32_t tmpccer = 0U;
 80038e2:	2300      	movs	r3, #0
 80038e4:	60bb      	str	r3, [r7, #8]
  assert_param(IS_LL_TIM_OCPOLARITY(TIM_OCInitStruct->OCPolarity));
  assert_param(IS_LL_TIM_OCPOLARITY(TIM_OCInitStruct->OCNPolarity));
  assert_param(IS_LL_TIM_OCSTATE(TIM_OCInitStruct->OCNState));

  /* Disable the Channel 5: Reset the CC6E Bit */
  CLEAR_BIT(TIMx->CCER, TIM_CCER_CC6E);
 80038e6:	687b      	ldr	r3, [r7, #4]
 80038e8:	6a1b      	ldr	r3, [r3, #32]
 80038ea:	f423 1280 	bic.w	r2, r3, #1048576	; 0x100000
 80038ee:	687b      	ldr	r3, [r7, #4]
 80038f0:	621a      	str	r2, [r3, #32]

  /* Get the TIMx CCER register value */
  tmpccer = LL_TIM_ReadReg(TIMx, CCER);
 80038f2:	687b      	ldr	r3, [r7, #4]
 80038f4:	6a1b      	ldr	r3, [r3, #32]
 80038f6:	60bb      	str	r3, [r7, #8]

  /* Get the TIMx CCMR3 register value */
  tmpccmr3 = LL_TIM_ReadReg(TIMx, CCMR3);
 80038f8:	687b      	ldr	r3, [r7, #4]
 80038fa:	6d5b      	ldr	r3, [r3, #84]	; 0x54
 80038fc:	60fb      	str	r3, [r7, #12]

  /* Select the Output Compare Mode */
  MODIFY_REG(tmpccmr3, TIM_CCMR3_OC6M, TIM_OCInitStruct->OCMode << 8U);
 80038fe:	68fb      	ldr	r3, [r7, #12]
 8003900:	f023 7380 	bic.w	r3, r3, #16777216	; 0x1000000
 8003904:	f423 43e0 	bic.w	r3, r3, #28672	; 0x7000
 8003908:	683a      	ldr	r2, [r7, #0]
 800390a:	6812      	ldr	r2, [r2, #0]
 800390c:	0212      	lsls	r2, r2, #8
 800390e:	4313      	orrs	r3, r2
 8003910:	60fb      	str	r3, [r7, #12]

  /* Set the Output Compare Polarity */
  MODIFY_REG(tmpccer, TIM_CCER_CC6P, TIM_OCInitStruct->OCPolarity << 20U);
 8003912:	68bb      	ldr	r3, [r7, #8]
 8003914:	f423 1200 	bic.w	r2, r3, #2097152	; 0x200000
 8003918:	683b      	ldr	r3, [r7, #0]
 800391a:	691b      	ldr	r3, [r3, #16]
 800391c:	051b      	lsls	r3, r3, #20
 800391e:	4313      	orrs	r3, r2
 8003920:	60bb      	str	r3, [r7, #8]

  /* Set the Output State */
  MODIFY_REG(tmpccer, TIM_CCER_CC6E, TIM_OCInitStruct->OCState << 20U);
 8003922:	68bb      	ldr	r3, [r7, #8]
 8003924:	f423 1280 	bic.w	r2, r3, #1048576	; 0x100000
 8003928:	683b      	ldr	r3, [r7, #0]
 800392a:	685b      	ldr	r3, [r3, #4]
 800392c:	051b      	lsls	r3, r3, #20
 800392e:	4313      	orrs	r3, r2
 8003930:	60bb      	str	r3, [r7, #8]

  if (IS_TIM_BREAK_INSTANCE(TIMx))
 8003932:	687b      	ldr	r3, [r7, #4]
 8003934:	4a14      	ldr	r2, [pc, #80]	; (8003988 <OC6Config+0xb4>)
 8003936:	4293      	cmp	r3, r2
 8003938:	d00b      	beq.n	8003952 <OC6Config+0x7e>
 800393a:	687b      	ldr	r3, [r7, #4]
 800393c:	4a13      	ldr	r2, [pc, #76]	; (800398c <OC6Config+0xb8>)
 800393e:	4293      	cmp	r3, r2
 8003940:	d007      	beq.n	8003952 <OC6Config+0x7e>
 8003942:	687b      	ldr	r3, [r7, #4]
 8003944:	4a12      	ldr	r2, [pc, #72]	; (8003990 <OC6Config+0xbc>)
 8003946:	4293      	cmp	r3, r2
 8003948:	d003      	beq.n	8003952 <OC6Config+0x7e>
 800394a:	687b      	ldr	r3, [r7, #4]
 800394c:	4a11      	ldr	r2, [pc, #68]	; (8003994 <OC6Config+0xc0>)
 800394e:	4293      	cmp	r3, r2
 8003950:	d109      	bne.n	8003966 <OC6Config+0x92>
  {
    assert_param(IS_LL_TIM_OCIDLESTATE(TIM_OCInitStruct->OCNIdleState));
    assert_param(IS_LL_TIM_OCIDLESTATE(TIM_OCInitStruct->OCIdleState));

    /* Set the Output Idle state */
    MODIFY_REG(TIMx->CR2, TIM_CR2_OIS6, TIM_OCInitStruct->OCIdleState << 10U);
 8003952:	687b      	ldr	r3, [r7, #4]
 8003954:	685b      	ldr	r3, [r3, #4]
 8003956:	f423 2280 	bic.w	r2, r3, #262144	; 0x40000
 800395a:	683b      	ldr	r3, [r7, #0]
 800395c:	699b      	ldr	r3, [r3, #24]
 800395e:	029b      	lsls	r3, r3, #10
 8003960:	431a      	orrs	r2, r3
 8003962:	687b      	ldr	r3, [r7, #4]
 8003964:	605a      	str	r2, [r3, #4]
  }

  /* Write to TIMx CCMR3 */
  LL_TIM_WriteReg(TIMx, CCMR3, tmpccmr3);
 8003966:	687b      	ldr	r3, [r7, #4]
 8003968:	68fa      	ldr	r2, [r7, #12]
 800396a:	655a      	str	r2, [r3, #84]	; 0x54

  /* Set the Capture Compare Register value */
  LL_TIM_OC_SetCompareCH6(TIMx, TIM_OCInitStruct->CompareValue);
 800396c:	683b      	ldr	r3, [r7, #0]
 800396e:	68db      	ldr	r3, [r3, #12]
 8003970:	4619      	mov	r1, r3
 8003972:	6878      	ldr	r0, [r7, #4]
 8003974:	f7ff fc08 	bl	8003188 <LL_TIM_OC_SetCompareCH6>

  /* Write to TIMx CCER */
  LL_TIM_WriteReg(TIMx, CCER, tmpccer);
 8003978:	687b      	ldr	r3, [r7, #4]
 800397a:	68ba      	ldr	r2, [r7, #8]
 800397c:	621a      	str	r2, [r3, #32]

  return SUCCESS;
 800397e:	2300      	movs	r3, #0
}
 8003980:	4618      	mov	r0, r3
 8003982:	3710      	adds	r7, #16
 8003984:	46bd      	mov	sp, r7
 8003986:	bd80      	pop	{r7, pc}
 8003988:	40012c00 	.word	0x40012c00
 800398c:	40014000 	.word	0x40014000
 8003990:	40014400 	.word	0x40014400
 8003994:	40014800 	.word	0x40014800

08003998 <LL_TIM_EnableCounter>:
{
 8003998:	b480      	push	{r7}
 800399a:	b083      	sub	sp, #12
 800399c:	af00      	add	r7, sp, #0
 800399e:	6078      	str	r0, [r7, #4]
  SET_BIT(TIMx->CR1, TIM_CR1_CEN);
 80039a0:	687b      	ldr	r3, [r7, #4]
 80039a2:	681b      	ldr	r3, [r3, #0]
 80039a4:	f043 0201 	orr.w	r2, r3, #1
 80039a8:	687b      	ldr	r3, [r7, #4]
 80039aa:	601a      	str	r2, [r3, #0]
}
 80039ac:	bf00      	nop
 80039ae:	370c      	adds	r7, #12
 80039b0:	46bd      	mov	sp, r7
 80039b2:	f85d 7b04 	ldr.w	r7, [sp], #4
 80039b6:	4770      	bx	lr

080039b8 <LL_TIM_CC_EnableChannel>:
{
 80039b8:	b480      	push	{r7}
 80039ba:	b083      	sub	sp, #12
 80039bc:	af00      	add	r7, sp, #0
 80039be:	6078      	str	r0, [r7, #4]
 80039c0:	6039      	str	r1, [r7, #0]
  SET_BIT(TIMx->CCER, Channels);
 80039c2:	687b      	ldr	r3, [r7, #4]
 80039c4:	6a1a      	ldr	r2, [r3, #32]
 80039c6:	683b      	ldr	r3, [r7, #0]
 80039c8:	431a      	orrs	r2, r3
 80039ca:	687b      	ldr	r3, [r7, #4]
 80039cc:	621a      	str	r2, [r3, #32]
}
 80039ce:	bf00      	nop
 80039d0:	370c      	adds	r7, #12
 80039d2:	46bd      	mov	sp, r7
 80039d4:	f85d 7b04 	ldr.w	r7, [sp], #4
 80039d8:	4770      	bx	lr

080039da <LL_TIM_EnableAllOutputs>:
{
 80039da:	b480      	push	{r7}
 80039dc:	b083      	sub	sp, #12
 80039de:	af00      	add	r7, sp, #0
 80039e0:	6078      	str	r0, [r7, #4]
  SET_BIT(TIMx->BDTR, TIM_BDTR_MOE);
 80039e2:	687b      	ldr	r3, [r7, #4]
 80039e4:	6c5b      	ldr	r3, [r3, #68]	; 0x44
 80039e6:	f443 4200 	orr.w	r2, r3, #32768	; 0x8000
 80039ea:	687b      	ldr	r3, [r7, #4]
 80039ec:	645a      	str	r2, [r3, #68]	; 0x44
}
 80039ee:	bf00      	nop
 80039f0:	370c      	adds	r7, #12
 80039f2:	46bd      	mov	sp, r7
 80039f4:	f85d 7b04 	ldr.w	r7, [sp], #4
 80039f8:	4770      	bx	lr

080039fa <_ZN3PWM6setTIMEP11TIM_TypeDef>:

#include "PWM.hpp"
#include "stm32f3xx_hal.h"
#include "tim.h"

void PWM::setTIM(TIM_TypeDef* pTIMx){
 80039fa:	b480      	push	{r7}
 80039fc:	b083      	sub	sp, #12
 80039fe:	af00      	add	r7, sp, #0
 8003a00:	6078      	str	r0, [r7, #4]
 8003a02:	6039      	str	r1, [r7, #0]
	mTIMx = pTIMx;
 8003a04:	687b      	ldr	r3, [r7, #4]
 8003a06:	683a      	ldr	r2, [r7, #0]
 8003a08:	601a      	str	r2, [r3, #0]
}
 8003a0a:	bf00      	nop
 8003a0c:	370c      	adds	r7, #12
 8003a0e:	46bd      	mov	sp, r7
 8003a10:	f85d 7b04 	ldr.w	r7, [sp], #4
 8003a14:	4770      	bx	lr

08003a16 <_ZN3PWM5setCHEi>:

//void PWM::setCH(__IO uint32_t pCCR);

void PWM::setCH(int pCH){
 8003a16:	b480      	push	{r7}
 8003a18:	b083      	sub	sp, #12
 8003a1a:	af00      	add	r7, sp, #0
 8003a1c:	6078      	str	r0, [r7, #4]
 8003a1e:	6039      	str	r1, [r7, #0]
	mCH = pCH;
 8003a20:	687b      	ldr	r3, [r7, #4]
 8003a22:	683a      	ldr	r2, [r7, #0]
 8003a24:	605a      	str	r2, [r3, #4]
}
 8003a26:	bf00      	nop
 8003a28:	370c      	adds	r7, #12
 8003a2a:	46bd      	mov	sp, r7
 8003a2c:	f85d 7b04 	ldr.w	r7, [sp], #4
 8003a30:	4770      	bx	lr

08003a32 <_ZN3PWM4InitEv>:

void PWM::Init(){
 8003a32:	b580      	push	{r7, lr}
 8003a34:	b082      	sub	sp, #8
 8003a36:	af00      	add	r7, sp, #0
 8003a38:	6078      	str	r0, [r7, #4]

	if(mCH==0){//error check
 8003a3a:	687b      	ldr	r3, [r7, #4]
 8003a3c:	685b      	ldr	r3, [r3, #4]
 8003a3e:	2b00      	cmp	r3, #0
 8003a40:	d100      	bne.n	8003a44 <_ZN3PWM4InitEv+0x12>
		while(1){}
 8003a42:	e7fe      	b.n	8003a42 <_ZN3PWM4InitEv+0x10>
	}

	//mREG Init
	if (mCH == 1){
 8003a44:	687b      	ldr	r3, [r7, #4]
 8003a46:	685b      	ldr	r3, [r3, #4]
 8003a48:	2b01      	cmp	r3, #1
 8003a4a:	d105      	bne.n	8003a58 <_ZN3PWM4InitEv+0x26>
		mREG=&(mTIMx->CCR1);
 8003a4c:	687b      	ldr	r3, [r7, #4]
 8003a4e:	681b      	ldr	r3, [r3, #0]
 8003a50:	f103 0234 	add.w	r2, r3, #52	; 0x34
 8003a54:	687b      	ldr	r3, [r7, #4]
 8003a56:	609a      	str	r2, [r3, #8]
	}
	if (mCH == 2){
 8003a58:	687b      	ldr	r3, [r7, #4]
 8003a5a:	685b      	ldr	r3, [r3, #4]
 8003a5c:	2b02      	cmp	r3, #2
 8003a5e:	d105      	bne.n	8003a6c <_ZN3PWM4InitEv+0x3a>
		mREG=&(mTIMx->CCR2);
 8003a60:	687b      	ldr	r3, [r7, #4]
 8003a62:	681b      	ldr	r3, [r3, #0]
 8003a64:	f103 0238 	add.w	r2, r3, #56	; 0x38
 8003a68:	687b      	ldr	r3, [r7, #4]
 8003a6a:	609a      	str	r2, [r3, #8]
	}
	if (mCH == 3){
 8003a6c:	687b      	ldr	r3, [r7, #4]
 8003a6e:	685b      	ldr	r3, [r3, #4]
 8003a70:	2b03      	cmp	r3, #3
 8003a72:	d105      	bne.n	8003a80 <_ZN3PWM4InitEv+0x4e>
		mREG=&(mTIMx->CCR3);
 8003a74:	687b      	ldr	r3, [r7, #4]
 8003a76:	681b      	ldr	r3, [r3, #0]
 8003a78:	f103 023c 	add.w	r2, r3, #60	; 0x3c
 8003a7c:	687b      	ldr	r3, [r7, #4]
 8003a7e:	609a      	str	r2, [r3, #8]
	}
	if (mCH == 4){
 8003a80:	687b      	ldr	r3, [r7, #4]
 8003a82:	685b      	ldr	r3, [r3, #4]
 8003a84:	2b04      	cmp	r3, #4
 8003a86:	d105      	bne.n	8003a94 <_ZN3PWM4InitEv+0x62>
		mREG=&(mTIMx->CCR3);
 8003a88:	687b      	ldr	r3, [r7, #4]
 8003a8a:	681b      	ldr	r3, [r3, #0]
 8003a8c:	f103 023c 	add.w	r2, r3, #60	; 0x3c
 8003a90:	687b      	ldr	r3, [r7, #4]
 8003a92:	609a      	str	r2, [r3, #8]
	}

	if(mREG==NULL){//error check
 8003a94:	687b      	ldr	r3, [r7, #4]
 8003a96:	689b      	ldr	r3, [r3, #8]
 8003a98:	2b00      	cmp	r3, #0
 8003a9a:	d100      	bne.n	8003a9e <_ZN3PWM4InitEv+0x6c>
		while(1){}
 8003a9c:	e7fe      	b.n	8003a9c <_ZN3PWM4InitEv+0x6a>
	}
	//mREG Init end

	//PWM Channel Init
	if(mTIMx==NULL){//error check
 8003a9e:	687b      	ldr	r3, [r7, #4]
 8003aa0:	681b      	ldr	r3, [r3, #0]
 8003aa2:	2b00      	cmp	r3, #0
 8003aa4:	d100      	bne.n	8003aa8 <_ZN3PWM4InitEv+0x76>
		while(1){}
 8003aa6:	e7fe      	b.n	8003aa6 <_ZN3PWM4InitEv+0x74>
	}
	if (mCH == 1){
 8003aa8:	687b      	ldr	r3, [r7, #4]
 8003aaa:	685b      	ldr	r3, [r3, #4]
 8003aac:	2b01      	cmp	r3, #1
 8003aae:	d105      	bne.n	8003abc <_ZN3PWM4InitEv+0x8a>
		LL_TIM_CC_EnableChannel(mTIMx, LL_TIM_CHANNEL_CH1);
 8003ab0:	687b      	ldr	r3, [r7, #4]
 8003ab2:	681b      	ldr	r3, [r3, #0]
 8003ab4:	2101      	movs	r1, #1
 8003ab6:	4618      	mov	r0, r3
 8003ab8:	f7ff ff7e 	bl	80039b8 <LL_TIM_CC_EnableChannel>
	}
	if (mCH == 2){
 8003abc:	687b      	ldr	r3, [r7, #4]
 8003abe:	685b      	ldr	r3, [r3, #4]
 8003ac0:	2b02      	cmp	r3, #2
 8003ac2:	d105      	bne.n	8003ad0 <_ZN3PWM4InitEv+0x9e>
		LL_TIM_CC_EnableChannel(mTIMx, LL_TIM_CHANNEL_CH2);
 8003ac4:	687b      	ldr	r3, [r7, #4]
 8003ac6:	681b      	ldr	r3, [r3, #0]
 8003ac8:	2110      	movs	r1, #16
 8003aca:	4618      	mov	r0, r3
 8003acc:	f7ff ff74 	bl	80039b8 <LL_TIM_CC_EnableChannel>
	}
	if (mCH == 3){
 8003ad0:	687b      	ldr	r3, [r7, #4]
 8003ad2:	685b      	ldr	r3, [r3, #4]
 8003ad4:	2b03      	cmp	r3, #3
 8003ad6:	d106      	bne.n	8003ae6 <_ZN3PWM4InitEv+0xb4>
		LL_TIM_CC_EnableChannel(mTIMx, LL_TIM_CHANNEL_CH3);
 8003ad8:	687b      	ldr	r3, [r7, #4]
 8003ada:	681b      	ldr	r3, [r3, #0]
 8003adc:	f44f 7180 	mov.w	r1, #256	; 0x100
 8003ae0:	4618      	mov	r0, r3
 8003ae2:	f7ff ff69 	bl	80039b8 <LL_TIM_CC_EnableChannel>
	}
	if (mCH == 4){
 8003ae6:	687b      	ldr	r3, [r7, #4]
 8003ae8:	685b      	ldr	r3, [r3, #4]
 8003aea:	2b04      	cmp	r3, #4
 8003aec:	d106      	bne.n	8003afc <_ZN3PWM4InitEv+0xca>
		LL_TIM_CC_EnableChannel(mTIMx, LL_TIM_CHANNEL_CH4);
 8003aee:	687b      	ldr	r3, [r7, #4]
 8003af0:	681b      	ldr	r3, [r3, #0]
 8003af2:	f44f 5180 	mov.w	r1, #4096	; 0x1000
 8003af6:	4618      	mov	r0, r3
 8003af8:	f7ff ff5e 	bl	80039b8 <LL_TIM_CC_EnableChannel>
	}
	//PWM Channel Init end

	//PWM TIM Init
	LL_TIM_EnableCounter(mTIMx);
 8003afc:	687b      	ldr	r3, [r7, #4]
 8003afe:	681b      	ldr	r3, [r3, #0]
 8003b00:	4618      	mov	r0, r3
 8003b02:	f7ff ff49 	bl	8003998 <LL_TIM_EnableCounter>
	//LL_TIM_GenerateEvent_UPDATE(TIM1);//
	LL_TIM_EnableAllOutputs(mTIMx);// need
 8003b06:	687b      	ldr	r3, [r7, #4]
 8003b08:	681b      	ldr	r3, [r3, #0]
 8003b0a:	4618      	mov	r0, r3
 8003b0c:	f7ff ff65 	bl	80039da <LL_TIM_EnableAllOutputs>
	//PWM TIM Init end

}
 8003b10:	bf00      	nop
 8003b12:	3708      	adds	r7, #8
 8003b14:	46bd      	mov	sp, r7
 8003b16:	bd80      	pop	{r7, pc}

08003b18 <_ZN3PWM4DutyEi>:

void PWM::Duty(int pDuty){
 8003b18:	b480      	push	{r7}
 8003b1a:	b083      	sub	sp, #12
 8003b1c:	af00      	add	r7, sp, #0
 8003b1e:	6078      	str	r0, [r7, #4]
 8003b20:	6039      	str	r1, [r7, #0]
	WRITE_REG(*mREG, pDuty);
 8003b22:	683a      	ldr	r2, [r7, #0]
 8003b24:	687b      	ldr	r3, [r7, #4]
 8003b26:	689b      	ldr	r3, [r3, #8]
 8003b28:	601a      	str	r2, [r3, #0]
}
 8003b2a:	bf00      	nop
 8003b2c:	370c      	adds	r7, #12
 8003b2e:	46bd      	mov	sp, r7
 8003b30:	f85d 7b04 	ldr.w	r7, [sp], #4
 8003b34:	4770      	bx	lr

08003b36 <LL_TIM_EnableCounter>:
{
 8003b36:	b480      	push	{r7}
 8003b38:	b083      	sub	sp, #12
 8003b3a:	af00      	add	r7, sp, #0
 8003b3c:	6078      	str	r0, [r7, #4]
  SET_BIT(TIMx->CR1, TIM_CR1_CEN);
 8003b3e:	687b      	ldr	r3, [r7, #4]
 8003b40:	681b      	ldr	r3, [r3, #0]
 8003b42:	f043 0201 	orr.w	r2, r3, #1
 8003b46:	687b      	ldr	r3, [r7, #4]
 8003b48:	601a      	str	r2, [r3, #0]
}
 8003b4a:	bf00      	nop
 8003b4c:	370c      	adds	r7, #12
 8003b4e:	46bd      	mov	sp, r7
 8003b50:	f85d 7b04 	ldr.w	r7, [sp], #4
 8003b54:	4770      	bx	lr

08003b56 <LL_TIM_SetRepetitionCounter>:
{
 8003b56:	b480      	push	{r7}
 8003b58:	b083      	sub	sp, #12
 8003b5a:	af00      	add	r7, sp, #0
 8003b5c:	6078      	str	r0, [r7, #4]
 8003b5e:	6039      	str	r1, [r7, #0]
  WRITE_REG(TIMx->RCR, RepetitionCounter);
 8003b60:	683a      	ldr	r2, [r7, #0]
 8003b62:	687b      	ldr	r3, [r7, #4]
 8003b64:	631a      	str	r2, [r3, #48]	; 0x30
}
 8003b66:	bf00      	nop
 8003b68:	370c      	adds	r7, #12
 8003b6a:	46bd      	mov	sp, r7
 8003b6c:	f85d 7b04 	ldr.w	r7, [sp], #4
 8003b70:	4770      	bx	lr

08003b72 <LL_TIM_CC_EnableChannel>:
{
 8003b72:	b480      	push	{r7}
 8003b74:	b083      	sub	sp, #12
 8003b76:	af00      	add	r7, sp, #0
 8003b78:	6078      	str	r0, [r7, #4]
 8003b7a:	6039      	str	r1, [r7, #0]
  SET_BIT(TIMx->CCER, Channels);
 8003b7c:	687b      	ldr	r3, [r7, #4]
 8003b7e:	6a1a      	ldr	r2, [r3, #32]
 8003b80:	683b      	ldr	r3, [r7, #0]
 8003b82:	431a      	orrs	r2, r3
 8003b84:	687b      	ldr	r3, [r7, #4]
 8003b86:	621a      	str	r2, [r3, #32]
}
 8003b88:	bf00      	nop
 8003b8a:	370c      	adds	r7, #12
 8003b8c:	46bd      	mov	sp, r7
 8003b8e:	f85d 7b04 	ldr.w	r7, [sp], #4
 8003b92:	4770      	bx	lr

08003b94 <LL_ADC_INJ_ConfigQueueContext>:
{
 8003b94:	b480      	push	{r7}
 8003b96:	b085      	sub	sp, #20
 8003b98:	af00      	add	r7, sp, #0
 8003b9a:	60f8      	str	r0, [r7, #12]
 8003b9c:	60b9      	str	r1, [r7, #8]
 8003b9e:	607a      	str	r2, [r7, #4]
 8003ba0:	603b      	str	r3, [r7, #0]
  MODIFY_REG(ADCx->JSQR           ,
 8003ba2:	68fb      	ldr	r3, [r7, #12]
 8003ba4:	6cda      	ldr	r2, [r3, #76]	; 0x4c
 8003ba6:	4b16      	ldr	r3, [pc, #88]	; (8003c00 <LL_ADC_INJ_ConfigQueueContext+0x6c>)
 8003ba8:	4013      	ands	r3, r2
 8003baa:	68ba      	ldr	r2, [r7, #8]
 8003bac:	2a00      	cmp	r2, #0
 8003bae:	bf14      	ite	ne
 8003bb0:	2201      	movne	r2, #1
 8003bb2:	2200      	moveq	r2, #0
 8003bb4:	b2d2      	uxtb	r2, r2
 8003bb6:	4611      	mov	r1, r2
 8003bb8:	687a      	ldr	r2, [r7, #4]
 8003bba:	fb02 f101 	mul.w	r1, r2, r1
 8003bbe:	68ba      	ldr	r2, [r7, #8]
 8003bc0:	4311      	orrs	r1, r2
 8003bc2:	6a7a      	ldr	r2, [r7, #36]	; 0x24
 8003bc4:	f002 42f8 	and.w	r2, r2, #2080374784	; 0x7c000000
 8003bc8:	4311      	orrs	r1, r2
 8003bca:	6a3a      	ldr	r2, [r7, #32]
 8003bcc:	0992      	lsrs	r2, r2, #6
 8003bce:	f002 72f8 	and.w	r2, r2, #32505856	; 0x1f00000
 8003bd2:	4311      	orrs	r1, r2
 8003bd4:	69fa      	ldr	r2, [r7, #28]
 8003bd6:	0b12      	lsrs	r2, r2, #12
 8003bd8:	f402 22f8 	and.w	r2, r2, #507904	; 0x7c000
 8003bdc:	4311      	orrs	r1, r2
 8003bde:	69ba      	ldr	r2, [r7, #24]
 8003be0:	0c92      	lsrs	r2, r2, #18
 8003be2:	f402 52f8 	and.w	r2, r2, #7936	; 0x1f00
 8003be6:	4311      	orrs	r1, r2
 8003be8:	683a      	ldr	r2, [r7, #0]
 8003bea:	430a      	orrs	r2, r1
 8003bec:	431a      	orrs	r2, r3
 8003bee:	68fb      	ldr	r3, [r7, #12]
 8003bf0:	64da      	str	r2, [r3, #76]	; 0x4c
}
 8003bf2:	bf00      	nop
 8003bf4:	3714      	adds	r7, #20
 8003bf6:	46bd      	mov	sp, r7
 8003bf8:	f85d 7b04 	ldr.w	r7, [sp], #4
 8003bfc:	4770      	bx	lr
 8003bfe:	bf00      	nop
 8003c00:	82082000 	.word	0x82082000

08003c04 <LL_ADC_EnableInternalRegulator>:
{
 8003c04:	b480      	push	{r7}
 8003c06:	b083      	sub	sp, #12
 8003c08:	af00      	add	r7, sp, #0
 8003c0a:	6078      	str	r0, [r7, #4]
  CLEAR_BIT(ADCx->CR, (ADC_CR_ADVREGEN_1 | ADC_CR_ADVREGEN_0));
 8003c0c:	687b      	ldr	r3, [r7, #4]
 8003c0e:	689b      	ldr	r3, [r3, #8]
 8003c10:	f023 5240 	bic.w	r2, r3, #805306368	; 0x30000000
 8003c14:	687b      	ldr	r3, [r7, #4]
 8003c16:	609a      	str	r2, [r3, #8]
  MODIFY_REG(ADCx->CR,
 8003c18:	687b      	ldr	r3, [r7, #4]
 8003c1a:	689b      	ldr	r3, [r3, #8]
 8003c1c:	f023 4310 	bic.w	r3, r3, #2415919104	; 0x90000000
 8003c20:	f023 033f 	bic.w	r3, r3, #63	; 0x3f
 8003c24:	f043 5280 	orr.w	r2, r3, #268435456	; 0x10000000
 8003c28:	687b      	ldr	r3, [r7, #4]
 8003c2a:	609a      	str	r2, [r3, #8]
}
 8003c2c:	bf00      	nop
 8003c2e:	370c      	adds	r7, #12
 8003c30:	46bd      	mov	sp, r7
 8003c32:	f85d 7b04 	ldr.w	r7, [sp], #4
 8003c36:	4770      	bx	lr

08003c38 <LL_ADC_Enable>:
{
 8003c38:	b480      	push	{r7}
 8003c3a:	b083      	sub	sp, #12
 8003c3c:	af00      	add	r7, sp, #0
 8003c3e:	6078      	str	r0, [r7, #4]
  MODIFY_REG(ADCx->CR,
 8003c40:	687b      	ldr	r3, [r7, #4]
 8003c42:	689b      	ldr	r3, [r3, #8]
 8003c44:	f023 4300 	bic.w	r3, r3, #2147483648	; 0x80000000
 8003c48:	f023 033f 	bic.w	r3, r3, #63	; 0x3f
 8003c4c:	f043 0201 	orr.w	r2, r3, #1
 8003c50:	687b      	ldr	r3, [r7, #4]
 8003c52:	609a      	str	r2, [r3, #8]
}
 8003c54:	bf00      	nop
 8003c56:	370c      	adds	r7, #12
 8003c58:	46bd      	mov	sp, r7
 8003c5a:	f85d 7b04 	ldr.w	r7, [sp], #4
 8003c5e:	4770      	bx	lr

08003c60 <LL_ADC_StartCalibration>:
  *         @arg @ref LL_ADC_SINGLE_ENDED
  *         @arg @ref LL_ADC_DIFFERENTIAL_ENDED
  * @retval None
  */
__STATIC_INLINE void LL_ADC_StartCalibration(ADC_TypeDef *ADCx, uint32_t SingleDiff)
{
 8003c60:	b480      	push	{r7}
 8003c62:	b083      	sub	sp, #12
 8003c64:	af00      	add	r7, sp, #0
 8003c66:	6078      	str	r0, [r7, #4]
 8003c68:	6039      	str	r1, [r7, #0]
  /* Note: Write register with some additional bits forced to state reset     */
  /*       instead of modifying only the selected bit for this function,      */
  /*       to not interfere with bits with HW property "rs".                  */
  MODIFY_REG(ADCx->CR,
 8003c6a:	687b      	ldr	r3, [r7, #4]
 8003c6c:	689b      	ldr	r3, [r3, #8]
 8003c6e:	f023 4340 	bic.w	r3, r3, #3221225472	; 0xc0000000
 8003c72:	f023 033f 	bic.w	r3, r3, #63	; 0x3f
 8003c76:	683a      	ldr	r2, [r7, #0]
 8003c78:	f002 4280 	and.w	r2, r2, #1073741824	; 0x40000000
 8003c7c:	4313      	orrs	r3, r2
 8003c7e:	f043 4200 	orr.w	r2, r3, #2147483648	; 0x80000000
 8003c82:	687b      	ldr	r3, [r7, #4]
 8003c84:	609a      	str	r2, [r3, #8]
             ADC_CR_ADCALDIF | ADC_CR_BITS_PROPERTY_RS,
             ADC_CR_ADCAL | (SingleDiff & ADC_SINGLEDIFF_CALIB_START_MASK));
}
 8003c86:	bf00      	nop
 8003c88:	370c      	adds	r7, #12
 8003c8a:	46bd      	mov	sp, r7
 8003c8c:	f85d 7b04 	ldr.w	r7, [sp], #4
 8003c90:	4770      	bx	lr

08003c92 <LL_ADC_IsCalibrationOnGoing>:
  * @rmtoll CR       ADCAL          LL_ADC_IsCalibrationOnGoing
  * @param  ADCx ADC instance
  * @retval 0: calibration complete, 1: calibration in progress.
  */
__STATIC_INLINE uint32_t LL_ADC_IsCalibrationOnGoing(ADC_TypeDef *ADCx)
{
 8003c92:	b480      	push	{r7}
 8003c94:	b083      	sub	sp, #12
 8003c96:	af00      	add	r7, sp, #0
 8003c98:	6078      	str	r0, [r7, #4]
  return (READ_BIT(ADCx->CR, ADC_CR_ADCAL) == (ADC_CR_ADCAL));
 8003c9a:	687b      	ldr	r3, [r7, #4]
 8003c9c:	689b      	ldr	r3, [r3, #8]
 8003c9e:	f003 4300 	and.w	r3, r3, #2147483648	; 0x80000000
 8003ca2:	f1b3 4f00 	cmp.w	r3, #2147483648	; 0x80000000
 8003ca6:	bf0c      	ite	eq
 8003ca8:	2301      	moveq	r3, #1
 8003caa:	2300      	movne	r3, #0
 8003cac:	b2db      	uxtb	r3, r3
}
 8003cae:	4618      	mov	r0, r3
 8003cb0:	370c      	adds	r7, #12
 8003cb2:	46bd      	mov	sp, r7
 8003cb4:	f85d 7b04 	ldr.w	r7, [sp], #4
 8003cb8:	4770      	bx	lr

08003cba <LL_ADC_INJ_StartConversion>:
  * @rmtoll CR       JADSTART       LL_ADC_INJ_StartConversion
  * @param  ADCx ADC instance
  * @retval None
  */
__STATIC_INLINE void LL_ADC_INJ_StartConversion(ADC_TypeDef *ADCx)
{
 8003cba:	b480      	push	{r7}
 8003cbc:	b083      	sub	sp, #12
 8003cbe:	af00      	add	r7, sp, #0
 8003cc0:	6078      	str	r0, [r7, #4]
  /* Note: Write register with some additional bits forced to state reset     */
  /*       instead of modifying only the selected bit for this function,      */
  /*       to not interfere with bits with HW property "rs".                  */
  MODIFY_REG(ADCx->CR,
 8003cc2:	687b      	ldr	r3, [r7, #4]
 8003cc4:	689b      	ldr	r3, [r3, #8]
 8003cc6:	f023 4300 	bic.w	r3, r3, #2147483648	; 0x80000000
 8003cca:	f023 033f 	bic.w	r3, r3, #63	; 0x3f
 8003cce:	f043 0208 	orr.w	r2, r3, #8
 8003cd2:	687b      	ldr	r3, [r7, #4]
 8003cd4:	609a      	str	r2, [r3, #8]
             ADC_CR_BITS_PROPERTY_RS,
             ADC_CR_JADSTART);
}
 8003cd6:	bf00      	nop
 8003cd8:	370c      	adds	r7, #12
 8003cda:	46bd      	mov	sp, r7
 8003cdc:	f85d 7b04 	ldr.w	r7, [sp], #4
 8003ce0:	4770      	bx	lr

08003ce2 <LL_ADC_INJ_StopConversion>:
  * @rmtoll CR       JADSTP         LL_ADC_INJ_StopConversion
  * @param  ADCx ADC instance
  * @retval None
  */
__STATIC_INLINE void LL_ADC_INJ_StopConversion(ADC_TypeDef *ADCx)
{
 8003ce2:	b480      	push	{r7}
 8003ce4:	b083      	sub	sp, #12
 8003ce6:	af00      	add	r7, sp, #0
 8003ce8:	6078      	str	r0, [r7, #4]
  /* Note: Write register with some additional bits forced to state reset     */
  /*       instead of modifying only the selected bit for this function,      */
  /*       to not interfere with bits with HW property "rs".                  */
  MODIFY_REG(ADCx->CR,
 8003cea:	687b      	ldr	r3, [r7, #4]
 8003cec:	689b      	ldr	r3, [r3, #8]
 8003cee:	f023 4300 	bic.w	r3, r3, #2147483648	; 0x80000000
 8003cf2:	f023 033f 	bic.w	r3, r3, #63	; 0x3f
 8003cf6:	f043 0220 	orr.w	r2, r3, #32
 8003cfa:	687b      	ldr	r3, [r7, #4]
 8003cfc:	609a      	str	r2, [r3, #8]
             ADC_CR_BITS_PROPERTY_RS,
             ADC_CR_JADSTP);
}
 8003cfe:	bf00      	nop
 8003d00:	370c      	adds	r7, #12
 8003d02:	46bd      	mov	sp, r7
 8003d04:	f85d 7b04 	ldr.w	r7, [sp], #4
 8003d08:	4770      	bx	lr

08003d0a <LL_ADC_INJ_IsStopConversionOngoing>:
  * @rmtoll CR       JADSTP         LL_ADC_INJ_IsStopConversionOngoing
  * @param  ADCx ADC instance
  * @retval 0: no command of conversion stop is on going on ADC group injected.
  */
__STATIC_INLINE uint32_t LL_ADC_INJ_IsStopConversionOngoing(ADC_TypeDef *ADCx)
{
 8003d0a:	b480      	push	{r7}
 8003d0c:	b083      	sub	sp, #12
 8003d0e:	af00      	add	r7, sp, #0
 8003d10:	6078      	str	r0, [r7, #4]
  return (READ_BIT(ADCx->CR, ADC_CR_JADSTP) == (ADC_CR_JADSTP));
 8003d12:	687b      	ldr	r3, [r7, #4]
 8003d14:	689b      	ldr	r3, [r3, #8]
 8003d16:	f003 0320 	and.w	r3, r3, #32
 8003d1a:	2b20      	cmp	r3, #32
 8003d1c:	bf0c      	ite	eq
 8003d1e:	2301      	moveq	r3, #1
 8003d20:	2300      	movne	r3, #0
 8003d22:	b2db      	uxtb	r3, r3
}
 8003d24:	4618      	mov	r0, r3
 8003d26:	370c      	adds	r7, #12
 8003d28:	46bd      	mov	sp, r7
 8003d2a:	f85d 7b04 	ldr.w	r7, [sp], #4
 8003d2e:	4770      	bx	lr

08003d30 <LL_ADC_INJ_ReadConversionData12>:
  *         @arg @ref LL_ADC_INJ_RANK_3
  *         @arg @ref LL_ADC_INJ_RANK_4
  * @retval Value between Min_Data=0x000 and Max_Data=0xFFF
  */
__STATIC_INLINE uint16_t LL_ADC_INJ_ReadConversionData12(ADC_TypeDef *ADCx, uint32_t Rank)
{
 8003d30:	b490      	push	{r4, r7}
 8003d32:	b084      	sub	sp, #16
 8003d34:	af00      	add	r7, sp, #0
 8003d36:	6078      	str	r0, [r7, #4]
 8003d38:	6039      	str	r1, [r7, #0]
  register __IO uint32_t *preg = __ADC_PTR_REG_OFFSET(ADCx->JDR1, __ADC_MASK_SHIFT(Rank, ADC_INJ_JDRX_REGOFFSET_MASK));
 8003d3a:	687b      	ldr	r3, [r7, #4]
 8003d3c:	3380      	adds	r3, #128	; 0x80
 8003d3e:	4619      	mov	r1, r3
 8003d40:	683b      	ldr	r3, [r7, #0]
 8003d42:	f403 7240 	and.w	r2, r3, #768	; 0x300
 8003d46:	f44f 7340 	mov.w	r3, #768	; 0x300
 8003d4a:	60fb      	str	r3, [r7, #12]
   __ASM volatile ("rbit %0, %1" : "=r" (result) : "r" (value) );
 8003d4c:	68fb      	ldr	r3, [r7, #12]
 8003d4e:	fa93 f3a3 	rbit	r3, r3
 8003d52:	60bb      	str	r3, [r7, #8]
  return(result);
 8003d54:	68bb      	ldr	r3, [r7, #8]
 8003d56:	fab3 f383 	clz	r3, r3
 8003d5a:	fa22 f303 	lsr.w	r3, r2, r3
 8003d5e:	009b      	lsls	r3, r3, #2
 8003d60:	440b      	add	r3, r1
 8003d62:	461c      	mov	r4, r3
  
  return (uint16_t)(READ_BIT(*preg,
 8003d64:	6823      	ldr	r3, [r4, #0]
                             ADC_JDR1_JDATA)
                   );
 8003d66:	b29b      	uxth	r3, r3
}
 8003d68:	4618      	mov	r0, r3
 8003d6a:	3710      	adds	r7, #16
 8003d6c:	46bd      	mov	sp, r7
 8003d6e:	bc90      	pop	{r4, r7}
 8003d70:	4770      	bx	lr

08003d72 <LL_ADC_IsActiveFlag_ADRDY>:
  * @rmtoll ISR      ADRDY          LL_ADC_IsActiveFlag_ADRDY
  * @param  ADCx ADC instance
  * @retval State of bit (1 or 0).
  */
__STATIC_INLINE uint32_t LL_ADC_IsActiveFlag_ADRDY(ADC_TypeDef *ADCx)
{
 8003d72:	b480      	push	{r7}
 8003d74:	b083      	sub	sp, #12
 8003d76:	af00      	add	r7, sp, #0
 8003d78:	6078      	str	r0, [r7, #4]
  return (READ_BIT(ADCx->ISR, LL_ADC_FLAG_ADRDY) == (LL_ADC_FLAG_ADRDY));
 8003d7a:	687b      	ldr	r3, [r7, #4]
 8003d7c:	681b      	ldr	r3, [r3, #0]
 8003d7e:	f003 0301 	and.w	r3, r3, #1
 8003d82:	2b01      	cmp	r3, #1
 8003d84:	bf0c      	ite	eq
 8003d86:	2301      	moveq	r3, #1
 8003d88:	2300      	movne	r3, #0
 8003d8a:	b2db      	uxtb	r3, r3
}
 8003d8c:	4618      	mov	r0, r3
 8003d8e:	370c      	adds	r7, #12
 8003d90:	46bd      	mov	sp, r7
 8003d92:	f85d 7b04 	ldr.w	r7, [sp], #4
 8003d96:	4770      	bx	lr

08003d98 <LL_ADC_IsActiveFlag_JEOS>:
  * @rmtoll ISR      JEOS           LL_ADC_IsActiveFlag_JEOS
  * @param  ADCx ADC instance
  * @retval State of bit (1 or 0).
  */
__STATIC_INLINE uint32_t LL_ADC_IsActiveFlag_JEOS(ADC_TypeDef *ADCx)
{
 8003d98:	b480      	push	{r7}
 8003d9a:	b083      	sub	sp, #12
 8003d9c:	af00      	add	r7, sp, #0
 8003d9e:	6078      	str	r0, [r7, #4]
  return (READ_BIT(ADCx->ISR, LL_ADC_FLAG_JEOS) == (LL_ADC_FLAG_JEOS));
 8003da0:	687b      	ldr	r3, [r7, #4]
 8003da2:	681b      	ldr	r3, [r3, #0]
 8003da4:	f003 0340 	and.w	r3, r3, #64	; 0x40
 8003da8:	2b40      	cmp	r3, #64	; 0x40
 8003daa:	bf0c      	ite	eq
 8003dac:	2301      	moveq	r3, #1
 8003dae:	2300      	movne	r3, #0
 8003db0:	b2db      	uxtb	r3, r3
}
 8003db2:	4618      	mov	r0, r3
 8003db4:	370c      	adds	r7, #12
 8003db6:	46bd      	mov	sp, r7
 8003db8:	f85d 7b04 	ldr.w	r7, [sp], #4
 8003dbc:	4770      	bx	lr

08003dbe <LL_ADC_ClearFlag_JEOS>:
  * @rmtoll ISR      JEOS           LL_ADC_ClearFlag_JEOS
  * @param  ADCx ADC instance
  * @retval None
  */
__STATIC_INLINE void LL_ADC_ClearFlag_JEOS(ADC_TypeDef *ADCx)
{
 8003dbe:	b480      	push	{r7}
 8003dc0:	b083      	sub	sp, #12
 8003dc2:	af00      	add	r7, sp, #0
 8003dc4:	6078      	str	r0, [r7, #4]
  WRITE_REG(ADCx->ISR, LL_ADC_FLAG_JEOS);
 8003dc6:	687b      	ldr	r3, [r7, #4]
 8003dc8:	2240      	movs	r2, #64	; 0x40
 8003dca:	601a      	str	r2, [r3, #0]
}
 8003dcc:	bf00      	nop
 8003dce:	370c      	adds	r7, #12
 8003dd0:	46bd      	mov	sp, r7
 8003dd2:	f85d 7b04 	ldr.w	r7, [sp], #4
 8003dd6:	4770      	bx	lr

08003dd8 <LL_ADC_EnableIT_JEOS>:
  * @rmtoll IER      JEOSIE         LL_ADC_EnableIT_JEOS
  * @param  ADCx ADC instance
  * @retval None
  */
__STATIC_INLINE void LL_ADC_EnableIT_JEOS(ADC_TypeDef *ADCx)
{
 8003dd8:	b480      	push	{r7}
 8003dda:	b083      	sub	sp, #12
 8003ddc:	af00      	add	r7, sp, #0
 8003dde:	6078      	str	r0, [r7, #4]
  SET_BIT(ADCx->IER, LL_ADC_IT_JEOS);
 8003de0:	687b      	ldr	r3, [r7, #4]
 8003de2:	685b      	ldr	r3, [r3, #4]
 8003de4:	f043 0240 	orr.w	r2, r3, #64	; 0x40
 8003de8:	687b      	ldr	r3, [r7, #4]
 8003dea:	605a      	str	r2, [r3, #4]
}
 8003dec:	bf00      	nop
 8003dee:	370c      	adds	r7, #12
 8003df0:	46bd      	mov	sp, r7
 8003df2:	f85d 7b04 	ldr.w	r7, [sp], #4
 8003df6:	4770      	bx	lr

08003df8 <LL_ADC_DisableIT_JQOVF>:
  * @rmtoll IER      JQOVFIE        LL_ADC_DisableIT_JQOVF
  * @param  ADCx ADC instance
  * @retval None
  */
__STATIC_INLINE void LL_ADC_DisableIT_JQOVF(ADC_TypeDef *ADCx)
{
 8003df8:	b480      	push	{r7}
 8003dfa:	b083      	sub	sp, #12
 8003dfc:	af00      	add	r7, sp, #0
 8003dfe:	6078      	str	r0, [r7, #4]
  CLEAR_BIT(ADCx->IER, LL_ADC_IT_JQOVF);
 8003e00:	687b      	ldr	r3, [r7, #4]
 8003e02:	685b      	ldr	r3, [r3, #4]
 8003e04:	f423 6280 	bic.w	r2, r3, #1024	; 0x400
 8003e08:	687b      	ldr	r3, [r7, #4]
 8003e0a:	605a      	str	r2, [r3, #4]
}
 8003e0c:	bf00      	nop
 8003e0e:	370c      	adds	r7, #12
 8003e10:	46bd      	mov	sp, r7
 8003e12:	f85d 7b04 	ldr.w	r7, [sp], #4
 8003e16:	4770      	bx	lr

08003e18 <_ZnwjPv>:
#endif // __cpp_sized_deallocation
#endif // __cpp_aligned_new

// Default placement versions of operator new.
inline void* operator new(std::size_t, void* __p) _GLIBCXX_USE_NOEXCEPT
{ return __p; }
 8003e18:	b480      	push	{r7}
 8003e1a:	b083      	sub	sp, #12
 8003e1c:	af00      	add	r7, sp, #0
 8003e1e:	6078      	str	r0, [r7, #4]
 8003e20:	6039      	str	r1, [r7, #0]
 8003e22:	683b      	ldr	r3, [r7, #0]
 8003e24:	4618      	mov	r0, r3
 8003e26:	370c      	adds	r7, #12
 8003e28:	46bd      	mov	sp, r7
 8003e2a:	f85d 7b04 	ldr.w	r7, [sp], #4
 8003e2e:	4770      	bx	lr

08003e30 <_ZN3PWMC1Ev>:


#ifndef PWM_HPP_
#define PWM_HPP_

class PWM {
 8003e30:	b480      	push	{r7}
 8003e32:	b083      	sub	sp, #12
 8003e34:	af00      	add	r7, sp, #0
 8003e36:	6078      	str	r0, [r7, #4]
 8003e38:	687b      	ldr	r3, [r7, #4]
 8003e3a:	2200      	movs	r2, #0
 8003e3c:	605a      	str	r2, [r3, #4]
 8003e3e:	687b      	ldr	r3, [r7, #4]
 8003e40:	4618      	mov	r0, r3
 8003e42:	370c      	adds	r7, #12
 8003e44:	46bd      	mov	sp, r7
 8003e46:	f85d 7b04 	ldr.w	r7, [sp], #4
 8003e4a:	4770      	bx	lr

08003e4c <CPP_Wrapper>:
void HighFreqTask(void);

void vectorInit(std::vector<int> *pVector);//
void ADCReInit(void);

void CPP_Wrapper(void){
 8003e4c:	b580      	push	{r7, lr}
 8003e4e:	b090      	sub	sp, #64	; 0x40
 8003e50:	af00      	add	r7, sp, #0

	std::vector<int> num;
 8003e52:	f107 0330 	add.w	r3, r7, #48	; 0x30
 8003e56:	4618      	mov	r0, r3
 8003e58:	f000 f9f6 	bl	8004248 <_ZNSt6vectorIiSaIiEEC1Ev>
	vectorInit(&num);
 8003e5c:	f107 0330 	add.w	r3, r7, #48	; 0x30
 8003e60:	4618      	mov	r0, r3
 8003e62:	f000 f905 	bl	8004070 <_Z10vectorInitPSt6vectorIiSaIiEE>

	PWM PWM_Object1;
 8003e66:	f107 0324 	add.w	r3, r7, #36	; 0x24
 8003e6a:	4618      	mov	r0, r3
 8003e6c:	f7ff ffe0 	bl	8003e30 <_ZN3PWMC1Ev>
	PWM PWM_Object2;
 8003e70:	f107 0318 	add.w	r3, r7, #24
 8003e74:	4618      	mov	r0, r3
 8003e76:	f7ff ffdb 	bl	8003e30 <_ZN3PWMC1Ev>
	PWM PWM_Object3;
 8003e7a:	f107 030c 	add.w	r3, r7, #12
 8003e7e:	4618      	mov	r0, r3
 8003e80:	f7ff ffd6 	bl	8003e30 <_ZN3PWMC1Ev>
	PWM PWM_Object4;
 8003e84:	463b      	mov	r3, r7
 8003e86:	4618      	mov	r0, r3
 8003e88:	f7ff ffd2 	bl	8003e30 <_ZN3PWMC1Ev>

	PWM_Object1.setTIM(TIM1);
 8003e8c:	f107 0324 	add.w	r3, r7, #36	; 0x24
 8003e90:	4957      	ldr	r1, [pc, #348]	; (8003ff0 <CPP_Wrapper+0x1a4>)
 8003e92:	4618      	mov	r0, r3
 8003e94:	f7ff fdb1 	bl	80039fa <_ZN3PWM6setTIMEP11TIM_TypeDef>
	PWM_Object2.setTIM(TIM1);
 8003e98:	f107 0318 	add.w	r3, r7, #24
 8003e9c:	4954      	ldr	r1, [pc, #336]	; (8003ff0 <CPP_Wrapper+0x1a4>)
 8003e9e:	4618      	mov	r0, r3
 8003ea0:	f7ff fdab 	bl	80039fa <_ZN3PWM6setTIMEP11TIM_TypeDef>
	PWM_Object3.setTIM(TIM1);
 8003ea4:	f107 030c 	add.w	r3, r7, #12
 8003ea8:	4951      	ldr	r1, [pc, #324]	; (8003ff0 <CPP_Wrapper+0x1a4>)
 8003eaa:	4618      	mov	r0, r3
 8003eac:	f7ff fda5 	bl	80039fa <_ZN3PWM6setTIMEP11TIM_TypeDef>
	PWM_Object4.setTIM(TIM1);
 8003eb0:	463b      	mov	r3, r7
 8003eb2:	494f      	ldr	r1, [pc, #316]	; (8003ff0 <CPP_Wrapper+0x1a4>)
 8003eb4:	4618      	mov	r0, r3
 8003eb6:	f7ff fda0 	bl	80039fa <_ZN3PWM6setTIMEP11TIM_TypeDef>

	PWM_Object1.setCH(1);
 8003eba:	f107 0324 	add.w	r3, r7, #36	; 0x24
 8003ebe:	2101      	movs	r1, #1
 8003ec0:	4618      	mov	r0, r3
 8003ec2:	f7ff fda8 	bl	8003a16 <_ZN3PWM5setCHEi>
	PWM_Object2.setCH(2);
 8003ec6:	f107 0318 	add.w	r3, r7, #24
 8003eca:	2102      	movs	r1, #2
 8003ecc:	4618      	mov	r0, r3
 8003ece:	f7ff fda2 	bl	8003a16 <_ZN3PWM5setCHEi>
	PWM_Object3.setCH(3);
 8003ed2:	f107 030c 	add.w	r3, r7, #12
 8003ed6:	2103      	movs	r1, #3
 8003ed8:	4618      	mov	r0, r3
 8003eda:	f7ff fd9c 	bl	8003a16 <_ZN3PWM5setCHEi>
	PWM_Object4.setCH(4);
 8003ede:	463b      	mov	r3, r7
 8003ee0:	2104      	movs	r1, #4
 8003ee2:	4618      	mov	r0, r3
 8003ee4:	f7ff fd97 	bl	8003a16 <_ZN3PWM5setCHEi>

	PWM_Object1.Init();
 8003ee8:	f107 0324 	add.w	r3, r7, #36	; 0x24
 8003eec:	4618      	mov	r0, r3
 8003eee:	f7ff fda0 	bl	8003a32 <_ZN3PWM4InitEv>
	PWM_Object2.Init();
 8003ef2:	f107 0318 	add.w	r3, r7, #24
 8003ef6:	4618      	mov	r0, r3
 8003ef8:	f7ff fd9b 	bl	8003a32 <_ZN3PWM4InitEv>
	PWM_Object3.Init();
 8003efc:	f107 030c 	add.w	r3, r7, #12
 8003f00:	4618      	mov	r0, r3
 8003f02:	f7ff fd96 	bl	8003a32 <_ZN3PWM4InitEv>
	PWM_Object4.Init();
 8003f06:	463b      	mov	r3, r7
 8003f08:	4618      	mov	r0, r3
 8003f0a:	f7ff fd92 	bl	8003a32 <_ZN3PWM4InitEv>


	PWM_Object1.Duty(60000);
 8003f0e:	f107 0324 	add.w	r3, r7, #36	; 0x24
 8003f12:	f64e 2160 	movw	r1, #60000	; 0xea60
 8003f16:	4618      	mov	r0, r3
 8003f18:	f7ff fdfe 	bl	8003b18 <_ZN3PWM4DutyEi>
	PWM_Object2.Duty(60000);
 8003f1c:	f107 0318 	add.w	r3, r7, #24
 8003f20:	f64e 2160 	movw	r1, #60000	; 0xea60
 8003f24:	4618      	mov	r0, r3
 8003f26:	f7ff fdf7 	bl	8003b18 <_ZN3PWM4DutyEi>
	PWM_Object3.Duty(60000);
 8003f2a:	f107 030c 	add.w	r3, r7, #12
 8003f2e:	f64e 2160 	movw	r1, #60000	; 0xea60
 8003f32:	4618      	mov	r0, r3
 8003f34:	f7ff fdf0 	bl	8003b18 <_ZN3PWM4DutyEi>
	PWM_Object4.Duty(60000);
 8003f38:	463b      	mov	r3, r7
 8003f3a:	f64e 2160 	movw	r1, #60000	; 0xea60
 8003f3e:	4618      	mov	r0, r3
 8003f40:	f7ff fdea 	bl	8003b18 <_ZN3PWM4DutyEi>
	ADCReInit();
 8003f44:	f000 f900 	bl	8004148 <_Z9ADCReInitv>


	while(1){
		  for(int i=0;i<600;i++){
 8003f48:	2300      	movs	r3, #0
 8003f4a:	63fb      	str	r3, [r7, #60]	; 0x3c
 8003f4c:	6bfb      	ldr	r3, [r7, #60]	; 0x3c
 8003f4e:	f5b3 7f16 	cmp.w	r3, #600	; 0x258
 8003f52:	daf9      	bge.n	8003f48 <CPP_Wrapper+0xfc>
			  HAL_Delay(1);
 8003f54:	2001      	movs	r0, #1
 8003f56:	f7fc fe6b 	bl	8000c30 <HAL_Delay>
			  PWM_Object1.Duty(num[i]);
 8003f5a:	6bfa      	ldr	r2, [r7, #60]	; 0x3c
 8003f5c:	f107 0330 	add.w	r3, r7, #48	; 0x30
 8003f60:	4611      	mov	r1, r2
 8003f62:	4618      	mov	r0, r3
 8003f64:	f000 f97d 	bl	8004262 <_ZNSt6vectorIiSaIiEEixEj>
 8003f68:	4603      	mov	r3, r0
 8003f6a:	681a      	ldr	r2, [r3, #0]
 8003f6c:	f107 0324 	add.w	r3, r7, #36	; 0x24
 8003f70:	4611      	mov	r1, r2
 8003f72:	4618      	mov	r0, r3
 8003f74:	f7ff fdd0 	bl	8003b18 <_ZN3PWM4DutyEi>
			  PWM_Object2.Duty(num[(i+200)%600]);
 8003f78:	6bfb      	ldr	r3, [r7, #60]	; 0x3c
 8003f7a:	33c8      	adds	r3, #200	; 0xc8
 8003f7c:	4a1d      	ldr	r2, [pc, #116]	; (8003ff4 <CPP_Wrapper+0x1a8>)
 8003f7e:	fb82 1203 	smull	r1, r2, r2, r3
 8003f82:	1191      	asrs	r1, r2, #6
 8003f84:	17da      	asrs	r2, r3, #31
 8003f86:	1a8a      	subs	r2, r1, r2
 8003f88:	f44f 7116 	mov.w	r1, #600	; 0x258
 8003f8c:	fb01 f202 	mul.w	r2, r1, r2
 8003f90:	1a9a      	subs	r2, r3, r2
 8003f92:	f107 0330 	add.w	r3, r7, #48	; 0x30
 8003f96:	4611      	mov	r1, r2
 8003f98:	4618      	mov	r0, r3
 8003f9a:	f000 f962 	bl	8004262 <_ZNSt6vectorIiSaIiEEixEj>
 8003f9e:	4603      	mov	r3, r0
 8003fa0:	681a      	ldr	r2, [r3, #0]
 8003fa2:	f107 0318 	add.w	r3, r7, #24
 8003fa6:	4611      	mov	r1, r2
 8003fa8:	4618      	mov	r0, r3
 8003faa:	f7ff fdb5 	bl	8003b18 <_ZN3PWM4DutyEi>
			  PWM_Object3.Duty(num[(i+400)%600]);
 8003fae:	6bfb      	ldr	r3, [r7, #60]	; 0x3c
 8003fb0:	f503 73c8 	add.w	r3, r3, #400	; 0x190
 8003fb4:	4a0f      	ldr	r2, [pc, #60]	; (8003ff4 <CPP_Wrapper+0x1a8>)
 8003fb6:	fb82 1203 	smull	r1, r2, r2, r3
 8003fba:	1191      	asrs	r1, r2, #6
 8003fbc:	17da      	asrs	r2, r3, #31
 8003fbe:	1a8a      	subs	r2, r1, r2
 8003fc0:	f44f 7116 	mov.w	r1, #600	; 0x258
 8003fc4:	fb01 f202 	mul.w	r2, r1, r2
 8003fc8:	1a9a      	subs	r2, r3, r2
 8003fca:	f107 0330 	add.w	r3, r7, #48	; 0x30
 8003fce:	4611      	mov	r1, r2
 8003fd0:	4618      	mov	r0, r3
 8003fd2:	f000 f946 	bl	8004262 <_ZNSt6vectorIiSaIiEEixEj>
 8003fd6:	4603      	mov	r3, r0
 8003fd8:	681a      	ldr	r2, [r3, #0]
 8003fda:	f107 030c 	add.w	r3, r7, #12
 8003fde:	4611      	mov	r1, r2
 8003fe0:	4618      	mov	r0, r3
 8003fe2:	f7ff fd99 	bl	8003b18 <_ZN3PWM4DutyEi>
		  for(int i=0;i<600;i++){
 8003fe6:	6bfb      	ldr	r3, [r7, #60]	; 0x3c
 8003fe8:	3301      	adds	r3, #1
 8003fea:	63fb      	str	r3, [r7, #60]	; 0x3c
 8003fec:	e7ae      	b.n	8003f4c <CPP_Wrapper+0x100>
 8003fee:	bf00      	nop
 8003ff0:	40012c00 	.word	0x40012c00
 8003ff4:	1b4e81b5 	.word	0x1b4e81b5

08003ff8 <HighFreqTask>:
		  }
	}
}

void HighFreqTask(void){
 8003ff8:	b580      	push	{r7, lr}
 8003ffa:	b082      	sub	sp, #8
 8003ffc:	af00      	add	r7, sp, #0
	uint16_t adc_data1 = 0, adc_data2 = 0, adc_data3 = 0, adc_data4 = 0;
 8003ffe:	2300      	movs	r3, #0
 8004000:	80fb      	strh	r3, [r7, #6]
 8004002:	2300      	movs	r3, #0
 8004004:	80bb      	strh	r3, [r7, #4]
 8004006:	2300      	movs	r3, #0
 8004008:	807b      	strh	r3, [r7, #2]
 800400a:	2300      	movs	r3, #0
 800400c:	803b      	strh	r3, [r7, #0]
	if (LL_ADC_IsActiveFlag_JEOS(ADC1) == 1)
 800400e:	f04f 40a0 	mov.w	r0, #1342177280	; 0x50000000
 8004012:	f7ff fec1 	bl	8003d98 <LL_ADC_IsActiveFlag_JEOS>
 8004016:	4603      	mov	r3, r0
 8004018:	2b01      	cmp	r3, #1
 800401a:	bf0c      	ite	eq
 800401c:	2301      	moveq	r3, #1
 800401e:	2300      	movne	r3, #0
 8004020:	b2db      	uxtb	r3, r3
 8004022:	2b00      	cmp	r3, #0
 8004024:	d01b      	beq.n	800405e <HighFreqTask+0x66>
		{
			LL_ADC_ClearFlag_JEOS(ADC1);
 8004026:	f04f 40a0 	mov.w	r0, #1342177280	; 0x50000000
 800402a:	f7ff fec8 	bl	8003dbe <LL_ADC_ClearFlag_JEOS>
			adc_data1 = LL_ADC_INJ_ReadConversionData12(ADC1, LL_ADC_INJ_RANK_1);
 800402e:	2108      	movs	r1, #8
 8004030:	f04f 40a0 	mov.w	r0, #1342177280	; 0x50000000
 8004034:	f7ff fe7c 	bl	8003d30 <LL_ADC_INJ_ReadConversionData12>
 8004038:	4603      	mov	r3, r0
 800403a:	80fb      	strh	r3, [r7, #6]
			adc_data2 = LL_ADC_INJ_ReadConversionData12(ADC1, LL_ADC_INJ_RANK_2);
 800403c:	f44f 7187 	mov.w	r1, #270	; 0x10e
 8004040:	f04f 40a0 	mov.w	r0, #1342177280	; 0x50000000
 8004044:	f7ff fe74 	bl	8003d30 <LL_ADC_INJ_ReadConversionData12>
 8004048:	4603      	mov	r3, r0
 800404a:	80bb      	strh	r3, [r7, #4]
			adc_data3 = LL_ADC_INJ_ReadConversionData12(ADC1, LL_ADC_INJ_RANK_3);
 800404c:	f44f 7105 	mov.w	r1, #532	; 0x214
 8004050:	f04f 40a0 	mov.w	r0, #1342177280	; 0x50000000
 8004054:	f7ff fe6c 	bl	8003d30 <LL_ADC_INJ_ReadConversionData12>
 8004058:	4603      	mov	r3, r0
 800405a:	807b      	strh	r3, [r7, #2]
		}
	else
		{
			LL_ADC_WriteReg(ADC1,ISR,0);
		}
}
 800405c:	e003      	b.n	8004066 <HighFreqTask+0x6e>
			LL_ADC_WriteReg(ADC1,ISR,0);
 800405e:	f04f 43a0 	mov.w	r3, #1342177280	; 0x50000000
 8004062:	2200      	movs	r2, #0
 8004064:	601a      	str	r2, [r3, #0]
}
 8004066:	bf00      	nop
 8004068:	3708      	adds	r7, #8
 800406a:	46bd      	mov	sp, r7
 800406c:	bd80      	pop	{r7, pc}
	...

08004070 <_Z10vectorInitPSt6vectorIiSaIiEE>:




void vectorInit(std::vector<int> *pVector){
 8004070:	b5b0      	push	{r4, r5, r7, lr}
 8004072:	b088      	sub	sp, #32
 8004074:	af00      	add	r7, sp, #0
 8004076:	6078      	str	r0, [r7, #4]
	int lange;
	lange = 600;
 8004078:	f44f 7316 	mov.w	r3, #600	; 0x258
 800407c:	61bb      	str	r3, [r7, #24]
	int count = 65535;
 800407e:	f64f 73ff 	movw	r3, #65535	; 0xffff
 8004082:	617b      	str	r3, [r7, #20]
	for(int i=0;i<lange;i++){
 8004084:	2300      	movs	r3, #0
 8004086:	61fb      	str	r3, [r7, #28]
 8004088:	69fa      	ldr	r2, [r7, #28]
 800408a:	69bb      	ldr	r3, [r7, #24]
 800408c:	429a      	cmp	r2, r3
 800408e:	da53      	bge.n	8004138 <_Z10vectorInitPSt6vectorIiSaIiEE+0xc8>
		float fsinval = sin(i*2*M_PI/(float)lange);
 8004090:	69fb      	ldr	r3, [r7, #28]
 8004092:	005b      	lsls	r3, r3, #1
 8004094:	4618      	mov	r0, r3
 8004096:	f7fc f9e9 	bl	800046c <__aeabi_i2d>
 800409a:	a329      	add	r3, pc, #164	; (adr r3, 8004140 <_Z10vectorInitPSt6vectorIiSaIiEE+0xd0>)
 800409c:	e9d3 2300 	ldrd	r2, r3, [r3]
 80040a0:	f7fc fa4e 	bl	8000540 <__aeabi_dmul>
 80040a4:	4603      	mov	r3, r0
 80040a6:	460c      	mov	r4, r1
 80040a8:	4625      	mov	r5, r4
 80040aa:	461c      	mov	r4, r3
 80040ac:	69bb      	ldr	r3, [r7, #24]
 80040ae:	ee07 3a90 	vmov	s15, r3
 80040b2:	eef8 7ae7 	vcvt.f32.s32	s15, s15
 80040b6:	ee17 0a90 	vmov	r0, s15
 80040ba:	f7fc f9e9 	bl	8000490 <__aeabi_f2d>
 80040be:	4602      	mov	r2, r0
 80040c0:	460b      	mov	r3, r1
 80040c2:	4620      	mov	r0, r4
 80040c4:	4629      	mov	r1, r5
 80040c6:	f7fc fb65 	bl	8000794 <__aeabi_ddiv>
 80040ca:	4603      	mov	r3, r0
 80040cc:	460c      	mov	r4, r1
 80040ce:	ec44 3b17 	vmov	d7, r3, r4
 80040d2:	eeb0 0a47 	vmov.f32	s0, s14
 80040d6:	eef0 0a67 	vmov.f32	s1, s15
 80040da:	f001 fc71 	bl	80059c0 <sin>
 80040de:	ec54 3b10 	vmov	r3, r4, d0
 80040e2:	4618      	mov	r0, r3
 80040e4:	4621      	mov	r1, r4
 80040e6:	f7fc fced 	bl	8000ac4 <__aeabi_d2f>
 80040ea:	4603      	mov	r3, r0
 80040ec:	613b      	str	r3, [r7, #16]
		int val = count/2 * fsinval + count/2;
 80040ee:	697b      	ldr	r3, [r7, #20]
 80040f0:	0fda      	lsrs	r2, r3, #31
 80040f2:	4413      	add	r3, r2
 80040f4:	105b      	asrs	r3, r3, #1
 80040f6:	ee07 3a90 	vmov	s15, r3
 80040fa:	eeb8 7ae7 	vcvt.f32.s32	s14, s15
 80040fe:	edd7 7a04 	vldr	s15, [r7, #16]
 8004102:	ee27 7a27 	vmul.f32	s14, s14, s15
 8004106:	697b      	ldr	r3, [r7, #20]
 8004108:	0fda      	lsrs	r2, r3, #31
 800410a:	4413      	add	r3, r2
 800410c:	105b      	asrs	r3, r3, #1
 800410e:	ee07 3a90 	vmov	s15, r3
 8004112:	eef8 7ae7 	vcvt.f32.s32	s15, s15
 8004116:	ee77 7a27 	vadd.f32	s15, s14, s15
 800411a:	eefd 7ae7 	vcvt.s32.f32	s15, s15
 800411e:	ee17 3a90 	vmov	r3, s15
 8004122:	60fb      	str	r3, [r7, #12]
		pVector->push_back(val);
 8004124:	f107 030c 	add.w	r3, r7, #12
 8004128:	4619      	mov	r1, r3
 800412a:	6878      	ldr	r0, [r7, #4]
 800412c:	f000 f8a9 	bl	8004282 <_ZNSt6vectorIiSaIiEE9push_backERKi>
	for(int i=0;i<lange;i++){
 8004130:	69fb      	ldr	r3, [r7, #28]
 8004132:	3301      	adds	r3, #1
 8004134:	61fb      	str	r3, [r7, #28]
 8004136:	e7a7      	b.n	8004088 <_Z10vectorInitPSt6vectorIiSaIiEE+0x18>
	}
}
 8004138:	bf00      	nop
 800413a:	3720      	adds	r7, #32
 800413c:	46bd      	mov	sp, r7
 800413e:	bdb0      	pop	{r4, r5, r7, pc}
 8004140:	54442d18 	.word	0x54442d18
 8004144:	400921fb 	.word	0x400921fb

08004148 <_Z9ADCReInitv>:

void ADCReInit(void){
 8004148:	b580      	push	{r7, lr}
 800414a:	b084      	sub	sp, #16
 800414c:	af04      	add	r7, sp, #16
	// ADC2 Initialization
	  WRITE_REG(ADC1->DIFSEL,0U); // LL_ADC_SetChannelSingleDiff
 800414e:	f04f 43a0 	mov.w	r3, #1342177280	; 0x50000000
 8004152:	2200      	movs	r2, #0
 8004154:	f8c3 20b0 	str.w	r2, [r3, #176]	; 0xb0
	  LL_ADC_EnableInternalRegulator(ADC1);
 8004158:	f04f 40a0 	mov.w	r0, #1342177280	; 0x50000000
 800415c:	f7ff fd52 	bl	8003c04 <LL_ADC_EnableInternalRegulator>
	  HAL_Delay(10);
 8004160:	200a      	movs	r0, #10
 8004162:	f7fc fd65 	bl	8000c30 <HAL_Delay>
	  LL_ADC_StartCalibration(ADC1, LL_ADC_SINGLE_ENDED);
 8004166:	217f      	movs	r1, #127	; 0x7f
 8004168:	f04f 40a0 	mov.w	r0, #1342177280	; 0x50000000
 800416c:	f7ff fd78 	bl	8003c60 <LL_ADC_StartCalibration>
	  while (LL_ADC_IsCalibrationOnGoing(ADC1));
 8004170:	f04f 40a0 	mov.w	r0, #1342177280	; 0x50000000
 8004174:	f7ff fd8d 	bl	8003c92 <LL_ADC_IsCalibrationOnGoing>
 8004178:	4603      	mov	r3, r0
 800417a:	2b00      	cmp	r3, #0
 800417c:	bf14      	ite	ne
 800417e:	2301      	movne	r3, #1
 8004180:	2300      	moveq	r3, #0
 8004182:	b2db      	uxtb	r3, r3
 8004184:	2b00      	cmp	r3, #0
 8004186:	d000      	beq.n	800418a <_Z9ADCReInitv+0x42>
 8004188:	e7f2      	b.n	8004170 <_Z9ADCReInitv+0x28>
	  LL_ADC_Enable(ADC1);
 800418a:	f04f 40a0 	mov.w	r0, #1342177280	; 0x50000000
 800418e:	f7ff fd53 	bl	8003c38 <LL_ADC_Enable>
	  while (!LL_ADC_IsActiveFlag_ADRDY(ADC1));
 8004192:	f04f 40a0 	mov.w	r0, #1342177280	; 0x50000000
 8004196:	f7ff fdec 	bl	8003d72 <LL_ADC_IsActiveFlag_ADRDY>
 800419a:	4603      	mov	r3, r0
 800419c:	2b00      	cmp	r3, #0
 800419e:	bf0c      	ite	eq
 80041a0:	2301      	moveq	r3, #1
 80041a2:	2300      	movne	r3, #0
 80041a4:	b2db      	uxtb	r3, r3
 80041a6:	2b00      	cmp	r3, #0
 80041a8:	d000      	beq.n	80041ac <_Z9ADCReInitv+0x64>
 80041aa:	e7f2      	b.n	8004192 <_Z9ADCReInitv+0x4a>
	  // JSQR
	  LL_ADC_INJ_StopConversion(ADC1);
 80041ac:	f04f 40a0 	mov.w	r0, #1342177280	; 0x50000000
 80041b0:	f7ff fd97 	bl	8003ce2 <LL_ADC_INJ_StopConversion>
	  while (LL_ADC_INJ_IsStopConversionOngoing(ADC1));
 80041b4:	f04f 40a0 	mov.w	r0, #1342177280	; 0x50000000
 80041b8:	f7ff fda7 	bl	8003d0a <LL_ADC_INJ_IsStopConversionOngoing>
 80041bc:	4603      	mov	r3, r0
 80041be:	2b00      	cmp	r3, #0
 80041c0:	bf14      	ite	ne
 80041c2:	2301      	movne	r3, #1
 80041c4:	2300      	moveq	r3, #0
 80041c6:	b2db      	uxtb	r3, r3
 80041c8:	2b00      	cmp	r3, #0
 80041ca:	d000      	beq.n	80041ce <_Z9ADCReInitv+0x86>
 80041cc:	e7f2      	b.n	80041b4 <_Z9ADCReInitv+0x6c>
	  // CubeMXADC2JSQR
	  LL_ADC_DisableIT_JQOVF(ADC1);
 80041ce:	f04f 40a0 	mov.w	r0, #1342177280	; 0x50000000
 80041d2:	f7ff fe11 	bl	8003df8 <LL_ADC_DisableIT_JQOVF>
	  LL_ADC_INJ_ConfigQueueContext(ADC1,
 80041d6:	4b17      	ldr	r3, [pc, #92]	; (8004234 <_Z9ADCReInitv+0xec>)
 80041d8:	9303      	str	r3, [sp, #12]
 80041da:	4b17      	ldr	r3, [pc, #92]	; (8004238 <_Z9ADCReInitv+0xf0>)
 80041dc:	9302      	str	r3, [sp, #8]
 80041de:	4b17      	ldr	r3, [pc, #92]	; (800423c <_Z9ADCReInitv+0xf4>)
 80041e0:	9301      	str	r3, [sp, #4]
 80041e2:	4b17      	ldr	r3, [pc, #92]	; (8004240 <_Z9ADCReInitv+0xf8>)
 80041e4:	9300      	str	r3, [sp, #0]
 80041e6:	2302      	movs	r3, #2
 80041e8:	2240      	movs	r2, #64	; 0x40
 80041ea:	2160      	movs	r1, #96	; 0x60
 80041ec:	f04f 40a0 	mov.w	r0, #1342177280	; 0x50000000
 80041f0:	f7ff fcd0 	bl	8003b94 <LL_ADC_INJ_ConfigQueueContext>
	                                LL_ADC_CHANNEL_2,
	                                LL_ADC_CHANNEL_3,
	                                LL_ADC_CHANNEL_4);
	  //(ADCx, TriggerSource, ExternalTriggerEdge, SequencerNbRanks, Rank1_Channel, Rank2_Channel, Rank3_Channel, Rank4_Channel)
	  // Inject
	  LL_ADC_INJ_StartConversion(ADC1);
 80041f4:	f04f 40a0 	mov.w	r0, #1342177280	; 0x50000000
 80041f8:	f7ff fd5f 	bl	8003cba <LL_ADC_INJ_StartConversion>

	  // Enable ADC Interrupt
	  LL_ADC_EnableIT_JEOS(ADC1);
 80041fc:	f04f 40a0 	mov.w	r0, #1342177280	; 0x50000000
 8004200:	f7ff fdea 	bl	8003dd8 <LL_ADC_EnableIT_JEOS>

	   // Set ADC Sampling Timing
//	   LL_TIM_OC_SetCompareCH4(TIM1, (uint32_t)(65530 - 90));

	    // Enable PWM Career
	    LL_TIM_EnableCounter(TIM1);
 8004204:	480f      	ldr	r0, [pc, #60]	; (8004244 <_Z9ADCReInitv+0xfc>)
 8004206:	f7ff fc96 	bl	8003b36 <LL_TIM_EnableCounter>
	    LL_TIM_SetRepetitionCounter(TIM1,1);
 800420a:	2101      	movs	r1, #1
 800420c:	480d      	ldr	r0, [pc, #52]	; (8004244 <_Z9ADCReInitv+0xfc>)
 800420e:	f7ff fca2 	bl	8003b56 <LL_TIM_SetRepetitionCounter>

	    // Enable PWM Channels
	    LL_TIM_CC_EnableChannel(TIM1, LL_TIM_CHANNEL_CH1);
 8004212:	2101      	movs	r1, #1
 8004214:	480b      	ldr	r0, [pc, #44]	; (8004244 <_Z9ADCReInitv+0xfc>)
 8004216:	f7ff fcac 	bl	8003b72 <LL_TIM_CC_EnableChannel>
//	    LL_TIM_CC_EnableChannel(TIM1, LL_TIM_CHANNEL_CH1N);
	    LL_TIM_CC_EnableChannel(TIM1, LL_TIM_CHANNEL_CH2);
 800421a:	2110      	movs	r1, #16
 800421c:	4809      	ldr	r0, [pc, #36]	; (8004244 <_Z9ADCReInitv+0xfc>)
 800421e:	f7ff fca8 	bl	8003b72 <LL_TIM_CC_EnableChannel>
//	    LL_TIM_CC_EnableChannel(TIM1, LL_TIM_CHANNEL_CH2N);
	    LL_TIM_CC_EnableChannel(TIM1, LL_TIM_CHANNEL_CH3);
 8004222:	f44f 7180 	mov.w	r1, #256	; 0x100
 8004226:	4807      	ldr	r0, [pc, #28]	; (8004244 <_Z9ADCReInitv+0xfc>)
 8004228:	f7ff fca3 	bl	8003b72 <LL_TIM_CC_EnableChannel>
	    // Enable SPI Channel
	    //LL_SPI_Enable(SPI1);

	    // Enable EXTI Interrupt
	    //LL_EXTI_EnableIT_0_31(LL_EXTI_LINE_3);
}
 800422c:	bf00      	nop
 800422e:	46bd      	mov	sp, r7
 8004230:	bd80      	pop	{r7, pc}
 8004232:	bf00      	nop
 8004234:	10c00010 	.word	0x10c00010
 8004238:	0c900008 	.word	0x0c900008
 800423c:	08600004 	.word	0x08600004
 8004240:	04300002 	.word	0x04300002
 8004244:	40012c00 	.word	0x40012c00

08004248 <_ZNSt6vectorIiSaIiEEC1Ev>:
      // (assign() and get_allocator() are also listed in this section)

      /**
       *  @brief  Creates a %vector with no elements.
       */
      vector()
 8004248:	b580      	push	{r7, lr}
 800424a:	b082      	sub	sp, #8
 800424c:	af00      	add	r7, sp, #0
 800424e:	6078      	str	r0, [r7, #4]
#if __cplusplus >= 201103L
      noexcept(is_nothrow_default_constructible<_Alloc>::value)
#endif
      : _Base() { }
 8004250:	687b      	ldr	r3, [r7, #4]
 8004252:	4618      	mov	r0, r3
 8004254:	f000 f83a 	bl	80042cc <_ZNSt12_Vector_baseIiSaIiEEC1Ev>
 8004258:	687b      	ldr	r3, [r7, #4]
 800425a:	4618      	mov	r0, r3
 800425c:	3708      	adds	r7, #8
 800425e:	46bd      	mov	sp, r7
 8004260:	bd80      	pop	{r7, pc}

08004262 <_ZNSt6vectorIiSaIiEEixEj>:
       *  Note that data access with this operator is unchecked and
       *  out_of_range lookups are not defined. (For checked lookups
       *  see at().)
       */
      reference
      operator[](size_type __n) _GLIBCXX_NOEXCEPT
 8004262:	b480      	push	{r7}
 8004264:	b083      	sub	sp, #12
 8004266:	af00      	add	r7, sp, #0
 8004268:	6078      	str	r0, [r7, #4]
 800426a:	6039      	str	r1, [r7, #0]
      {
	__glibcxx_requires_subscript(__n);
	return *(this->_M_impl._M_start + __n);
 800426c:	687b      	ldr	r3, [r7, #4]
 800426e:	681a      	ldr	r2, [r3, #0]
 8004270:	683b      	ldr	r3, [r7, #0]
 8004272:	009b      	lsls	r3, r3, #2
 8004274:	4413      	add	r3, r2
      }
 8004276:	4618      	mov	r0, r3
 8004278:	370c      	adds	r7, #12
 800427a:	46bd      	mov	sp, r7
 800427c:	f85d 7b04 	ldr.w	r7, [sp], #4
 8004280:	4770      	bx	lr

08004282 <_ZNSt6vectorIiSaIiEE9push_backERKi>:
       *  to it.  Due to the nature of a %vector this operation can be
       *  done in constant time if the %vector has preallocated space
       *  available.
       */
      void
      push_back(const value_type& __x)
 8004282:	b580      	push	{r7, lr}
 8004284:	b082      	sub	sp, #8
 8004286:	af00      	add	r7, sp, #0
 8004288:	6078      	str	r0, [r7, #4]
 800428a:	6039      	str	r1, [r7, #0]
      {
	if (this->_M_impl._M_finish != this->_M_impl._M_end_of_storage)
 800428c:	687b      	ldr	r3, [r7, #4]
 800428e:	685a      	ldr	r2, [r3, #4]
 8004290:	687b      	ldr	r3, [r7, #4]
 8004292:	689b      	ldr	r3, [r3, #8]
 8004294:	429a      	cmp	r2, r3
 8004296:	d00c      	beq.n	80042b2 <_ZNSt6vectorIiSaIiEE9push_backERKi+0x30>
	  {
	    _Alloc_traits::construct(this->_M_impl, this->_M_impl._M_finish,
 8004298:	6878      	ldr	r0, [r7, #4]
 800429a:	687b      	ldr	r3, [r7, #4]
 800429c:	685b      	ldr	r3, [r3, #4]
 800429e:	683a      	ldr	r2, [r7, #0]
 80042a0:	4619      	mov	r1, r3
 80042a2:	f000 f844 	bl	800432e <_ZNSt16allocator_traitsISaIiEE9constructIiJRKiEEEvRS0_PT_DpOT0_>
				     __x);
	    ++this->_M_impl._M_finish;
 80042a6:	687b      	ldr	r3, [r7, #4]
 80042a8:	685b      	ldr	r3, [r3, #4]
 80042aa:	1d1a      	adds	r2, r3, #4
 80042ac:	687b      	ldr	r3, [r7, #4]
 80042ae:	605a      	str	r2, [r3, #4]
	  }
	else
	  _M_realloc_insert(end(), __x);
      }
 80042b0:	e008      	b.n	80042c4 <_ZNSt6vectorIiSaIiEE9push_backERKi+0x42>
	  _M_realloc_insert(end(), __x);
 80042b2:	6878      	ldr	r0, [r7, #4]
 80042b4:	f000 f84e 	bl	8004354 <_ZNSt6vectorIiSaIiEE3endEv>
 80042b8:	4603      	mov	r3, r0
 80042ba:	683a      	ldr	r2, [r7, #0]
 80042bc:	4619      	mov	r1, r3
 80042be:	6878      	ldr	r0, [r7, #4]
 80042c0:	f000 f85a 	bl	8004378 <_ZNSt6vectorIiSaIiEE17_M_realloc_insertIJRKiEEEvN9__gnu_cxx17__normal_iteratorIPiS1_EEDpOT_>
      }
 80042c4:	bf00      	nop
 80042c6:	3708      	adds	r7, #8
 80042c8:	46bd      	mov	sp, r7
 80042ca:	bd80      	pop	{r7, pc}

080042cc <_ZNSt12_Vector_baseIiSaIiEEC1Ev>:
      _Vector_base()
 80042cc:	b580      	push	{r7, lr}
 80042ce:	b082      	sub	sp, #8
 80042d0:	af00      	add	r7, sp, #0
 80042d2:	6078      	str	r0, [r7, #4]
      : _M_impl() { }
 80042d4:	687b      	ldr	r3, [r7, #4]
 80042d6:	4618      	mov	r0, r3
 80042d8:	f000 f8da 	bl	8004490 <_ZNSt12_Vector_baseIiSaIiEE12_Vector_implC1Ev>
 80042dc:	687b      	ldr	r3, [r7, #4]
 80042de:	4618      	mov	r0, r3
 80042e0:	3708      	adds	r7, #8
 80042e2:	46bd      	mov	sp, r7
 80042e4:	bd80      	pop	{r7, pc}

080042e6 <_ZNSt12_Vector_baseIiSaIiEE19_M_get_Tp_allocatorEv>:
      _M_get_Tp_allocator() _GLIBCXX_NOEXCEPT
 80042e6:	b480      	push	{r7}
 80042e8:	b083      	sub	sp, #12
 80042ea:	af00      	add	r7, sp, #0
 80042ec:	6078      	str	r0, [r7, #4]
      { return *static_cast<_Tp_alloc_type*>(&this->_M_impl); }
 80042ee:	687b      	ldr	r3, [r7, #4]
 80042f0:	4618      	mov	r0, r3
 80042f2:	370c      	adds	r7, #12
 80042f4:	46bd      	mov	sp, r7
 80042f6:	f85d 7b04 	ldr.w	r7, [sp], #4
 80042fa:	4770      	bx	lr

080042fc <_ZSt8_DestroyIPiiEvT_S1_RSaIT0_E>:
	__traits::destroy(__alloc, std::__addressof(*__first));
    }

  template<typename _ForwardIterator, typename _Tp>
    inline void
    _Destroy(_ForwardIterator __first, _ForwardIterator __last,
 80042fc:	b580      	push	{r7, lr}
 80042fe:	b084      	sub	sp, #16
 8004300:	af00      	add	r7, sp, #0
 8004302:	60f8      	str	r0, [r7, #12]
 8004304:	60b9      	str	r1, [r7, #8]
 8004306:	607a      	str	r2, [r7, #4]
	     allocator<_Tp>&)
    {
      _Destroy(__first, __last);
 8004308:	68b9      	ldr	r1, [r7, #8]
 800430a:	68f8      	ldr	r0, [r7, #12]
 800430c:	f000 f8e8 	bl	80044e0 <_ZSt8_DestroyIPiEvT_S1_>
    }
 8004310:	bf00      	nop
 8004312:	3710      	adds	r7, #16
 8004314:	46bd      	mov	sp, r7
 8004316:	bd80      	pop	{r7, pc}

08004318 <_ZSt7forwardIRKiEOT_RNSt16remove_referenceIS2_E4typeE>:
   *
   *  This function is used to implement "perfect forwarding".
   */
  template<typename _Tp>
    constexpr _Tp&&
    forward(typename std::remove_reference<_Tp>::type& __t) noexcept
 8004318:	b480      	push	{r7}
 800431a:	b083      	sub	sp, #12
 800431c:	af00      	add	r7, sp, #0
 800431e:	6078      	str	r0, [r7, #4]
    { return static_cast<_Tp&&>(__t); }
 8004320:	687b      	ldr	r3, [r7, #4]
 8004322:	4618      	mov	r0, r3
 8004324:	370c      	adds	r7, #12
 8004326:	46bd      	mov	sp, r7
 8004328:	f85d 7b04 	ldr.w	r7, [sp], #4
 800432c:	4770      	bx	lr

0800432e <_ZNSt16allocator_traitsISaIiEE9constructIiJRKiEEEvRS0_PT_DpOT0_>:
       *
       *  Calls <tt> __a.construct(__p, std::forward<Args>(__args)...) </tt>
      */
      template<typename _Up, typename... _Args>
	static void
	construct(allocator_type& __a, _Up* __p, _Args&&... __args)
 800432e:	b580      	push	{r7, lr}
 8004330:	b084      	sub	sp, #16
 8004332:	af00      	add	r7, sp, #0
 8004334:	60f8      	str	r0, [r7, #12]
 8004336:	60b9      	str	r1, [r7, #8]
 8004338:	607a      	str	r2, [r7, #4]
	{ __a.construct(__p, std::forward<_Args>(__args)...); }
 800433a:	6878      	ldr	r0, [r7, #4]
 800433c:	f7ff ffec 	bl	8004318 <_ZSt7forwardIRKiEOT_RNSt16remove_referenceIS2_E4typeE>
 8004340:	4603      	mov	r3, r0
 8004342:	461a      	mov	r2, r3
 8004344:	68b9      	ldr	r1, [r7, #8]
 8004346:	68f8      	ldr	r0, [r7, #12]
 8004348:	f000 f8d7 	bl	80044fa <_ZN9__gnu_cxx13new_allocatorIiE9constructIiJRKiEEEvPT_DpOT0_>
 800434c:	bf00      	nop
 800434e:	3710      	adds	r7, #16
 8004350:	46bd      	mov	sp, r7
 8004352:	bd80      	pop	{r7, pc}

08004354 <_ZNSt6vectorIiSaIiEE3endEv>:
      end() _GLIBCXX_NOEXCEPT
 8004354:	b580      	push	{r7, lr}
 8004356:	b084      	sub	sp, #16
 8004358:	af00      	add	r7, sp, #0
 800435a:	6078      	str	r0, [r7, #4]
      { return iterator(this->_M_impl._M_finish); }
 800435c:	687b      	ldr	r3, [r7, #4]
 800435e:	1d1a      	adds	r2, r3, #4
 8004360:	f107 030c 	add.w	r3, r7, #12
 8004364:	4611      	mov	r1, r2
 8004366:	4618      	mov	r0, r3
 8004368:	f000 f8df 	bl	800452a <_ZN9__gnu_cxx17__normal_iteratorIPiSt6vectorIiSaIiEEEC1ERKS1_>
 800436c:	68fb      	ldr	r3, [r7, #12]
 800436e:	4618      	mov	r0, r3
 8004370:	3710      	adds	r7, #16
 8004372:	46bd      	mov	sp, r7
 8004374:	bd80      	pop	{r7, pc}
	...

08004378 <_ZNSt6vectorIiSaIiEE17_M_realloc_insertIJRKiEEEvN9__gnu_cxx17__normal_iteratorIPiS1_EEDpOT_>:

#if __cplusplus >= 201103L
  template<typename _Tp, typename _Alloc>
    template<typename... _Args>
      void
      vector<_Tp, _Alloc>::
 8004378:	b5b0      	push	{r4, r5, r7, lr}
 800437a:	b08a      	sub	sp, #40	; 0x28
 800437c:	af00      	add	r7, sp, #0
 800437e:	60f8      	str	r0, [r7, #12]
 8004380:	60b9      	str	r1, [r7, #8]
 8004382:	607a      	str	r2, [r7, #4]
    void
    vector<_Tp, _Alloc>::
    _M_realloc_insert(iterator __position, const _Tp& __x)
#endif
    {
      const size_type __len =
 8004384:	4a41      	ldr	r2, [pc, #260]	; (800448c <_ZNSt6vectorIiSaIiEE17_M_realloc_insertIJRKiEEEvN9__gnu_cxx17__normal_iteratorIPiS1_EEDpOT_+0x114>)
 8004386:	2101      	movs	r1, #1
 8004388:	68f8      	ldr	r0, [r7, #12]
 800438a:	f000 f8de 	bl	800454a <_ZNKSt6vectorIiSaIiEE12_M_check_lenEjPKc>
 800438e:	6278      	str	r0, [r7, #36]	; 0x24
	_M_check_len(size_type(1), "vector::_M_realloc_insert");
      const size_type __elems_before = __position - begin();
 8004390:	68f8      	ldr	r0, [r7, #12]
 8004392:	f000 f922 	bl	80045da <_ZNSt6vectorIiSaIiEE5beginEv>
 8004396:	4603      	mov	r3, r0
 8004398:	617b      	str	r3, [r7, #20]
 800439a:	f107 0214 	add.w	r2, r7, #20
 800439e:	f107 0308 	add.w	r3, r7, #8
 80043a2:	4611      	mov	r1, r2
 80043a4:	4618      	mov	r0, r3
 80043a6:	f000 f928 	bl	80045fa <_ZN9__gnu_cxxmiIPiSt6vectorIiSaIiEEEENS_17__normal_iteratorIT_T0_E15difference_typeERKS8_SB_>
 80043aa:	4603      	mov	r3, r0
 80043ac:	623b      	str	r3, [r7, #32]
      pointer __new_start(this->_M_allocate(__len));
 80043ae:	68fb      	ldr	r3, [r7, #12]
 80043b0:	6a79      	ldr	r1, [r7, #36]	; 0x24
 80043b2:	4618      	mov	r0, r3
 80043b4:	f000 f937 	bl	8004626 <_ZNSt12_Vector_baseIiSaIiEE11_M_allocateEj>
 80043b8:	61f8      	str	r0, [r7, #28]
      pointer __new_finish(__new_start);
 80043ba:	69fb      	ldr	r3, [r7, #28]
 80043bc:	61bb      	str	r3, [r7, #24]
	  // The order of the three operations is dictated by the C++11
	  // case, where the moves could alter a new element belonging
	  // to the existing vector.  This is an issue only for callers
	  // taking the element by lvalue ref (see last bullet of C++11
	  // [res.on.arguments]).
	  _Alloc_traits::construct(this->_M_impl,
 80043be:	68fc      	ldr	r4, [r7, #12]
				   __new_start + __elems_before,
 80043c0:	6a3b      	ldr	r3, [r7, #32]
 80043c2:	009b      	lsls	r3, r3, #2
	  _Alloc_traits::construct(this->_M_impl,
 80043c4:	69fa      	ldr	r2, [r7, #28]
 80043c6:	18d5      	adds	r5, r2, r3
 80043c8:	6878      	ldr	r0, [r7, #4]
 80043ca:	f7ff ffa5 	bl	8004318 <_ZSt7forwardIRKiEOT_RNSt16remove_referenceIS2_E4typeE>
 80043ce:	4603      	mov	r3, r0
 80043d0:	461a      	mov	r2, r3
 80043d2:	4629      	mov	r1, r5
 80043d4:	4620      	mov	r0, r4
 80043d6:	f7ff ffaa 	bl	800432e <_ZNSt16allocator_traitsISaIiEE9constructIiJRKiEEEvRS0_PT_DpOT0_>
#if __cplusplus >= 201103L
				   std::forward<_Args>(__args)...);
#else
				   __x);
#endif
	  __new_finish = pointer();
 80043da:	2300      	movs	r3, #0
 80043dc:	61bb      	str	r3, [r7, #24]

	  __new_finish
	    = std::__uninitialized_move_if_noexcept_a
	    (this->_M_impl._M_start, __position.base(),
 80043de:	68fb      	ldr	r3, [r7, #12]
 80043e0:	681c      	ldr	r4, [r3, #0]
 80043e2:	f107 0308 	add.w	r3, r7, #8
 80043e6:	4618      	mov	r0, r3
 80043e8:	f000 f931 	bl	800464e <_ZNK9__gnu_cxx17__normal_iteratorIPiSt6vectorIiSaIiEEE4baseEv>
 80043ec:	4603      	mov	r3, r0
 80043ee:	681d      	ldr	r5, [r3, #0]
	     __new_start, _M_get_Tp_allocator());
 80043f0:	68fb      	ldr	r3, [r7, #12]
 80043f2:	4618      	mov	r0, r3
 80043f4:	f7ff ff77 	bl	80042e6 <_ZNSt12_Vector_baseIiSaIiEE19_M_get_Tp_allocatorEv>
 80043f8:	4603      	mov	r3, r0
	  __new_finish
 80043fa:	69fa      	ldr	r2, [r7, #28]
 80043fc:	4629      	mov	r1, r5
 80043fe:	4620      	mov	r0, r4
 8004400:	f000 f930 	bl	8004664 <_ZSt34__uninitialized_move_if_noexcept_aIPiS0_SaIiEET0_T_S3_S2_RT1_>
 8004404:	61b8      	str	r0, [r7, #24]

	  ++__new_finish;
 8004406:	69bb      	ldr	r3, [r7, #24]
 8004408:	3304      	adds	r3, #4
 800440a:	61bb      	str	r3, [r7, #24]

	  __new_finish
	    = std::__uninitialized_move_if_noexcept_a
	    (__position.base(), this->_M_impl._M_finish,
 800440c:	f107 0308 	add.w	r3, r7, #8
 8004410:	4618      	mov	r0, r3
 8004412:	f000 f91c 	bl	800464e <_ZNK9__gnu_cxx17__normal_iteratorIPiSt6vectorIiSaIiEEE4baseEv>
 8004416:	4603      	mov	r3, r0
 8004418:	681c      	ldr	r4, [r3, #0]
 800441a:	68fb      	ldr	r3, [r7, #12]
 800441c:	685d      	ldr	r5, [r3, #4]
	     __new_finish, _M_get_Tp_allocator());
 800441e:	68fb      	ldr	r3, [r7, #12]
 8004420:	4618      	mov	r0, r3
 8004422:	f7ff ff60 	bl	80042e6 <_ZNSt12_Vector_baseIiSaIiEE19_M_get_Tp_allocatorEv>
 8004426:	4603      	mov	r3, r0
	  __new_finish
 8004428:	69ba      	ldr	r2, [r7, #24]
 800442a:	4629      	mov	r1, r5
 800442c:	4620      	mov	r0, r4
 800442e:	f000 f919 	bl	8004664 <_ZSt34__uninitialized_move_if_noexcept_aIPiS0_SaIiEET0_T_S3_S2_RT1_>
 8004432:	61b8      	str	r0, [r7, #24]
	  else
	    std::_Destroy(__new_start, __new_finish, _M_get_Tp_allocator());
	  _M_deallocate(__new_start, __len);
	  __throw_exception_again;
	}
      std::_Destroy(this->_M_impl._M_start, this->_M_impl._M_finish,
 8004434:	68fb      	ldr	r3, [r7, #12]
 8004436:	681c      	ldr	r4, [r3, #0]
 8004438:	68fb      	ldr	r3, [r7, #12]
 800443a:	685d      	ldr	r5, [r3, #4]
		    _M_get_Tp_allocator());
 800443c:	68fb      	ldr	r3, [r7, #12]
 800443e:	4618      	mov	r0, r3
 8004440:	f7ff ff51 	bl	80042e6 <_ZNSt12_Vector_baseIiSaIiEE19_M_get_Tp_allocatorEv>
 8004444:	4603      	mov	r3, r0
      std::_Destroy(this->_M_impl._M_start, this->_M_impl._M_finish,
 8004446:	461a      	mov	r2, r3
 8004448:	4629      	mov	r1, r5
 800444a:	4620      	mov	r0, r4
 800444c:	f7ff ff56 	bl	80042fc <_ZSt8_DestroyIPiiEvT_S1_RSaIT0_E>
      _M_deallocate(this->_M_impl._M_start,
 8004450:	68f8      	ldr	r0, [r7, #12]
 8004452:	68fb      	ldr	r3, [r7, #12]
 8004454:	6819      	ldr	r1, [r3, #0]
		    this->_M_impl._M_end_of_storage
 8004456:	68fb      	ldr	r3, [r7, #12]
 8004458:	689b      	ldr	r3, [r3, #8]
		    - this->_M_impl._M_start);
 800445a:	461a      	mov	r2, r3
 800445c:	68fb      	ldr	r3, [r7, #12]
 800445e:	681b      	ldr	r3, [r3, #0]
 8004460:	1ad3      	subs	r3, r2, r3
 8004462:	109b      	asrs	r3, r3, #2
      _M_deallocate(this->_M_impl._M_start,
 8004464:	461a      	mov	r2, r3
 8004466:	f000 f828 	bl	80044ba <_ZNSt12_Vector_baseIiSaIiEE13_M_deallocateEPij>
      this->_M_impl._M_start = __new_start;
 800446a:	68fb      	ldr	r3, [r7, #12]
 800446c:	69fa      	ldr	r2, [r7, #28]
 800446e:	601a      	str	r2, [r3, #0]
      this->_M_impl._M_finish = __new_finish;
 8004470:	68fb      	ldr	r3, [r7, #12]
 8004472:	69ba      	ldr	r2, [r7, #24]
 8004474:	605a      	str	r2, [r3, #4]
      this->_M_impl._M_end_of_storage = __new_start + __len;
 8004476:	6a7b      	ldr	r3, [r7, #36]	; 0x24
 8004478:	009b      	lsls	r3, r3, #2
 800447a:	69fa      	ldr	r2, [r7, #28]
 800447c:	441a      	add	r2, r3
 800447e:	68fb      	ldr	r3, [r7, #12]
 8004480:	609a      	str	r2, [r3, #8]
    }
 8004482:	bf00      	nop
 8004484:	3728      	adds	r7, #40	; 0x28
 8004486:	46bd      	mov	sp, r7
 8004488:	bdb0      	pop	{r4, r5, r7, pc}
 800448a:	bf00      	nop
 800448c:	08006cc0 	.word	0x08006cc0

08004490 <_ZNSt12_Vector_baseIiSaIiEE12_Vector_implC1Ev>:
	_Vector_impl()
 8004490:	b580      	push	{r7, lr}
 8004492:	b082      	sub	sp, #8
 8004494:	af00      	add	r7, sp, #0
 8004496:	6078      	str	r0, [r7, #4]
	: _Tp_alloc_type(), _M_start(), _M_finish(), _M_end_of_storage()
 8004498:	6878      	ldr	r0, [r7, #4]
 800449a:	f000 f8fc 	bl	8004696 <_ZNSaIiEC1Ev>
 800449e:	687b      	ldr	r3, [r7, #4]
 80044a0:	2200      	movs	r2, #0
 80044a2:	601a      	str	r2, [r3, #0]
 80044a4:	687b      	ldr	r3, [r7, #4]
 80044a6:	2200      	movs	r2, #0
 80044a8:	605a      	str	r2, [r3, #4]
 80044aa:	687b      	ldr	r3, [r7, #4]
 80044ac:	2200      	movs	r2, #0
 80044ae:	609a      	str	r2, [r3, #8]
	{ }
 80044b0:	687b      	ldr	r3, [r7, #4]
 80044b2:	4618      	mov	r0, r3
 80044b4:	3708      	adds	r7, #8
 80044b6:	46bd      	mov	sp, r7
 80044b8:	bd80      	pop	{r7, pc}

080044ba <_ZNSt12_Vector_baseIiSaIiEE13_M_deallocateEPij>:
      _M_deallocate(pointer __p, size_t __n)
 80044ba:	b580      	push	{r7, lr}
 80044bc:	b084      	sub	sp, #16
 80044be:	af00      	add	r7, sp, #0
 80044c0:	60f8      	str	r0, [r7, #12]
 80044c2:	60b9      	str	r1, [r7, #8]
 80044c4:	607a      	str	r2, [r7, #4]
	if (__p)
 80044c6:	68bb      	ldr	r3, [r7, #8]
 80044c8:	2b00      	cmp	r3, #0
 80044ca:	d005      	beq.n	80044d8 <_ZNSt12_Vector_baseIiSaIiEE13_M_deallocateEPij+0x1e>
	  _Tr::deallocate(_M_impl, __p, __n);
 80044cc:	68fb      	ldr	r3, [r7, #12]
 80044ce:	687a      	ldr	r2, [r7, #4]
 80044d0:	68b9      	ldr	r1, [r7, #8]
 80044d2:	4618      	mov	r0, r3
 80044d4:	f000 f8eb 	bl	80046ae <_ZNSt16allocator_traitsISaIiEE10deallocateERS0_Pij>
      }
 80044d8:	bf00      	nop
 80044da:	3710      	adds	r7, #16
 80044dc:	46bd      	mov	sp, r7
 80044de:	bd80      	pop	{r7, pc}

080044e0 <_ZSt8_DestroyIPiEvT_S1_>:
    _Destroy(_ForwardIterator __first, _ForwardIterator __last)
 80044e0:	b580      	push	{r7, lr}
 80044e2:	b082      	sub	sp, #8
 80044e4:	af00      	add	r7, sp, #0
 80044e6:	6078      	str	r0, [r7, #4]
 80044e8:	6039      	str	r1, [r7, #0]
	__destroy(__first, __last);
 80044ea:	6839      	ldr	r1, [r7, #0]
 80044ec:	6878      	ldr	r0, [r7, #4]
 80044ee:	f000 f8ed 	bl	80046cc <_ZNSt12_Destroy_auxILb1EE9__destroyIPiEEvT_S3_>
    }
 80044f2:	bf00      	nop
 80044f4:	3708      	adds	r7, #8
 80044f6:	46bd      	mov	sp, r7
 80044f8:	bd80      	pop	{r7, pc}

080044fa <_ZN9__gnu_cxx13new_allocatorIiE9constructIiJRKiEEEvPT_DpOT0_>:
      { return size_t(-1) / sizeof(_Tp); }

#if __cplusplus >= 201103L
      template<typename _Up, typename... _Args>
	void
	construct(_Up* __p, _Args&&... __args)
 80044fa:	b590      	push	{r4, r7, lr}
 80044fc:	b085      	sub	sp, #20
 80044fe:	af00      	add	r7, sp, #0
 8004500:	60f8      	str	r0, [r7, #12]
 8004502:	60b9      	str	r1, [r7, #8]
 8004504:	607a      	str	r2, [r7, #4]
	{ ::new((void *)__p) _Up(std::forward<_Args>(__args)...); }
 8004506:	6878      	ldr	r0, [r7, #4]
 8004508:	f7ff ff06 	bl	8004318 <_ZSt7forwardIRKiEOT_RNSt16remove_referenceIS2_E4typeE>
 800450c:	4603      	mov	r3, r0
 800450e:	681c      	ldr	r4, [r3, #0]
 8004510:	68bb      	ldr	r3, [r7, #8]
 8004512:	4619      	mov	r1, r3
 8004514:	2004      	movs	r0, #4
 8004516:	f7ff fc7f 	bl	8003e18 <_ZnwjPv>
 800451a:	4603      	mov	r3, r0
 800451c:	2b00      	cmp	r3, #0
 800451e:	d000      	beq.n	8004522 <_ZN9__gnu_cxx13new_allocatorIiE9constructIiJRKiEEEvPT_DpOT0_+0x28>
 8004520:	601c      	str	r4, [r3, #0]
 8004522:	bf00      	nop
 8004524:	3714      	adds	r7, #20
 8004526:	46bd      	mov	sp, r7
 8004528:	bd90      	pop	{r4, r7, pc}

0800452a <_ZN9__gnu_cxx17__normal_iteratorIPiSt6vectorIiSaIiEEEC1ERKS1_>:

      _GLIBCXX_CONSTEXPR __normal_iterator() _GLIBCXX_NOEXCEPT
      : _M_current(_Iterator()) { }

      explicit
      __normal_iterator(const _Iterator& __i) _GLIBCXX_NOEXCEPT
 800452a:	b480      	push	{r7}
 800452c:	b083      	sub	sp, #12
 800452e:	af00      	add	r7, sp, #0
 8004530:	6078      	str	r0, [r7, #4]
 8004532:	6039      	str	r1, [r7, #0]
      : _M_current(__i) { }
 8004534:	683b      	ldr	r3, [r7, #0]
 8004536:	681a      	ldr	r2, [r3, #0]
 8004538:	687b      	ldr	r3, [r7, #4]
 800453a:	601a      	str	r2, [r3, #0]
 800453c:	687b      	ldr	r3, [r7, #4]
 800453e:	4618      	mov	r0, r3
 8004540:	370c      	adds	r7, #12
 8004542:	46bd      	mov	sp, r7
 8004544:	f85d 7b04 	ldr.w	r7, [sp], #4
 8004548:	4770      	bx	lr

0800454a <_ZNKSt6vectorIiSaIiEE12_M_check_lenEjPKc>:
      { return _M_insert_rval(__position, std::move(__v)); }
#endif

      // Called by _M_fill_insert, _M_insert_aux etc.
      size_type
      _M_check_len(size_type __n, const char* __s) const
 800454a:	b590      	push	{r4, r7, lr}
 800454c:	b087      	sub	sp, #28
 800454e:	af00      	add	r7, sp, #0
 8004550:	60f8      	str	r0, [r7, #12]
 8004552:	60b9      	str	r1, [r7, #8]
 8004554:	607a      	str	r2, [r7, #4]
      {
	if (max_size() - size() < __n)
 8004556:	68f8      	ldr	r0, [r7, #12]
 8004558:	f000 f8c3 	bl	80046e2 <_ZNKSt6vectorIiSaIiEE8max_sizeEv>
 800455c:	4604      	mov	r4, r0
 800455e:	68f8      	ldr	r0, [r7, #12]
 8004560:	f000 f8d0 	bl	8004704 <_ZNKSt6vectorIiSaIiEE4sizeEv>
 8004564:	4603      	mov	r3, r0
 8004566:	1ae2      	subs	r2, r4, r3
 8004568:	68bb      	ldr	r3, [r7, #8]
 800456a:	429a      	cmp	r2, r3
 800456c:	bf34      	ite	cc
 800456e:	2301      	movcc	r3, #1
 8004570:	2300      	movcs	r3, #0
 8004572:	b2db      	uxtb	r3, r3
 8004574:	2b00      	cmp	r3, #0
 8004576:	d003      	beq.n	8004580 <_ZNKSt6vectorIiSaIiEE12_M_check_lenEjPKc+0x36>
	  __throw_length_error(__N(__s));
 8004578:	687b      	ldr	r3, [r7, #4]
 800457a:	4618      	mov	r0, r3
 800457c:	f001 fa1d 	bl	80059ba <_ZSt20__throw_length_errorPKc>

	const size_type __len = size() + std::max(size(), __n);
 8004580:	68f8      	ldr	r0, [r7, #12]
 8004582:	f000 f8bf 	bl	8004704 <_ZNKSt6vectorIiSaIiEE4sizeEv>
 8004586:	4604      	mov	r4, r0
 8004588:	68f8      	ldr	r0, [r7, #12]
 800458a:	f000 f8bb 	bl	8004704 <_ZNKSt6vectorIiSaIiEE4sizeEv>
 800458e:	4603      	mov	r3, r0
 8004590:	613b      	str	r3, [r7, #16]
 8004592:	f107 0208 	add.w	r2, r7, #8
 8004596:	f107 0310 	add.w	r3, r7, #16
 800459a:	4611      	mov	r1, r2
 800459c:	4618      	mov	r0, r3
 800459e:	f000 f8c2 	bl	8004726 <_ZSt3maxIjERKT_S2_S2_>
 80045a2:	4603      	mov	r3, r0
 80045a4:	681b      	ldr	r3, [r3, #0]
 80045a6:	4423      	add	r3, r4
 80045a8:	617b      	str	r3, [r7, #20]
	return (__len < size() || __len > max_size()) ? max_size() : __len;
 80045aa:	68f8      	ldr	r0, [r7, #12]
 80045ac:	f000 f8aa 	bl	8004704 <_ZNKSt6vectorIiSaIiEE4sizeEv>
 80045b0:	4602      	mov	r2, r0
 80045b2:	697b      	ldr	r3, [r7, #20]
 80045b4:	4293      	cmp	r3, r2
 80045b6:	d306      	bcc.n	80045c6 <_ZNKSt6vectorIiSaIiEE12_M_check_lenEjPKc+0x7c>
 80045b8:	68f8      	ldr	r0, [r7, #12]
 80045ba:	f000 f892 	bl	80046e2 <_ZNKSt6vectorIiSaIiEE8max_sizeEv>
 80045be:	4602      	mov	r2, r0
 80045c0:	697b      	ldr	r3, [r7, #20]
 80045c2:	4293      	cmp	r3, r2
 80045c4:	d904      	bls.n	80045d0 <_ZNKSt6vectorIiSaIiEE12_M_check_lenEjPKc+0x86>
 80045c6:	68f8      	ldr	r0, [r7, #12]
 80045c8:	f000 f88b 	bl	80046e2 <_ZNKSt6vectorIiSaIiEE8max_sizeEv>
 80045cc:	4603      	mov	r3, r0
 80045ce:	e000      	b.n	80045d2 <_ZNKSt6vectorIiSaIiEE12_M_check_lenEjPKc+0x88>
 80045d0:	697b      	ldr	r3, [r7, #20]
      }
 80045d2:	4618      	mov	r0, r3
 80045d4:	371c      	adds	r7, #28
 80045d6:	46bd      	mov	sp, r7
 80045d8:	bd90      	pop	{r4, r7, pc}

080045da <_ZNSt6vectorIiSaIiEE5beginEv>:
      begin() _GLIBCXX_NOEXCEPT
 80045da:	b580      	push	{r7, lr}
 80045dc:	b084      	sub	sp, #16
 80045de:	af00      	add	r7, sp, #0
 80045e0:	6078      	str	r0, [r7, #4]
      { return iterator(this->_M_impl._M_start); }
 80045e2:	687a      	ldr	r2, [r7, #4]
 80045e4:	f107 030c 	add.w	r3, r7, #12
 80045e8:	4611      	mov	r1, r2
 80045ea:	4618      	mov	r0, r3
 80045ec:	f7ff ff9d 	bl	800452a <_ZN9__gnu_cxx17__normal_iteratorIPiSt6vectorIiSaIiEEEC1ERKS1_>
 80045f0:	68fb      	ldr	r3, [r7, #12]
 80045f2:	4618      	mov	r0, r3
 80045f4:	3710      	adds	r7, #16
 80045f6:	46bd      	mov	sp, r7
 80045f8:	bd80      	pop	{r7, pc}

080045fa <_ZN9__gnu_cxxmiIPiSt6vectorIiSaIiEEEENS_17__normal_iteratorIT_T0_E15difference_typeERKS8_SB_>:
#endif
    { return __lhs.base() - __rhs.base(); }

  template<typename _Iterator, typename _Container>
    inline typename __normal_iterator<_Iterator, _Container>::difference_type
    operator-(const __normal_iterator<_Iterator, _Container>& __lhs,
 80045fa:	b590      	push	{r4, r7, lr}
 80045fc:	b083      	sub	sp, #12
 80045fe:	af00      	add	r7, sp, #0
 8004600:	6078      	str	r0, [r7, #4]
 8004602:	6039      	str	r1, [r7, #0]
	      const __normal_iterator<_Iterator, _Container>& __rhs)
    _GLIBCXX_NOEXCEPT
    { return __lhs.base() - __rhs.base(); }
 8004604:	6878      	ldr	r0, [r7, #4]
 8004606:	f000 f822 	bl	800464e <_ZNK9__gnu_cxx17__normal_iteratorIPiSt6vectorIiSaIiEEE4baseEv>
 800460a:	4603      	mov	r3, r0
 800460c:	681b      	ldr	r3, [r3, #0]
 800460e:	461c      	mov	r4, r3
 8004610:	6838      	ldr	r0, [r7, #0]
 8004612:	f000 f81c 	bl	800464e <_ZNK9__gnu_cxx17__normal_iteratorIPiSt6vectorIiSaIiEEE4baseEv>
 8004616:	4603      	mov	r3, r0
 8004618:	681b      	ldr	r3, [r3, #0]
 800461a:	1ae3      	subs	r3, r4, r3
 800461c:	109b      	asrs	r3, r3, #2
 800461e:	4618      	mov	r0, r3
 8004620:	370c      	adds	r7, #12
 8004622:	46bd      	mov	sp, r7
 8004624:	bd90      	pop	{r4, r7, pc}

08004626 <_ZNSt12_Vector_baseIiSaIiEE11_M_allocateEj>:
      _M_allocate(size_t __n)
 8004626:	b580      	push	{r7, lr}
 8004628:	b082      	sub	sp, #8
 800462a:	af00      	add	r7, sp, #0
 800462c:	6078      	str	r0, [r7, #4]
 800462e:	6039      	str	r1, [r7, #0]
	return __n != 0 ? _Tr::allocate(_M_impl, __n) : pointer();
 8004630:	683b      	ldr	r3, [r7, #0]
 8004632:	2b00      	cmp	r3, #0
 8004634:	d006      	beq.n	8004644 <_ZNSt12_Vector_baseIiSaIiEE11_M_allocateEj+0x1e>
 8004636:	687b      	ldr	r3, [r7, #4]
 8004638:	6839      	ldr	r1, [r7, #0]
 800463a:	4618      	mov	r0, r3
 800463c:	f000 f887 	bl	800474e <_ZNSt16allocator_traitsISaIiEE8allocateERS0_j>
 8004640:	4603      	mov	r3, r0
 8004642:	e000      	b.n	8004646 <_ZNSt12_Vector_baseIiSaIiEE11_M_allocateEj+0x20>
 8004644:	2300      	movs	r3, #0
      }
 8004646:	4618      	mov	r0, r3
 8004648:	3708      	adds	r7, #8
 800464a:	46bd      	mov	sp, r7
 800464c:	bd80      	pop	{r7, pc}

0800464e <_ZNK9__gnu_cxx17__normal_iteratorIPiSt6vectorIiSaIiEEE4baseEv>:
      base() const _GLIBCXX_NOEXCEPT
 800464e:	b480      	push	{r7}
 8004650:	b083      	sub	sp, #12
 8004652:	af00      	add	r7, sp, #0
 8004654:	6078      	str	r0, [r7, #4]
      { return _M_current; }
 8004656:	687b      	ldr	r3, [r7, #4]
 8004658:	4618      	mov	r0, r3
 800465a:	370c      	adds	r7, #12
 800465c:	46bd      	mov	sp, r7
 800465e:	f85d 7b04 	ldr.w	r7, [sp], #4
 8004662:	4770      	bx	lr

08004664 <_ZSt34__uninitialized_move_if_noexcept_aIPiS0_SaIiEET0_T_S3_S2_RT1_>:
    }

  template<typename _InputIterator, typename _ForwardIterator,
	   typename _Allocator>
    inline _ForwardIterator
    __uninitialized_move_if_noexcept_a(_InputIterator __first,
 8004664:	b590      	push	{r4, r7, lr}
 8004666:	b085      	sub	sp, #20
 8004668:	af00      	add	r7, sp, #0
 800466a:	60f8      	str	r0, [r7, #12]
 800466c:	60b9      	str	r1, [r7, #8]
 800466e:	607a      	str	r2, [r7, #4]
 8004670:	603b      	str	r3, [r7, #0]
				       _InputIterator __last,
				       _ForwardIterator __result,
				       _Allocator& __alloc)
    {
      return std::__uninitialized_copy_a
	(_GLIBCXX_MAKE_MOVE_IF_NOEXCEPT_ITERATOR(__first),
 8004672:	68f8      	ldr	r0, [r7, #12]
 8004674:	f000 f87a 	bl	800476c <_ZSt32__make_move_if_noexcept_iteratorIiSt13move_iteratorIPiEET0_PT_>
 8004678:	4604      	mov	r4, r0
 800467a:	68b8      	ldr	r0, [r7, #8]
 800467c:	f000 f876 	bl	800476c <_ZSt32__make_move_if_noexcept_iteratorIiSt13move_iteratorIPiEET0_PT_>
 8004680:	4601      	mov	r1, r0
	 _GLIBCXX_MAKE_MOVE_IF_NOEXCEPT_ITERATOR(__last), __result, __alloc);
 8004682:	683b      	ldr	r3, [r7, #0]
 8004684:	687a      	ldr	r2, [r7, #4]
 8004686:	4620      	mov	r0, r4
 8004688:	f000 f87f 	bl	800478a <_ZSt22__uninitialized_copy_aISt13move_iteratorIPiES1_iET0_T_S4_S3_RSaIT1_E>
 800468c:	4603      	mov	r3, r0
    }
 800468e:	4618      	mov	r0, r3
 8004690:	3714      	adds	r7, #20
 8004692:	46bd      	mov	sp, r7
 8004694:	bd90      	pop	{r4, r7, pc}

08004696 <_ZNSaIiEC1Ev>:
      typedef true_type propagate_on_container_move_assignment;

      typedef true_type is_always_equal;
#endif

      allocator() throw() { }
 8004696:	b580      	push	{r7, lr}
 8004698:	b082      	sub	sp, #8
 800469a:	af00      	add	r7, sp, #0
 800469c:	6078      	str	r0, [r7, #4]
 800469e:	6878      	ldr	r0, [r7, #4]
 80046a0:	f000 f884 	bl	80047ac <_ZN9__gnu_cxx13new_allocatorIiEC1Ev>
 80046a4:	687b      	ldr	r3, [r7, #4]
 80046a6:	4618      	mov	r0, r3
 80046a8:	3708      	adds	r7, #8
 80046aa:	46bd      	mov	sp, r7
 80046ac:	bd80      	pop	{r7, pc}

080046ae <_ZNSt16allocator_traitsISaIiEE10deallocateERS0_Pij>:
      deallocate(allocator_type& __a, pointer __p, size_type __n)
 80046ae:	b580      	push	{r7, lr}
 80046b0:	b084      	sub	sp, #16
 80046b2:	af00      	add	r7, sp, #0
 80046b4:	60f8      	str	r0, [r7, #12]
 80046b6:	60b9      	str	r1, [r7, #8]
 80046b8:	607a      	str	r2, [r7, #4]
      { __a.deallocate(__p, __n); }
 80046ba:	687a      	ldr	r2, [r7, #4]
 80046bc:	68b9      	ldr	r1, [r7, #8]
 80046be:	68f8      	ldr	r0, [r7, #12]
 80046c0:	f000 f87f 	bl	80047c2 <_ZN9__gnu_cxx13new_allocatorIiE10deallocateEPij>
 80046c4:	bf00      	nop
 80046c6:	3710      	adds	r7, #16
 80046c8:	46bd      	mov	sp, r7
 80046ca:	bd80      	pop	{r7, pc}

080046cc <_ZNSt12_Destroy_auxILb1EE9__destroyIPiEEvT_S3_>:
        __destroy(_ForwardIterator, _ForwardIterator) { }
 80046cc:	b480      	push	{r7}
 80046ce:	b083      	sub	sp, #12
 80046d0:	af00      	add	r7, sp, #0
 80046d2:	6078      	str	r0, [r7, #4]
 80046d4:	6039      	str	r1, [r7, #0]
 80046d6:	bf00      	nop
 80046d8:	370c      	adds	r7, #12
 80046da:	46bd      	mov	sp, r7
 80046dc:	f85d 7b04 	ldr.w	r7, [sp], #4
 80046e0:	4770      	bx	lr

080046e2 <_ZNKSt6vectorIiSaIiEE8max_sizeEv>:
      max_size() const _GLIBCXX_NOEXCEPT
 80046e2:	b580      	push	{r7, lr}
 80046e4:	b082      	sub	sp, #8
 80046e6:	af00      	add	r7, sp, #0
 80046e8:	6078      	str	r0, [r7, #4]
      { return _Alloc_traits::max_size(_M_get_Tp_allocator()); }
 80046ea:	687b      	ldr	r3, [r7, #4]
 80046ec:	4618      	mov	r0, r3
 80046ee:	f000 f881 	bl	80047f4 <_ZNKSt12_Vector_baseIiSaIiEE19_M_get_Tp_allocatorEv>
 80046f2:	4603      	mov	r3, r0
 80046f4:	4618      	mov	r0, r3
 80046f6:	f000 f871 	bl	80047dc <_ZNSt16allocator_traitsISaIiEE8max_sizeERKS0_>
 80046fa:	4603      	mov	r3, r0
 80046fc:	4618      	mov	r0, r3
 80046fe:	3708      	adds	r7, #8
 8004700:	46bd      	mov	sp, r7
 8004702:	bd80      	pop	{r7, pc}

08004704 <_ZNKSt6vectorIiSaIiEE4sizeEv>:
      size() const _GLIBCXX_NOEXCEPT
 8004704:	b480      	push	{r7}
 8004706:	b083      	sub	sp, #12
 8004708:	af00      	add	r7, sp, #0
 800470a:	6078      	str	r0, [r7, #4]
      { return size_type(this->_M_impl._M_finish - this->_M_impl._M_start); }
 800470c:	687b      	ldr	r3, [r7, #4]
 800470e:	685b      	ldr	r3, [r3, #4]
 8004710:	461a      	mov	r2, r3
 8004712:	687b      	ldr	r3, [r7, #4]
 8004714:	681b      	ldr	r3, [r3, #0]
 8004716:	1ad3      	subs	r3, r2, r3
 8004718:	109b      	asrs	r3, r3, #2
 800471a:	4618      	mov	r0, r3
 800471c:	370c      	adds	r7, #12
 800471e:	46bd      	mov	sp, r7
 8004720:	f85d 7b04 	ldr.w	r7, [sp], #4
 8004724:	4770      	bx	lr

08004726 <_ZSt3maxIjERKT_S2_S2_>:
   *  preprocessor macro.
  */
  template<typename _Tp>
    _GLIBCXX14_CONSTEXPR
    inline const _Tp&
    max(const _Tp& __a, const _Tp& __b)
 8004726:	b480      	push	{r7}
 8004728:	b083      	sub	sp, #12
 800472a:	af00      	add	r7, sp, #0
 800472c:	6078      	str	r0, [r7, #4]
 800472e:	6039      	str	r1, [r7, #0]
    {
      // concept requirements
      __glibcxx_function_requires(_LessThanComparableConcept<_Tp>)
      //return  __a < __b ? __b : __a;
      if (__a < __b)
 8004730:	687b      	ldr	r3, [r7, #4]
 8004732:	681a      	ldr	r2, [r3, #0]
 8004734:	683b      	ldr	r3, [r7, #0]
 8004736:	681b      	ldr	r3, [r3, #0]
 8004738:	429a      	cmp	r2, r3
 800473a:	d201      	bcs.n	8004740 <_ZSt3maxIjERKT_S2_S2_+0x1a>
	return __b;
 800473c:	683b      	ldr	r3, [r7, #0]
 800473e:	e000      	b.n	8004742 <_ZSt3maxIjERKT_S2_S2_+0x1c>
      return __a;
 8004740:	687b      	ldr	r3, [r7, #4]
    }
 8004742:	4618      	mov	r0, r3
 8004744:	370c      	adds	r7, #12
 8004746:	46bd      	mov	sp, r7
 8004748:	f85d 7b04 	ldr.w	r7, [sp], #4
 800474c:	4770      	bx	lr

0800474e <_ZNSt16allocator_traitsISaIiEE8allocateERS0_j>:
      allocate(allocator_type& __a, size_type __n)
 800474e:	b580      	push	{r7, lr}
 8004750:	b082      	sub	sp, #8
 8004752:	af00      	add	r7, sp, #0
 8004754:	6078      	str	r0, [r7, #4]
 8004756:	6039      	str	r1, [r7, #0]
      { return __a.allocate(__n); }
 8004758:	2200      	movs	r2, #0
 800475a:	6839      	ldr	r1, [r7, #0]
 800475c:	6878      	ldr	r0, [r7, #4]
 800475e:	f000 f854 	bl	800480a <_ZN9__gnu_cxx13new_allocatorIiE8allocateEjPKv>
 8004762:	4603      	mov	r3, r0
 8004764:	4618      	mov	r0, r3
 8004766:	3708      	adds	r7, #8
 8004768:	46bd      	mov	sp, r7
 800476a:	bd80      	pop	{r7, pc}

0800476c <_ZSt32__make_move_if_noexcept_iteratorIiSt13move_iteratorIPiEET0_PT_>:
  // returning a constant iterator when we don't want to move.
  template<typename _Tp, typename _ReturnType
    = typename conditional<__move_if_noexcept_cond<_Tp>::value,
			   const _Tp*, move_iterator<_Tp*>>::type>
    inline _GLIBCXX17_CONSTEXPR _ReturnType
    __make_move_if_noexcept_iterator(_Tp* __i)
 800476c:	b580      	push	{r7, lr}
 800476e:	b084      	sub	sp, #16
 8004770:	af00      	add	r7, sp, #0
 8004772:	6078      	str	r0, [r7, #4]
    { return _ReturnType(__i); }
 8004774:	f107 030c 	add.w	r3, r7, #12
 8004778:	6879      	ldr	r1, [r7, #4]
 800477a:	4618      	mov	r0, r3
 800477c:	f000 f863 	bl	8004846 <_ZNSt13move_iteratorIPiEC1ES0_>
 8004780:	68fb      	ldr	r3, [r7, #12]
 8004782:	4618      	mov	r0, r3
 8004784:	3710      	adds	r7, #16
 8004786:	46bd      	mov	sp, r7
 8004788:	bd80      	pop	{r7, pc}

0800478a <_ZSt22__uninitialized_copy_aISt13move_iteratorIPiES1_iET0_T_S4_S3_RSaIT1_E>:
    __uninitialized_copy_a(_InputIterator __first, _InputIterator __last,
 800478a:	b580      	push	{r7, lr}
 800478c:	b084      	sub	sp, #16
 800478e:	af00      	add	r7, sp, #0
 8004790:	60f8      	str	r0, [r7, #12]
 8004792:	60b9      	str	r1, [r7, #8]
 8004794:	607a      	str	r2, [r7, #4]
 8004796:	603b      	str	r3, [r7, #0]
    { return std::uninitialized_copy(__first, __last, __result); }
 8004798:	687a      	ldr	r2, [r7, #4]
 800479a:	68b9      	ldr	r1, [r7, #8]
 800479c:	68f8      	ldr	r0, [r7, #12]
 800479e:	f000 f861 	bl	8004864 <_ZSt18uninitialized_copyISt13move_iteratorIPiES1_ET0_T_S4_S3_>
 80047a2:	4603      	mov	r3, r0
 80047a4:	4618      	mov	r0, r3
 80047a6:	3710      	adds	r7, #16
 80047a8:	46bd      	mov	sp, r7
 80047aa:	bd80      	pop	{r7, pc}

080047ac <_ZN9__gnu_cxx13new_allocatorIiEC1Ev>:
      new_allocator() _GLIBCXX_USE_NOEXCEPT { }
 80047ac:	b480      	push	{r7}
 80047ae:	b083      	sub	sp, #12
 80047b0:	af00      	add	r7, sp, #0
 80047b2:	6078      	str	r0, [r7, #4]
 80047b4:	687b      	ldr	r3, [r7, #4]
 80047b6:	4618      	mov	r0, r3
 80047b8:	370c      	adds	r7, #12
 80047ba:	46bd      	mov	sp, r7
 80047bc:	f85d 7b04 	ldr.w	r7, [sp], #4
 80047c0:	4770      	bx	lr

080047c2 <_ZN9__gnu_cxx13new_allocatorIiE10deallocateEPij>:
      deallocate(pointer __p, size_type)
 80047c2:	b580      	push	{r7, lr}
 80047c4:	b084      	sub	sp, #16
 80047c6:	af00      	add	r7, sp, #0
 80047c8:	60f8      	str	r0, [r7, #12]
 80047ca:	60b9      	str	r1, [r7, #8]
 80047cc:	607a      	str	r2, [r7, #4]
	::operator delete(__p);
 80047ce:	68b8      	ldr	r0, [r7, #8]
 80047d0:	f001 f8ee 	bl	80059b0 <_ZdlPv>
      }
 80047d4:	bf00      	nop
 80047d6:	3710      	adds	r7, #16
 80047d8:	46bd      	mov	sp, r7
 80047da:	bd80      	pop	{r7, pc}

080047dc <_ZNSt16allocator_traitsISaIiEE8max_sizeERKS0_>:
       *  @brief  The maximum supported allocation size
       *  @param  __a  An allocator.
       *  @return @c __a.max_size()
      */
      static size_type
      max_size(const allocator_type& __a) noexcept
 80047dc:	b580      	push	{r7, lr}
 80047de:	b082      	sub	sp, #8
 80047e0:	af00      	add	r7, sp, #0
 80047e2:	6078      	str	r0, [r7, #4]
      { return __a.max_size(); }
 80047e4:	6878      	ldr	r0, [r7, #4]
 80047e6:	f000 f84f 	bl	8004888 <_ZNK9__gnu_cxx13new_allocatorIiE8max_sizeEv>
 80047ea:	4603      	mov	r3, r0
 80047ec:	4618      	mov	r0, r3
 80047ee:	3708      	adds	r7, #8
 80047f0:	46bd      	mov	sp, r7
 80047f2:	bd80      	pop	{r7, pc}

080047f4 <_ZNKSt12_Vector_baseIiSaIiEE19_M_get_Tp_allocatorEv>:
      _M_get_Tp_allocator() const _GLIBCXX_NOEXCEPT
 80047f4:	b480      	push	{r7}
 80047f6:	b083      	sub	sp, #12
 80047f8:	af00      	add	r7, sp, #0
 80047fa:	6078      	str	r0, [r7, #4]
      { return *static_cast<const _Tp_alloc_type*>(&this->_M_impl); }
 80047fc:	687b      	ldr	r3, [r7, #4]
 80047fe:	4618      	mov	r0, r3
 8004800:	370c      	adds	r7, #12
 8004802:	46bd      	mov	sp, r7
 8004804:	f85d 7b04 	ldr.w	r7, [sp], #4
 8004808:	4770      	bx	lr

0800480a <_ZN9__gnu_cxx13new_allocatorIiE8allocateEjPKv>:
      allocate(size_type __n, const void* = static_cast<const void*>(0))
 800480a:	b580      	push	{r7, lr}
 800480c:	b084      	sub	sp, #16
 800480e:	af00      	add	r7, sp, #0
 8004810:	60f8      	str	r0, [r7, #12]
 8004812:	60b9      	str	r1, [r7, #8]
 8004814:	607a      	str	r2, [r7, #4]
	if (__n > this->max_size())
 8004816:	68f8      	ldr	r0, [r7, #12]
 8004818:	f000 f836 	bl	8004888 <_ZNK9__gnu_cxx13new_allocatorIiE8max_sizeEv>
 800481c:	4602      	mov	r2, r0
 800481e:	68bb      	ldr	r3, [r7, #8]
 8004820:	4293      	cmp	r3, r2
 8004822:	bf8c      	ite	hi
 8004824:	2301      	movhi	r3, #1
 8004826:	2300      	movls	r3, #0
 8004828:	b2db      	uxtb	r3, r3
 800482a:	2b00      	cmp	r3, #0
 800482c:	d001      	beq.n	8004832 <_ZN9__gnu_cxx13new_allocatorIiE8allocateEjPKv+0x28>
	  std::__throw_bad_alloc();
 800482e:	f001 f8c1 	bl	80059b4 <_ZSt17__throw_bad_allocv>
	return static_cast<_Tp*>(::operator new(__n * sizeof(_Tp)));
 8004832:	68bb      	ldr	r3, [r7, #8]
 8004834:	009b      	lsls	r3, r3, #2
 8004836:	4618      	mov	r0, r3
 8004838:	f001 f8a1 	bl	800597e <_Znwj>
 800483c:	4603      	mov	r3, r0
      }
 800483e:	4618      	mov	r0, r3
 8004840:	3710      	adds	r7, #16
 8004842:	46bd      	mov	sp, r7
 8004844:	bd80      	pop	{r7, pc}

08004846 <_ZNSt13move_iteratorIPiEC1ES0_>:
      move_iterator(iterator_type __i)
 8004846:	b480      	push	{r7}
 8004848:	b083      	sub	sp, #12
 800484a:	af00      	add	r7, sp, #0
 800484c:	6078      	str	r0, [r7, #4]
 800484e:	6039      	str	r1, [r7, #0]
      : _M_current(__i) { }
 8004850:	687b      	ldr	r3, [r7, #4]
 8004852:	683a      	ldr	r2, [r7, #0]
 8004854:	601a      	str	r2, [r3, #0]
 8004856:	687b      	ldr	r3, [r7, #4]
 8004858:	4618      	mov	r0, r3
 800485a:	370c      	adds	r7, #12
 800485c:	46bd      	mov	sp, r7
 800485e:	f85d 7b04 	ldr.w	r7, [sp], #4
 8004862:	4770      	bx	lr

08004864 <_ZSt18uninitialized_copyISt13move_iteratorIPiES1_ET0_T_S4_S3_>:
    uninitialized_copy(_InputIterator __first, _InputIterator __last,
 8004864:	b580      	push	{r7, lr}
 8004866:	b086      	sub	sp, #24
 8004868:	af00      	add	r7, sp, #0
 800486a:	60f8      	str	r0, [r7, #12]
 800486c:	60b9      	str	r1, [r7, #8]
 800486e:	607a      	str	r2, [r7, #4]
      const bool __assignable = is_assignable<_RefType2, _RefType1>::value;
 8004870:	2301      	movs	r3, #1
 8004872:	75fb      	strb	r3, [r7, #23]
	__uninit_copy(__first, __last, __result);
 8004874:	687a      	ldr	r2, [r7, #4]
 8004876:	68b9      	ldr	r1, [r7, #8]
 8004878:	68f8      	ldr	r0, [r7, #12]
 800487a:	f000 f811 	bl	80048a0 <_ZNSt20__uninitialized_copyILb1EE13__uninit_copyISt13move_iteratorIPiES3_EET0_T_S6_S5_>
 800487e:	4603      	mov	r3, r0
    }
 8004880:	4618      	mov	r0, r3
 8004882:	3718      	adds	r7, #24
 8004884:	46bd      	mov	sp, r7
 8004886:	bd80      	pop	{r7, pc}

08004888 <_ZNK9__gnu_cxx13new_allocatorIiE8max_sizeEv>:
      max_size() const _GLIBCXX_USE_NOEXCEPT
 8004888:	b480      	push	{r7}
 800488a:	b083      	sub	sp, #12
 800488c:	af00      	add	r7, sp, #0
 800488e:	6078      	str	r0, [r7, #4]
      { return size_t(-1) / sizeof(_Tp); }
 8004890:	f06f 4340 	mvn.w	r3, #3221225472	; 0xc0000000
 8004894:	4618      	mov	r0, r3
 8004896:	370c      	adds	r7, #12
 8004898:	46bd      	mov	sp, r7
 800489a:	f85d 7b04 	ldr.w	r7, [sp], #4
 800489e:	4770      	bx	lr

080048a0 <_ZNSt20__uninitialized_copyILb1EE13__uninit_copyISt13move_iteratorIPiES3_EET0_T_S6_S5_>:
        __uninit_copy(_InputIterator __first, _InputIterator __last,
 80048a0:	b580      	push	{r7, lr}
 80048a2:	b084      	sub	sp, #16
 80048a4:	af00      	add	r7, sp, #0
 80048a6:	60f8      	str	r0, [r7, #12]
 80048a8:	60b9      	str	r1, [r7, #8]
 80048aa:	607a      	str	r2, [r7, #4]
        { return std::copy(__first, __last, __result); }
 80048ac:	687a      	ldr	r2, [r7, #4]
 80048ae:	68b9      	ldr	r1, [r7, #8]
 80048b0:	68f8      	ldr	r0, [r7, #12]
 80048b2:	f000 f805 	bl	80048c0 <_ZSt4copyISt13move_iteratorIPiES1_ET0_T_S4_S3_>
 80048b6:	4603      	mov	r3, r0
 80048b8:	4618      	mov	r0, r3
 80048ba:	3710      	adds	r7, #16
 80048bc:	46bd      	mov	sp, r7
 80048be:	bd80      	pop	{r7, pc}

080048c0 <_ZSt4copyISt13move_iteratorIPiES1_ET0_T_S4_S3_>:
   *  Note that the end of the output range is permitted to be contained
   *  within [first,last).
  */
  template<typename _II, typename _OI>
    inline _OI
    copy(_II __first, _II __last, _OI __result)
 80048c0:	b590      	push	{r4, r7, lr}
 80048c2:	b085      	sub	sp, #20
 80048c4:	af00      	add	r7, sp, #0
 80048c6:	60f8      	str	r0, [r7, #12]
 80048c8:	60b9      	str	r1, [r7, #8]
 80048ca:	607a      	str	r2, [r7, #4]
      __glibcxx_function_requires(_OutputIteratorConcept<_OI,
	    typename iterator_traits<_II>::value_type>)
      __glibcxx_requires_valid_range(__first, __last);

      return (std::__copy_move_a2<__is_move_iterator<_II>::__value>
	      (std::__miter_base(__first), std::__miter_base(__last),
 80048cc:	68f8      	ldr	r0, [r7, #12]
 80048ce:	f000 f80f 	bl	80048f0 <_ZSt12__miter_baseIPiEDTcl12__miter_basecldtfp_4baseEEESt13move_iteratorIT_E>
 80048d2:	4604      	mov	r4, r0
 80048d4:	68b8      	ldr	r0, [r7, #8]
 80048d6:	f000 f80b 	bl	80048f0 <_ZSt12__miter_baseIPiEDTcl12__miter_basecldtfp_4baseEEESt13move_iteratorIT_E>
 80048da:	4603      	mov	r3, r0
	       __result));
 80048dc:	687a      	ldr	r2, [r7, #4]
 80048de:	4619      	mov	r1, r3
 80048e0:	4620      	mov	r0, r4
 80048e2:	f000 f816 	bl	8004912 <_ZSt14__copy_move_a2ILb1EPiS0_ET1_T0_S2_S1_>
 80048e6:	4603      	mov	r3, r0
    }
 80048e8:	4618      	mov	r0, r3
 80048ea:	3714      	adds	r7, #20
 80048ec:	46bd      	mov	sp, r7
 80048ee:	bd90      	pop	{r4, r7, pc}

080048f0 <_ZSt12__miter_baseIPiEDTcl12__miter_basecldtfp_4baseEEESt13move_iteratorIT_E>:
      typedef __true_type __type;
    };

  template<typename _Iterator>
    auto
    __miter_base(move_iterator<_Iterator> __it)
 80048f0:	b580      	push	{r7, lr}
 80048f2:	b082      	sub	sp, #8
 80048f4:	af00      	add	r7, sp, #0
 80048f6:	6078      	str	r0, [r7, #4]
    -> decltype(__miter_base(__it.base()))
    { return __miter_base(__it.base()); }
 80048f8:	1d3b      	adds	r3, r7, #4
 80048fa:	4618      	mov	r0, r3
 80048fc:	f000 f825 	bl	800494a <_ZNKSt13move_iteratorIPiE4baseEv>
 8004900:	4603      	mov	r3, r0
 8004902:	4618      	mov	r0, r3
 8004904:	f000 f82d 	bl	8004962 <_ZSt12__miter_baseIPiET_S1_>
 8004908:	4603      	mov	r3, r0
 800490a:	4618      	mov	r0, r3
 800490c:	3708      	adds	r7, #8
 800490e:	46bd      	mov	sp, r7
 8004910:	bd80      	pop	{r7, pc}

08004912 <_ZSt14__copy_move_a2ILb1EPiS0_ET1_T0_S2_S1_>:
    __copy_move_a2(_II __first, _II __last, _OI __result)
 8004912:	b5b0      	push	{r4, r5, r7, lr}
 8004914:	b084      	sub	sp, #16
 8004916:	af00      	add	r7, sp, #0
 8004918:	60f8      	str	r0, [r7, #12]
 800491a:	60b9      	str	r1, [r7, #8]
 800491c:	607a      	str	r2, [r7, #4]
      return _OI(std::__copy_move_a<_IsMove>(std::__niter_base(__first),
 800491e:	68f8      	ldr	r0, [r7, #12]
 8004920:	f000 f82a 	bl	8004978 <_ZSt12__niter_baseIPiET_S1_>
 8004924:	4604      	mov	r4, r0
 8004926:	68b8      	ldr	r0, [r7, #8]
 8004928:	f000 f826 	bl	8004978 <_ZSt12__niter_baseIPiET_S1_>
 800492c:	4605      	mov	r5, r0
 800492e:	6878      	ldr	r0, [r7, #4]
 8004930:	f000 f822 	bl	8004978 <_ZSt12__niter_baseIPiET_S1_>
 8004934:	4603      	mov	r3, r0
					     std::__niter_base(__result)));
 8004936:	461a      	mov	r2, r3
 8004938:	4629      	mov	r1, r5
 800493a:	4620      	mov	r0, r4
 800493c:	f000 f827 	bl	800498e <_ZSt13__copy_move_aILb1EPiS0_ET1_T0_S2_S1_>
 8004940:	4603      	mov	r3, r0
    }
 8004942:	4618      	mov	r0, r3
 8004944:	3710      	adds	r7, #16
 8004946:	46bd      	mov	sp, r7
 8004948:	bdb0      	pop	{r4, r5, r7, pc}

0800494a <_ZNKSt13move_iteratorIPiE4baseEv>:
      base() const
 800494a:	b480      	push	{r7}
 800494c:	b083      	sub	sp, #12
 800494e:	af00      	add	r7, sp, #0
 8004950:	6078      	str	r0, [r7, #4]
      { return _M_current; }
 8004952:	687b      	ldr	r3, [r7, #4]
 8004954:	681b      	ldr	r3, [r3, #0]
 8004956:	4618      	mov	r0, r3
 8004958:	370c      	adds	r7, #12
 800495a:	46bd      	mov	sp, r7
 800495c:	f85d 7b04 	ldr.w	r7, [sp], #4
 8004960:	4770      	bx	lr

08004962 <_ZSt12__miter_baseIPiET_S1_>:

  // Fallback implementation of the function in bits/stl_iterator.h used to
  // remove the move_iterator wrapper.
  template<typename _Iterator>
    inline _Iterator
    __miter_base(_Iterator __it)
 8004962:	b480      	push	{r7}
 8004964:	b083      	sub	sp, #12
 8004966:	af00      	add	r7, sp, #0
 8004968:	6078      	str	r0, [r7, #4]
    { return __it; }
 800496a:	687b      	ldr	r3, [r7, #4]
 800496c:	4618      	mov	r0, r3
 800496e:	370c      	adds	r7, #12
 8004970:	46bd      	mov	sp, r7
 8004972:	f85d 7b04 	ldr.w	r7, [sp], #4
 8004976:	4770      	bx	lr

08004978 <_ZSt12__niter_baseIPiET_S1_>:
    __niter_base(_Iterator __it)
 8004978:	b480      	push	{r7}
 800497a:	b083      	sub	sp, #12
 800497c:	af00      	add	r7, sp, #0
 800497e:	6078      	str	r0, [r7, #4]
    { return __it; }
 8004980:	687b      	ldr	r3, [r7, #4]
 8004982:	4618      	mov	r0, r3
 8004984:	370c      	adds	r7, #12
 8004986:	46bd      	mov	sp, r7
 8004988:	f85d 7b04 	ldr.w	r7, [sp], #4
 800498c:	4770      	bx	lr

0800498e <_ZSt13__copy_move_aILb1EPiS0_ET1_T0_S2_S1_>:
    __copy_move_a(_II __first, _II __last, _OI __result)
 800498e:	b580      	push	{r7, lr}
 8004990:	b086      	sub	sp, #24
 8004992:	af00      	add	r7, sp, #0
 8004994:	60f8      	str	r0, [r7, #12]
 8004996:	60b9      	str	r1, [r7, #8]
 8004998:	607a      	str	r2, [r7, #4]
      const bool __simple = (__is_trivial(_ValueTypeI)
 800499a:	2301      	movs	r3, #1
 800499c:	75fb      	strb	r3, [r7, #23]
	                      _Category>::__copy_m(__first, __last, __result);
 800499e:	687a      	ldr	r2, [r7, #4]
 80049a0:	68b9      	ldr	r1, [r7, #8]
 80049a2:	68f8      	ldr	r0, [r7, #12]
 80049a4:	f000 f805 	bl	80049b2 <_ZNSt11__copy_moveILb1ELb1ESt26random_access_iterator_tagE8__copy_mIiEEPT_PKS3_S6_S4_>
 80049a8:	4603      	mov	r3, r0
    }
 80049aa:	4618      	mov	r0, r3
 80049ac:	3718      	adds	r7, #24
 80049ae:	46bd      	mov	sp, r7
 80049b0:	bd80      	pop	{r7, pc}

080049b2 <_ZNSt11__copy_moveILb1ELb1ESt26random_access_iterator_tagE8__copy_mIiEEPT_PKS3_S6_S4_>:
        __copy_m(const _Tp* __first, const _Tp* __last, _Tp* __result)
 80049b2:	b580      	push	{r7, lr}
 80049b4:	b086      	sub	sp, #24
 80049b6:	af00      	add	r7, sp, #0
 80049b8:	60f8      	str	r0, [r7, #12]
 80049ba:	60b9      	str	r1, [r7, #8]
 80049bc:	607a      	str	r2, [r7, #4]
	  const ptrdiff_t _Num = __last - __first;
 80049be:	68ba      	ldr	r2, [r7, #8]
 80049c0:	68fb      	ldr	r3, [r7, #12]
 80049c2:	1ad3      	subs	r3, r2, r3
 80049c4:	109b      	asrs	r3, r3, #2
 80049c6:	617b      	str	r3, [r7, #20]
	  if (_Num)
 80049c8:	697b      	ldr	r3, [r7, #20]
 80049ca:	2b00      	cmp	r3, #0
 80049cc:	d006      	beq.n	80049dc <_ZNSt11__copy_moveILb1ELb1ESt26random_access_iterator_tagE8__copy_mIiEEPT_PKS3_S6_S4_+0x2a>
	    __builtin_memmove(__result, __first, sizeof(_Tp) * _Num);
 80049ce:	697b      	ldr	r3, [r7, #20]
 80049d0:	009b      	lsls	r3, r3, #2
 80049d2:	461a      	mov	r2, r3
 80049d4:	68f9      	ldr	r1, [r7, #12]
 80049d6:	6878      	ldr	r0, [r7, #4]
 80049d8:	f002 f844 	bl	8006a64 <memmove>
	  return __result + _Num;
 80049dc:	697b      	ldr	r3, [r7, #20]
 80049de:	009b      	lsls	r3, r3, #2
 80049e0:	687a      	ldr	r2, [r7, #4]
 80049e2:	4413      	add	r3, r2
	}
 80049e4:	4618      	mov	r0, r3
 80049e6:	3718      	adds	r7, #24
 80049e8:	46bd      	mov	sp, r7
 80049ea:	bd80      	pop	{r7, pc}

080049ec <NVIC_GetPriorityGrouping>:
{
 80049ec:	b480      	push	{r7}
 80049ee:	af00      	add	r7, sp, #0
  return ((uint32_t)((SCB->AIRCR & SCB_AIRCR_PRIGROUP_Msk) >> SCB_AIRCR_PRIGROUP_Pos));
 80049f0:	4b04      	ldr	r3, [pc, #16]	; (8004a04 <NVIC_GetPriorityGrouping+0x18>)
 80049f2:	68db      	ldr	r3, [r3, #12]
 80049f4:	0a1b      	lsrs	r3, r3, #8
 80049f6:	f003 0307 	and.w	r3, r3, #7
}
 80049fa:	4618      	mov	r0, r3
 80049fc:	46bd      	mov	sp, r7
 80049fe:	f85d 7b04 	ldr.w	r7, [sp], #4
 8004a02:	4770      	bx	lr
 8004a04:	e000ed00 	.word	0xe000ed00

08004a08 <NVIC_EnableIRQ>:
{
 8004a08:	b480      	push	{r7}
 8004a0a:	b083      	sub	sp, #12
 8004a0c:	af00      	add	r7, sp, #0
 8004a0e:	4603      	mov	r3, r0
 8004a10:	71fb      	strb	r3, [r7, #7]
  NVIC->ISER[(((uint32_t)(int32_t)IRQn) >> 5UL)] = (uint32_t)(1UL << (((uint32_t)(int32_t)IRQn) & 0x1FUL));
 8004a12:	79fb      	ldrb	r3, [r7, #7]
 8004a14:	f003 021f 	and.w	r2, r3, #31
 8004a18:	4907      	ldr	r1, [pc, #28]	; (8004a38 <NVIC_EnableIRQ+0x30>)
 8004a1a:	f997 3007 	ldrsb.w	r3, [r7, #7]
 8004a1e:	095b      	lsrs	r3, r3, #5
 8004a20:	2001      	movs	r0, #1
 8004a22:	fa00 f202 	lsl.w	r2, r0, r2
 8004a26:	f841 2023 	str.w	r2, [r1, r3, lsl #2]
}
 8004a2a:	bf00      	nop
 8004a2c:	370c      	adds	r7, #12
 8004a2e:	46bd      	mov	sp, r7
 8004a30:	f85d 7b04 	ldr.w	r7, [sp], #4
 8004a34:	4770      	bx	lr
 8004a36:	bf00      	nop
 8004a38:	e000e100 	.word	0xe000e100

08004a3c <NVIC_SetPriority>:
{
 8004a3c:	b480      	push	{r7}
 8004a3e:	b083      	sub	sp, #12
 8004a40:	af00      	add	r7, sp, #0
 8004a42:	4603      	mov	r3, r0
 8004a44:	6039      	str	r1, [r7, #0]
 8004a46:	71fb      	strb	r3, [r7, #7]
  if ((int32_t)(IRQn) < 0)
 8004a48:	f997 3007 	ldrsb.w	r3, [r7, #7]
 8004a4c:	2b00      	cmp	r3, #0
 8004a4e:	da0b      	bge.n	8004a68 <NVIC_SetPriority+0x2c>
    SCB->SHP[(((uint32_t)(int32_t)IRQn) & 0xFUL)-4UL] = (uint8_t)((priority << (8U - __NVIC_PRIO_BITS)) & (uint32_t)0xFFUL);
 8004a50:	683b      	ldr	r3, [r7, #0]
 8004a52:	b2da      	uxtb	r2, r3
 8004a54:	490c      	ldr	r1, [pc, #48]	; (8004a88 <NVIC_SetPriority+0x4c>)
 8004a56:	79fb      	ldrb	r3, [r7, #7]
 8004a58:	f003 030f 	and.w	r3, r3, #15
 8004a5c:	3b04      	subs	r3, #4
 8004a5e:	0112      	lsls	r2, r2, #4
 8004a60:	b2d2      	uxtb	r2, r2
 8004a62:	440b      	add	r3, r1
 8004a64:	761a      	strb	r2, [r3, #24]
}
 8004a66:	e009      	b.n	8004a7c <NVIC_SetPriority+0x40>
    NVIC->IP[((uint32_t)(int32_t)IRQn)]               = (uint8_t)((priority << (8U - __NVIC_PRIO_BITS)) & (uint32_t)0xFFUL);
 8004a68:	683b      	ldr	r3, [r7, #0]
 8004a6a:	b2da      	uxtb	r2, r3
 8004a6c:	4907      	ldr	r1, [pc, #28]	; (8004a8c <NVIC_SetPriority+0x50>)
 8004a6e:	f997 3007 	ldrsb.w	r3, [r7, #7]
 8004a72:	0112      	lsls	r2, r2, #4
 8004a74:	b2d2      	uxtb	r2, r2
 8004a76:	440b      	add	r3, r1
 8004a78:	f883 2300 	strb.w	r2, [r3, #768]	; 0x300
}
 8004a7c:	bf00      	nop
 8004a7e:	370c      	adds	r7, #12
 8004a80:	46bd      	mov	sp, r7
 8004a82:	f85d 7b04 	ldr.w	r7, [sp], #4
 8004a86:	4770      	bx	lr
 8004a88:	e000ed00 	.word	0xe000ed00
 8004a8c:	e000e100 	.word	0xe000e100

08004a90 <NVIC_EncodePriority>:
{
 8004a90:	b480      	push	{r7}
 8004a92:	b089      	sub	sp, #36	; 0x24
 8004a94:	af00      	add	r7, sp, #0
 8004a96:	60f8      	str	r0, [r7, #12]
 8004a98:	60b9      	str	r1, [r7, #8]
 8004a9a:	607a      	str	r2, [r7, #4]
  uint32_t PriorityGroupTmp = (PriorityGroup & (uint32_t)0x07UL);   /* only values 0..7 are used          */
 8004a9c:	68fb      	ldr	r3, [r7, #12]
 8004a9e:	f003 0307 	and.w	r3, r3, #7
 8004aa2:	61fb      	str	r3, [r7, #28]
  PreemptPriorityBits = ((7UL - PriorityGroupTmp) > (uint32_t)(__NVIC_PRIO_BITS)) ? (uint32_t)(__NVIC_PRIO_BITS) : (uint32_t)(7UL - PriorityGroupTmp);
 8004aa4:	69fb      	ldr	r3, [r7, #28]
 8004aa6:	f1c3 0307 	rsb	r3, r3, #7
 8004aaa:	2b04      	cmp	r3, #4
 8004aac:	bf28      	it	cs
 8004aae:	2304      	movcs	r3, #4
 8004ab0:	61bb      	str	r3, [r7, #24]
  SubPriorityBits     = ((PriorityGroupTmp + (uint32_t)(__NVIC_PRIO_BITS)) < (uint32_t)7UL) ? (uint32_t)0UL : (uint32_t)((PriorityGroupTmp - 7UL) + (uint32_t)(__NVIC_PRIO_BITS));
 8004ab2:	69fb      	ldr	r3, [r7, #28]
 8004ab4:	3304      	adds	r3, #4
 8004ab6:	2b06      	cmp	r3, #6
 8004ab8:	d902      	bls.n	8004ac0 <NVIC_EncodePriority+0x30>
 8004aba:	69fb      	ldr	r3, [r7, #28]
 8004abc:	3b03      	subs	r3, #3
 8004abe:	e000      	b.n	8004ac2 <NVIC_EncodePriority+0x32>
 8004ac0:	2300      	movs	r3, #0
 8004ac2:	617b      	str	r3, [r7, #20]
           ((PreemptPriority & (uint32_t)((1UL << (PreemptPriorityBits)) - 1UL)) << SubPriorityBits) |
 8004ac4:	f04f 32ff 	mov.w	r2, #4294967295
 8004ac8:	69bb      	ldr	r3, [r7, #24]
 8004aca:	fa02 f303 	lsl.w	r3, r2, r3
 8004ace:	43da      	mvns	r2, r3
 8004ad0:	68bb      	ldr	r3, [r7, #8]
 8004ad2:	401a      	ands	r2, r3
 8004ad4:	697b      	ldr	r3, [r7, #20]
 8004ad6:	409a      	lsls	r2, r3
           ((SubPriority     & (uint32_t)((1UL << (SubPriorityBits    )) - 1UL)))
 8004ad8:	f04f 31ff 	mov.w	r1, #4294967295
 8004adc:	697b      	ldr	r3, [r7, #20]
 8004ade:	fa01 f303 	lsl.w	r3, r1, r3
 8004ae2:	43d9      	mvns	r1, r3
 8004ae4:	687b      	ldr	r3, [r7, #4]
 8004ae6:	400b      	ands	r3, r1
           ((PreemptPriority & (uint32_t)((1UL << (PreemptPriorityBits)) - 1UL)) << SubPriorityBits) |
 8004ae8:	4313      	orrs	r3, r2
}
 8004aea:	4618      	mov	r0, r3
 8004aec:	3724      	adds	r7, #36	; 0x24
 8004aee:	46bd      	mov	sp, r7
 8004af0:	f85d 7b04 	ldr.w	r7, [sp], #4
 8004af4:	4770      	bx	lr

08004af6 <LL_ADC_INJ_SetTriggerEdge>:
{
 8004af6:	b480      	push	{r7}
 8004af8:	b083      	sub	sp, #12
 8004afa:	af00      	add	r7, sp, #0
 8004afc:	6078      	str	r0, [r7, #4]
 8004afe:	6039      	str	r1, [r7, #0]
  MODIFY_REG(ADCx->JSQR, ADC_JSQR_JEXTEN, ExternalTriggerEdge);
 8004b00:	687b      	ldr	r3, [r7, #4]
 8004b02:	6cdb      	ldr	r3, [r3, #76]	; 0x4c
 8004b04:	f023 02c0 	bic.w	r2, r3, #192	; 0xc0
 8004b08:	683b      	ldr	r3, [r7, #0]
 8004b0a:	431a      	orrs	r2, r3
 8004b0c:	687b      	ldr	r3, [r7, #4]
 8004b0e:	64da      	str	r2, [r3, #76]	; 0x4c
}
 8004b10:	bf00      	nop
 8004b12:	370c      	adds	r7, #12
 8004b14:	46bd      	mov	sp, r7
 8004b16:	f85d 7b04 	ldr.w	r7, [sp], #4
 8004b1a:	4770      	bx	lr

08004b1c <LL_ADC_INJ_SetSequencerRanks>:
{
 8004b1c:	b480      	push	{r7}
 8004b1e:	b085      	sub	sp, #20
 8004b20:	af00      	add	r7, sp, #0
 8004b22:	60f8      	str	r0, [r7, #12]
 8004b24:	60b9      	str	r1, [r7, #8]
 8004b26:	607a      	str	r2, [r7, #4]
  MODIFY_REG(ADCx->JSQR,
 8004b28:	68fb      	ldr	r3, [r7, #12]
 8004b2a:	6cda      	ldr	r2, [r3, #76]	; 0x4c
 8004b2c:	68bb      	ldr	r3, [r7, #8]
 8004b2e:	f003 031f 	and.w	r3, r3, #31
 8004b32:	f1c3 031a 	rsb	r3, r3, #26
 8004b36:	f04f 41f8 	mov.w	r1, #2080374784	; 0x7c000000
 8004b3a:	fa21 f303 	lsr.w	r3, r1, r3
 8004b3e:	43db      	mvns	r3, r3
 8004b40:	401a      	ands	r2, r3
 8004b42:	687b      	ldr	r3, [r7, #4]
 8004b44:	f003 41f8 	and.w	r1, r3, #2080374784	; 0x7c000000
 8004b48:	68bb      	ldr	r3, [r7, #8]
 8004b4a:	f003 031f 	and.w	r3, r3, #31
 8004b4e:	f1c3 031a 	rsb	r3, r3, #26
 8004b52:	fa21 f303 	lsr.w	r3, r1, r3
 8004b56:	431a      	orrs	r2, r3
 8004b58:	68fb      	ldr	r3, [r7, #12]
 8004b5a:	64da      	str	r2, [r3, #76]	; 0x4c
}
 8004b5c:	bf00      	nop
 8004b5e:	3714      	adds	r7, #20
 8004b60:	46bd      	mov	sp, r7
 8004b62:	f85d 7b04 	ldr.w	r7, [sp], #4
 8004b66:	4770      	bx	lr

08004b68 <LL_ADC_INJ_SetQueueMode>:
{
 8004b68:	b480      	push	{r7}
 8004b6a:	b083      	sub	sp, #12
 8004b6c:	af00      	add	r7, sp, #0
 8004b6e:	6078      	str	r0, [r7, #4]
 8004b70:	6039      	str	r1, [r7, #0]
  MODIFY_REG(ADCx->CFGR, ADC_CFGR_JQM, QueueMode);
 8004b72:	687b      	ldr	r3, [r7, #4]
 8004b74:	68db      	ldr	r3, [r3, #12]
 8004b76:	f423 1200 	bic.w	r2, r3, #2097152	; 0x200000
 8004b7a:	683b      	ldr	r3, [r7, #0]
 8004b7c:	431a      	orrs	r2, r3
 8004b7e:	687b      	ldr	r3, [r7, #4]
 8004b80:	60da      	str	r2, [r3, #12]
}
 8004b82:	bf00      	nop
 8004b84:	370c      	adds	r7, #12
 8004b86:	46bd      	mov	sp, r7
 8004b88:	f85d 7b04 	ldr.w	r7, [sp], #4
 8004b8c:	4770      	bx	lr

08004b8e <LL_ADC_SetChannelSamplingTime>:
{
 8004b8e:	b490      	push	{r4, r7}
 8004b90:	b08a      	sub	sp, #40	; 0x28
 8004b92:	af00      	add	r7, sp, #0
 8004b94:	60f8      	str	r0, [r7, #12]
 8004b96:	60b9      	str	r1, [r7, #8]
 8004b98:	607a      	str	r2, [r7, #4]
  register __IO uint32_t *preg = __ADC_PTR_REG_OFFSET(ADCx->SMPR1, __ADC_MASK_SHIFT(Channel, ADC_CHANNEL_SMPRX_REGOFFSET_MASK));
 8004b9a:	68fb      	ldr	r3, [r7, #12]
 8004b9c:	3314      	adds	r3, #20
 8004b9e:	4619      	mov	r1, r3
 8004ba0:	68bb      	ldr	r3, [r7, #8]
 8004ba2:	f003 7200 	and.w	r2, r3, #33554432	; 0x2000000
 8004ba6:	f04f 7300 	mov.w	r3, #33554432	; 0x2000000
 8004baa:	617b      	str	r3, [r7, #20]
   __ASM volatile ("rbit %0, %1" : "=r" (result) : "r" (value) );
 8004bac:	697b      	ldr	r3, [r7, #20]
 8004bae:	fa93 f3a3 	rbit	r3, r3
 8004bb2:	613b      	str	r3, [r7, #16]
  return(result);
 8004bb4:	693b      	ldr	r3, [r7, #16]
 8004bb6:	fab3 f383 	clz	r3, r3
 8004bba:	fa22 f303 	lsr.w	r3, r2, r3
 8004bbe:	009b      	lsls	r3, r3, #2
 8004bc0:	440b      	add	r3, r1
 8004bc2:	461c      	mov	r4, r3
  MODIFY_REG(*preg,
 8004bc4:	6822      	ldr	r2, [r4, #0]
 8004bc6:	68bb      	ldr	r3, [r7, #8]
 8004bc8:	f003 71f8 	and.w	r1, r3, #32505856	; 0x1f00000
 8004bcc:	f04f 73f8 	mov.w	r3, #32505856	; 0x1f00000
 8004bd0:	61fb      	str	r3, [r7, #28]
   __ASM volatile ("rbit %0, %1" : "=r" (result) : "r" (value) );
 8004bd2:	69fb      	ldr	r3, [r7, #28]
 8004bd4:	fa93 f3a3 	rbit	r3, r3
 8004bd8:	61bb      	str	r3, [r7, #24]
  return(result);
 8004bda:	69bb      	ldr	r3, [r7, #24]
 8004bdc:	fab3 f383 	clz	r3, r3
 8004be0:	fa21 f303 	lsr.w	r3, r1, r3
 8004be4:	2107      	movs	r1, #7
 8004be6:	fa01 f303 	lsl.w	r3, r1, r3
 8004bea:	43db      	mvns	r3, r3
 8004bec:	401a      	ands	r2, r3
 8004bee:	68bb      	ldr	r3, [r7, #8]
 8004bf0:	f003 71f8 	and.w	r1, r3, #32505856	; 0x1f00000
 8004bf4:	f04f 73f8 	mov.w	r3, #32505856	; 0x1f00000
 8004bf8:	627b      	str	r3, [r7, #36]	; 0x24
   __ASM volatile ("rbit %0, %1" : "=r" (result) : "r" (value) );
 8004bfa:	6a7b      	ldr	r3, [r7, #36]	; 0x24
 8004bfc:	fa93 f3a3 	rbit	r3, r3
 8004c00:	623b      	str	r3, [r7, #32]
  return(result);
 8004c02:	6a3b      	ldr	r3, [r7, #32]
 8004c04:	fab3 f383 	clz	r3, r3
 8004c08:	fa21 f303 	lsr.w	r3, r1, r3
 8004c0c:	6879      	ldr	r1, [r7, #4]
 8004c0e:	fa01 f303 	lsl.w	r3, r1, r3
 8004c12:	4313      	orrs	r3, r2
 8004c14:	6023      	str	r3, [r4, #0]
}
 8004c16:	bf00      	nop
 8004c18:	3728      	adds	r7, #40	; 0x28
 8004c1a:	46bd      	mov	sp, r7
 8004c1c:	bc90      	pop	{r4, r7}
 8004c1e:	4770      	bx	lr

08004c20 <LL_ADC_SetChannelSingleDiff>:
{
 8004c20:	b480      	push	{r7}
 8004c22:	b085      	sub	sp, #20
 8004c24:	af00      	add	r7, sp, #0
 8004c26:	60f8      	str	r0, [r7, #12]
 8004c28:	60b9      	str	r1, [r7, #8]
 8004c2a:	607a      	str	r2, [r7, #4]
  MODIFY_REG(ADCx->DIFSEL,
 8004c2c:	68fb      	ldr	r3, [r7, #12]
 8004c2e:	f8d3 20b0 	ldr.w	r2, [r3, #176]	; 0xb0
 8004c32:	68bb      	ldr	r3, [r7, #8]
 8004c34:	f3c3 0312 	ubfx	r3, r3, #0, #19
 8004c38:	43db      	mvns	r3, r3
 8004c3a:	401a      	ands	r2, r3
 8004c3c:	687b      	ldr	r3, [r7, #4]
 8004c3e:	f003 0320 	and.w	r3, r3, #32
 8004c42:	4908      	ldr	r1, [pc, #32]	; (8004c64 <LL_ADC_SetChannelSingleDiff+0x44>)
 8004c44:	4099      	lsls	r1, r3
 8004c46:	68bb      	ldr	r3, [r7, #8]
 8004c48:	400b      	ands	r3, r1
 8004c4a:	f3c3 0312 	ubfx	r3, r3, #0, #19
 8004c4e:	431a      	orrs	r2, r3
 8004c50:	68fb      	ldr	r3, [r7, #12]
 8004c52:	f8c3 20b0 	str.w	r2, [r3, #176]	; 0xb0
}
 8004c56:	bf00      	nop
 8004c58:	3714      	adds	r7, #20
 8004c5a:	46bd      	mov	sp, r7
 8004c5c:	f85d 7b04 	ldr.w	r7, [sp], #4
 8004c60:	4770      	bx	lr
 8004c62:	bf00      	nop
 8004c64:	0007ffff 	.word	0x0007ffff

08004c68 <LL_ADC_DisableIT_EOC>:
{
 8004c68:	b480      	push	{r7}
 8004c6a:	b083      	sub	sp, #12
 8004c6c:	af00      	add	r7, sp, #0
 8004c6e:	6078      	str	r0, [r7, #4]
  CLEAR_BIT(ADCx->IER, LL_ADC_IT_EOC);
 8004c70:	687b      	ldr	r3, [r7, #4]
 8004c72:	685b      	ldr	r3, [r3, #4]
 8004c74:	f023 0204 	bic.w	r2, r3, #4
 8004c78:	687b      	ldr	r3, [r7, #4]
 8004c7a:	605a      	str	r2, [r3, #4]
}
 8004c7c:	bf00      	nop
 8004c7e:	370c      	adds	r7, #12
 8004c80:	46bd      	mov	sp, r7
 8004c82:	f85d 7b04 	ldr.w	r7, [sp], #4
 8004c86:	4770      	bx	lr

08004c88 <LL_ADC_DisableIT_EOS>:
{
 8004c88:	b480      	push	{r7}
 8004c8a:	b083      	sub	sp, #12
 8004c8c:	af00      	add	r7, sp, #0
 8004c8e:	6078      	str	r0, [r7, #4]
  CLEAR_BIT(ADCx->IER, LL_ADC_IT_EOS);
 8004c90:	687b      	ldr	r3, [r7, #4]
 8004c92:	685b      	ldr	r3, [r3, #4]
 8004c94:	f023 0208 	bic.w	r2, r3, #8
 8004c98:	687b      	ldr	r3, [r7, #4]
 8004c9a:	605a      	str	r2, [r3, #4]
}
 8004c9c:	bf00      	nop
 8004c9e:	370c      	adds	r7, #12
 8004ca0:	46bd      	mov	sp, r7
 8004ca2:	f85d 7b04 	ldr.w	r7, [sp], #4
 8004ca6:	4770      	bx	lr

08004ca8 <LL_ADC_DisableIT_JEOC>:
{
 8004ca8:	b480      	push	{r7}
 8004caa:	b083      	sub	sp, #12
 8004cac:	af00      	add	r7, sp, #0
 8004cae:	6078      	str	r0, [r7, #4]
  CLEAR_BIT(ADCx->IER, LL_ADC_IT_JEOC);
 8004cb0:	687b      	ldr	r3, [r7, #4]
 8004cb2:	685b      	ldr	r3, [r3, #4]
 8004cb4:	f023 0220 	bic.w	r2, r3, #32
 8004cb8:	687b      	ldr	r3, [r7, #4]
 8004cba:	605a      	str	r2, [r3, #4]
}
 8004cbc:	bf00      	nop
 8004cbe:	370c      	adds	r7, #12
 8004cc0:	46bd      	mov	sp, r7
 8004cc2:	f85d 7b04 	ldr.w	r7, [sp], #4
 8004cc6:	4770      	bx	lr

08004cc8 <LL_ADC_DisableIT_JEOS>:
{
 8004cc8:	b480      	push	{r7}
 8004cca:	b083      	sub	sp, #12
 8004ccc:	af00      	add	r7, sp, #0
 8004cce:	6078      	str	r0, [r7, #4]
  CLEAR_BIT(ADCx->IER, LL_ADC_IT_JEOS);
 8004cd0:	687b      	ldr	r3, [r7, #4]
 8004cd2:	685b      	ldr	r3, [r3, #4]
 8004cd4:	f023 0240 	bic.w	r2, r3, #64	; 0x40
 8004cd8:	687b      	ldr	r3, [r7, #4]
 8004cda:	605a      	str	r2, [r3, #4]
}
 8004cdc:	bf00      	nop
 8004cde:	370c      	adds	r7, #12
 8004ce0:	46bd      	mov	sp, r7
 8004ce2:	f85d 7b04 	ldr.w	r7, [sp], #4
 8004ce6:	4770      	bx	lr

08004ce8 <LL_AHB1_GRP1_EnableClock>:
  *
  *         (*) value not defined in all devices.
  * @retval None
*/
__STATIC_INLINE void LL_AHB1_GRP1_EnableClock(uint32_t Periphs)
{
 8004ce8:	b480      	push	{r7}
 8004cea:	b085      	sub	sp, #20
 8004cec:	af00      	add	r7, sp, #0
 8004cee:	6078      	str	r0, [r7, #4]
  __IO uint32_t tmpreg;
  SET_BIT(RCC->AHBENR, Periphs);
 8004cf0:	4b08      	ldr	r3, [pc, #32]	; (8004d14 <LL_AHB1_GRP1_EnableClock+0x2c>)
 8004cf2:	695a      	ldr	r2, [r3, #20]
 8004cf4:	4907      	ldr	r1, [pc, #28]	; (8004d14 <LL_AHB1_GRP1_EnableClock+0x2c>)
 8004cf6:	687b      	ldr	r3, [r7, #4]
 8004cf8:	4313      	orrs	r3, r2
 8004cfa:	614b      	str	r3, [r1, #20]
  /* Delay after an RCC peripheral clock enabling */
  tmpreg = READ_BIT(RCC->AHBENR, Periphs);
 8004cfc:	4b05      	ldr	r3, [pc, #20]	; (8004d14 <LL_AHB1_GRP1_EnableClock+0x2c>)
 8004cfe:	695a      	ldr	r2, [r3, #20]
 8004d00:	687b      	ldr	r3, [r7, #4]
 8004d02:	4013      	ands	r3, r2
 8004d04:	60fb      	str	r3, [r7, #12]
  (void)tmpreg;
 8004d06:	68fb      	ldr	r3, [r7, #12]
}
 8004d08:	bf00      	nop
 8004d0a:	3714      	adds	r7, #20
 8004d0c:	46bd      	mov	sp, r7
 8004d0e:	f85d 7b04 	ldr.w	r7, [sp], #4
 8004d12:	4770      	bx	lr
 8004d14:	40021000 	.word	0x40021000

08004d18 <MX_ADC1_Init>:

/* USER CODE END 0 */

/* ADC1 init function */
void MX_ADC1_Init(void)
{
 8004d18:	b580      	push	{r7, lr}
 8004d1a:	b098      	sub	sp, #96	; 0x60
 8004d1c:	af00      	add	r7, sp, #0
  LL_ADC_InitTypeDef ADC_InitStruct = {0};
 8004d1e:	f107 0354 	add.w	r3, r7, #84	; 0x54
 8004d22:	2200      	movs	r2, #0
 8004d24:	601a      	str	r2, [r3, #0]
 8004d26:	605a      	str	r2, [r3, #4]
 8004d28:	609a      	str	r2, [r3, #8]
  LL_ADC_REG_InitTypeDef ADC_REG_InitStruct = {0};
 8004d2a:	f107 033c 	add.w	r3, r7, #60	; 0x3c
 8004d2e:	2200      	movs	r2, #0
 8004d30:	601a      	str	r2, [r3, #0]
 8004d32:	605a      	str	r2, [r3, #4]
 8004d34:	609a      	str	r2, [r3, #8]
 8004d36:	60da      	str	r2, [r3, #12]
 8004d38:	611a      	str	r2, [r3, #16]
 8004d3a:	615a      	str	r2, [r3, #20]
  LL_ADC_CommonInitTypeDef ADC_CommonInitStruct = {0};
 8004d3c:	f107 032c 	add.w	r3, r7, #44	; 0x2c
 8004d40:	2200      	movs	r2, #0
 8004d42:	601a      	str	r2, [r3, #0]
 8004d44:	605a      	str	r2, [r3, #4]
 8004d46:	609a      	str	r2, [r3, #8]
 8004d48:	60da      	str	r2, [r3, #12]
  LL_ADC_INJ_InitTypeDef ADC_INJ_InitStruct = {0};
 8004d4a:	f107 031c 	add.w	r3, r7, #28
 8004d4e:	2200      	movs	r2, #0
 8004d50:	601a      	str	r2, [r3, #0]
 8004d52:	605a      	str	r2, [r3, #4]
 8004d54:	609a      	str	r2, [r3, #8]
 8004d56:	60da      	str	r2, [r3, #12]

  LL_GPIO_InitTypeDef GPIO_InitStruct = {0};
 8004d58:	1d3b      	adds	r3, r7, #4
 8004d5a:	2200      	movs	r2, #0
 8004d5c:	601a      	str	r2, [r3, #0]
 8004d5e:	605a      	str	r2, [r3, #4]
 8004d60:	609a      	str	r2, [r3, #8]
 8004d62:	60da      	str	r2, [r3, #12]
 8004d64:	611a      	str	r2, [r3, #16]
 8004d66:	615a      	str	r2, [r3, #20]
  /* Peripheral clock enable */
  LL_AHB1_GRP1_EnableClock(LL_AHB1_GRP1_PERIPH_ADC12);
 8004d68:	f04f 5080 	mov.w	r0, #268435456	; 0x10000000
 8004d6c:	f7ff ffbc 	bl	8004ce8 <LL_AHB1_GRP1_EnableClock>
  
  LL_AHB1_GRP1_EnableClock(LL_AHB1_GRP1_PERIPH_GPIOA);
 8004d70:	f44f 3000 	mov.w	r0, #131072	; 0x20000
 8004d74:	f7ff ffb8 	bl	8004ce8 <LL_AHB1_GRP1_EnableClock>
  /**ADC1 GPIO Configuration  
  PA0   ------> ADC1_IN1
  PA1   ------> ADC1_IN2
  PA3   ------> ADC1_IN4 
  */
  GPIO_InitStruct.Pin = LL_GPIO_PIN_0|LL_GPIO_PIN_1|LL_GPIO_PIN_3;
 8004d78:	230b      	movs	r3, #11
 8004d7a:	607b      	str	r3, [r7, #4]
  GPIO_InitStruct.Mode = LL_GPIO_MODE_ANALOG;
 8004d7c:	2303      	movs	r3, #3
 8004d7e:	60bb      	str	r3, [r7, #8]
  GPIO_InitStruct.Pull = LL_GPIO_PULL_NO;
 8004d80:	2300      	movs	r3, #0
 8004d82:	617b      	str	r3, [r7, #20]
  LL_GPIO_Init(GPIOA, &GPIO_InitStruct);
 8004d84:	1d3b      	adds	r3, r7, #4
 8004d86:	4619      	mov	r1, r3
 8004d88:	f04f 4090 	mov.w	r0, #1207959552	; 0x48000000
 8004d8c:	f7fe f912 	bl	8002fb4 <LL_GPIO_Init>

  /* ADC1 interrupt Init */
  NVIC_SetPriority(ADC1_2_IRQn, NVIC_EncodePriority(NVIC_GetPriorityGrouping(),0, 0));
 8004d90:	f7ff fe2c 	bl	80049ec <NVIC_GetPriorityGrouping>
 8004d94:	4603      	mov	r3, r0
 8004d96:	2200      	movs	r2, #0
 8004d98:	2100      	movs	r1, #0
 8004d9a:	4618      	mov	r0, r3
 8004d9c:	f7ff fe78 	bl	8004a90 <NVIC_EncodePriority>
 8004da0:	4603      	mov	r3, r0
 8004da2:	4619      	mov	r1, r3
 8004da4:	2012      	movs	r0, #18
 8004da6:	f7ff fe49 	bl	8004a3c <NVIC_SetPriority>
  NVIC_EnableIRQ(ADC1_2_IRQn);
 8004daa:	2012      	movs	r0, #18
 8004dac:	f7ff fe2c 	bl	8004a08 <NVIC_EnableIRQ>

  /** Common config 
  */
  ADC_InitStruct.Resolution = LL_ADC_RESOLUTION_12B;
 8004db0:	2300      	movs	r3, #0
 8004db2:	657b      	str	r3, [r7, #84]	; 0x54
  ADC_InitStruct.DataAlignment = LL_ADC_DATA_ALIGN_RIGHT;
 8004db4:	2300      	movs	r3, #0
 8004db6:	65bb      	str	r3, [r7, #88]	; 0x58
  ADC_InitStruct.LowPowerMode = LL_ADC_LP_MODE_NONE;
 8004db8:	2300      	movs	r3, #0
 8004dba:	65fb      	str	r3, [r7, #92]	; 0x5c
  LL_ADC_Init(ADC1, &ADC_InitStruct);
 8004dbc:	f107 0354 	add.w	r3, r7, #84	; 0x54
 8004dc0:	4619      	mov	r1, r3
 8004dc2:	f04f 40a0 	mov.w	r0, #1342177280	; 0x50000000
 8004dc6:	f7fd ff4f 	bl	8002c68 <LL_ADC_Init>
  ADC_REG_InitStruct.SequencerLength = LL_ADC_REG_SEQ_SCAN_DISABLE;
 8004dca:	2300      	movs	r3, #0
 8004dcc:	643b      	str	r3, [r7, #64]	; 0x40
  ADC_REG_InitStruct.SequencerDiscont = LL_ADC_REG_SEQ_DISCONT_DISABLE;
 8004dce:	2300      	movs	r3, #0
 8004dd0:	647b      	str	r3, [r7, #68]	; 0x44
  ADC_REG_InitStruct.ContinuousMode = LL_ADC_REG_CONV_SINGLE;
 8004dd2:	2300      	movs	r3, #0
 8004dd4:	64bb      	str	r3, [r7, #72]	; 0x48
  ADC_REG_InitStruct.DMATransfer = LL_ADC_REG_DMA_TRANSFER_LIMITED;
 8004dd6:	2301      	movs	r3, #1
 8004dd8:	64fb      	str	r3, [r7, #76]	; 0x4c
  ADC_REG_InitStruct.Overrun = LL_ADC_REG_OVR_DATA_OVERWRITTEN;
 8004dda:	f44f 5380 	mov.w	r3, #4096	; 0x1000
 8004dde:	653b      	str	r3, [r7, #80]	; 0x50
  LL_ADC_REG_Init(ADC1, &ADC_REG_InitStruct);
 8004de0:	f107 033c 	add.w	r3, r7, #60	; 0x3c
 8004de4:	4619      	mov	r1, r3
 8004de6:	f04f 40a0 	mov.w	r0, #1342177280	; 0x50000000
 8004dea:	f7fd ff63 	bl	8002cb4 <LL_ADC_REG_Init>
  LL_ADC_DisableIT_EOC(ADC1);
 8004dee:	f04f 40a0 	mov.w	r0, #1342177280	; 0x50000000
 8004df2:	f7ff ff39 	bl	8004c68 <LL_ADC_DisableIT_EOC>
  LL_ADC_DisableIT_EOS(ADC1);
 8004df6:	f04f 40a0 	mov.w	r0, #1342177280	; 0x50000000
 8004dfa:	f7ff ff45 	bl	8004c88 <LL_ADC_DisableIT_EOS>
  ADC_CommonInitStruct.CommonClock = LL_ADC_CLOCK_SYNC_PCLK_DIV1;
 8004dfe:	f44f 3380 	mov.w	r3, #65536	; 0x10000
 8004e02:	62fb      	str	r3, [r7, #44]	; 0x2c
  ADC_CommonInitStruct.Multimode = LL_ADC_MULTI_INDEPENDENT;
 8004e04:	2300      	movs	r3, #0
 8004e06:	633b      	str	r3, [r7, #48]	; 0x30
  LL_ADC_CommonInit(__LL_ADC_COMMON_INSTANCE(ADC1), &ADC_CommonInitStruct);
 8004e08:	f107 032c 	add.w	r3, r7, #44	; 0x2c
 8004e0c:	4619      	mov	r1, r3
 8004e0e:	4849      	ldr	r0, [pc, #292]	; (8004f34 <MX_ADC1_Init+0x21c>)
 8004e10:	f7fd feea 	bl	8002be8 <LL_ADC_CommonInit>
  /** Configure Injected Channel 
  */
  ADC_INJ_InitStruct.TriggerSource = LL_ADC_INJ_TRIG_EXT_TIM1_TRGO2;
 8004e14:	2360      	movs	r3, #96	; 0x60
 8004e16:	61fb      	str	r3, [r7, #28]
  ADC_INJ_InitStruct.SequencerLength = LL_ADC_INJ_SEQ_SCAN_ENABLE_3RANKS;
 8004e18:	2302      	movs	r3, #2
 8004e1a:	623b      	str	r3, [r7, #32]
  ADC_INJ_InitStruct.SequencerDiscont = LL_ADC_INJ_SEQ_DISCONT_DISABLE;
 8004e1c:	2300      	movs	r3, #0
 8004e1e:	627b      	str	r3, [r7, #36]	; 0x24
  ADC_INJ_InitStruct.TrigAuto = LL_ADC_INJ_TRIG_INDEPENDENT;
 8004e20:	2300      	movs	r3, #0
 8004e22:	62bb      	str	r3, [r7, #40]	; 0x28
  LL_ADC_INJ_Init(ADC1, &ADC_INJ_InitStruct);
 8004e24:	f107 031c 	add.w	r3, r7, #28
 8004e28:	4619      	mov	r1, r3
 8004e2a:	f04f 40a0 	mov.w	r0, #1342177280	; 0x50000000
 8004e2e:	f7fd ff8b 	bl	8002d48 <LL_ADC_INJ_Init>
  LL_ADC_INJ_SetQueueMode(ADC1, LL_ADC_INJ_QUEUE_2CONTEXTS_LAST_ACTIVE);
 8004e32:	2100      	movs	r1, #0
 8004e34:	f04f 40a0 	mov.w	r0, #1342177280	; 0x50000000
 8004e38:	f7ff fe96 	bl	8004b68 <LL_ADC_INJ_SetQueueMode>
  LL_ADC_DisableIT_JEOC(ADC1);
 8004e3c:	f04f 40a0 	mov.w	r0, #1342177280	; 0x50000000
 8004e40:	f7ff ff32 	bl	8004ca8 <LL_ADC_DisableIT_JEOC>
  LL_ADC_DisableIT_JEOS(ADC1);
 8004e44:	f04f 40a0 	mov.w	r0, #1342177280	; 0x50000000
 8004e48:	f7ff ff3e 	bl	8004cc8 <LL_ADC_DisableIT_JEOS>
  LL_ADC_INJ_SetSequencerRanks(ADC1, LL_ADC_INJ_RANK_1, LL_ADC_CHANNEL_1);
 8004e4c:	4a3a      	ldr	r2, [pc, #232]	; (8004f38 <MX_ADC1_Init+0x220>)
 8004e4e:	2108      	movs	r1, #8
 8004e50:	f04f 40a0 	mov.w	r0, #1342177280	; 0x50000000
 8004e54:	f7ff fe62 	bl	8004b1c <LL_ADC_INJ_SetSequencerRanks>
  LL_ADC_SetChannelSamplingTime(ADC1, LL_ADC_CHANNEL_1, LL_ADC_SAMPLINGTIME_7CYCLES_5);
 8004e58:	2203      	movs	r2, #3
 8004e5a:	4937      	ldr	r1, [pc, #220]	; (8004f38 <MX_ADC1_Init+0x220>)
 8004e5c:	f04f 40a0 	mov.w	r0, #1342177280	; 0x50000000
 8004e60:	f7ff fe95 	bl	8004b8e <LL_ADC_SetChannelSamplingTime>
  LL_ADC_SetChannelSingleDiff(ADC1, LL_ADC_CHANNEL_1, LL_ADC_SINGLE_ENDED);
 8004e64:	227f      	movs	r2, #127	; 0x7f
 8004e66:	4934      	ldr	r1, [pc, #208]	; (8004f38 <MX_ADC1_Init+0x220>)
 8004e68:	f04f 40a0 	mov.w	r0, #1342177280	; 0x50000000
 8004e6c:	f7ff fed8 	bl	8004c20 <LL_ADC_SetChannelSingleDiff>
  LL_ADC_INJ_SetTriggerEdge(ADC1, LL_ADC_INJ_TRIG_EXT_RISING);
 8004e70:	2140      	movs	r1, #64	; 0x40
 8004e72:	f04f 40a0 	mov.w	r0, #1342177280	; 0x50000000
 8004e76:	f7ff fe3e 	bl	8004af6 <LL_ADC_INJ_SetTriggerEdge>
  /** Configure Injected Channel 
  */
  LL_ADC_INJ_Init(ADC1, &ADC_INJ_InitStruct);
 8004e7a:	f107 031c 	add.w	r3, r7, #28
 8004e7e:	4619      	mov	r1, r3
 8004e80:	f04f 40a0 	mov.w	r0, #1342177280	; 0x50000000
 8004e84:	f7fd ff60 	bl	8002d48 <LL_ADC_INJ_Init>
  LL_ADC_INJ_SetQueueMode(ADC1, LL_ADC_INJ_QUEUE_2CONTEXTS_LAST_ACTIVE);
 8004e88:	2100      	movs	r1, #0
 8004e8a:	f04f 40a0 	mov.w	r0, #1342177280	; 0x50000000
 8004e8e:	f7ff fe6b 	bl	8004b68 <LL_ADC_INJ_SetQueueMode>
  LL_ADC_DisableIT_JEOC(ADC1);
 8004e92:	f04f 40a0 	mov.w	r0, #1342177280	; 0x50000000
 8004e96:	f7ff ff07 	bl	8004ca8 <LL_ADC_DisableIT_JEOC>
  LL_ADC_DisableIT_JEOS(ADC1);
 8004e9a:	f04f 40a0 	mov.w	r0, #1342177280	; 0x50000000
 8004e9e:	f7ff ff13 	bl	8004cc8 <LL_ADC_DisableIT_JEOS>
  LL_ADC_INJ_SetSequencerRanks(ADC1, LL_ADC_INJ_RANK_2, LL_ADC_CHANNEL_2);
 8004ea2:	4a26      	ldr	r2, [pc, #152]	; (8004f3c <MX_ADC1_Init+0x224>)
 8004ea4:	f44f 7187 	mov.w	r1, #270	; 0x10e
 8004ea8:	f04f 40a0 	mov.w	r0, #1342177280	; 0x50000000
 8004eac:	f7ff fe36 	bl	8004b1c <LL_ADC_INJ_SetSequencerRanks>
  LL_ADC_SetChannelSamplingTime(ADC1, LL_ADC_CHANNEL_2, LL_ADC_SAMPLINGTIME_7CYCLES_5);
 8004eb0:	2203      	movs	r2, #3
 8004eb2:	4922      	ldr	r1, [pc, #136]	; (8004f3c <MX_ADC1_Init+0x224>)
 8004eb4:	f04f 40a0 	mov.w	r0, #1342177280	; 0x50000000
 8004eb8:	f7ff fe69 	bl	8004b8e <LL_ADC_SetChannelSamplingTime>
  LL_ADC_SetChannelSingleDiff(ADC1, LL_ADC_CHANNEL_2, LL_ADC_SINGLE_ENDED);
 8004ebc:	227f      	movs	r2, #127	; 0x7f
 8004ebe:	491f      	ldr	r1, [pc, #124]	; (8004f3c <MX_ADC1_Init+0x224>)
 8004ec0:	f04f 40a0 	mov.w	r0, #1342177280	; 0x50000000
 8004ec4:	f7ff feac 	bl	8004c20 <LL_ADC_SetChannelSingleDiff>
  LL_ADC_INJ_SetTriggerEdge(ADC1, LL_ADC_INJ_TRIG_EXT_RISING);
 8004ec8:	2140      	movs	r1, #64	; 0x40
 8004eca:	f04f 40a0 	mov.w	r0, #1342177280	; 0x50000000
 8004ece:	f7ff fe12 	bl	8004af6 <LL_ADC_INJ_SetTriggerEdge>
  /** Configure Injected Channel 
  */
  LL_ADC_INJ_Init(ADC1, &ADC_INJ_InitStruct);
 8004ed2:	f107 031c 	add.w	r3, r7, #28
 8004ed6:	4619      	mov	r1, r3
 8004ed8:	f04f 40a0 	mov.w	r0, #1342177280	; 0x50000000
 8004edc:	f7fd ff34 	bl	8002d48 <LL_ADC_INJ_Init>
  LL_ADC_INJ_SetQueueMode(ADC1, LL_ADC_INJ_QUEUE_2CONTEXTS_LAST_ACTIVE);
 8004ee0:	2100      	movs	r1, #0
 8004ee2:	f04f 40a0 	mov.w	r0, #1342177280	; 0x50000000
 8004ee6:	f7ff fe3f 	bl	8004b68 <LL_ADC_INJ_SetQueueMode>
  LL_ADC_DisableIT_JEOC(ADC1);
 8004eea:	f04f 40a0 	mov.w	r0, #1342177280	; 0x50000000
 8004eee:	f7ff fedb 	bl	8004ca8 <LL_ADC_DisableIT_JEOC>
  LL_ADC_DisableIT_JEOS(ADC1);
 8004ef2:	f04f 40a0 	mov.w	r0, #1342177280	; 0x50000000
 8004ef6:	f7ff fee7 	bl	8004cc8 <LL_ADC_DisableIT_JEOS>
  LL_ADC_INJ_SetSequencerRanks(ADC1, LL_ADC_INJ_RANK_3, LL_ADC_CHANNEL_4);
 8004efa:	4a11      	ldr	r2, [pc, #68]	; (8004f40 <MX_ADC1_Init+0x228>)
 8004efc:	f44f 7105 	mov.w	r1, #532	; 0x214
 8004f00:	f04f 40a0 	mov.w	r0, #1342177280	; 0x50000000
 8004f04:	f7ff fe0a 	bl	8004b1c <LL_ADC_INJ_SetSequencerRanks>
  LL_ADC_SetChannelSamplingTime(ADC1, LL_ADC_CHANNEL_4, LL_ADC_SAMPLINGTIME_7CYCLES_5);
 8004f08:	2203      	movs	r2, #3
 8004f0a:	490d      	ldr	r1, [pc, #52]	; (8004f40 <MX_ADC1_Init+0x228>)
 8004f0c:	f04f 40a0 	mov.w	r0, #1342177280	; 0x50000000
 8004f10:	f7ff fe3d 	bl	8004b8e <LL_ADC_SetChannelSamplingTime>
  LL_ADC_SetChannelSingleDiff(ADC1, LL_ADC_CHANNEL_4, LL_ADC_SINGLE_ENDED);
 8004f14:	227f      	movs	r2, #127	; 0x7f
 8004f16:	490a      	ldr	r1, [pc, #40]	; (8004f40 <MX_ADC1_Init+0x228>)
 8004f18:	f04f 40a0 	mov.w	r0, #1342177280	; 0x50000000
 8004f1c:	f7ff fe80 	bl	8004c20 <LL_ADC_SetChannelSingleDiff>
  LL_ADC_INJ_SetTriggerEdge(ADC1, LL_ADC_INJ_TRIG_EXT_RISING);
 8004f20:	2140      	movs	r1, #64	; 0x40
 8004f22:	f04f 40a0 	mov.w	r0, #1342177280	; 0x50000000
 8004f26:	f7ff fde6 	bl	8004af6 <LL_ADC_INJ_SetTriggerEdge>

}
 8004f2a:	bf00      	nop
 8004f2c:	3760      	adds	r7, #96	; 0x60
 8004f2e:	46bd      	mov	sp, r7
 8004f30:	bd80      	pop	{r7, pc}
 8004f32:	bf00      	nop
 8004f34:	50000300 	.word	0x50000300
 8004f38:	04300002 	.word	0x04300002
 8004f3c:	08600004 	.word	0x08600004
 8004f40:	10c00010 	.word	0x10c00010

08004f44 <LL_GPIO_ResetOutputPin>:
  *         @arg @ref LL_GPIO_PIN_15
  *         @arg @ref LL_GPIO_PIN_ALL
  * @retval None
  */
__STATIC_INLINE void LL_GPIO_ResetOutputPin(GPIO_TypeDef *GPIOx, uint32_t PinMask)
{
 8004f44:	b480      	push	{r7}
 8004f46:	b083      	sub	sp, #12
 8004f48:	af00      	add	r7, sp, #0
 8004f4a:	6078      	str	r0, [r7, #4]
 8004f4c:	6039      	str	r1, [r7, #0]
  WRITE_REG(GPIOx->BRR, PinMask);
 8004f4e:	687b      	ldr	r3, [r7, #4]
 8004f50:	683a      	ldr	r2, [r7, #0]
 8004f52:	629a      	str	r2, [r3, #40]	; 0x28
}
 8004f54:	bf00      	nop
 8004f56:	370c      	adds	r7, #12
 8004f58:	46bd      	mov	sp, r7
 8004f5a:	f85d 7b04 	ldr.w	r7, [sp], #4
 8004f5e:	4770      	bx	lr

08004f60 <LL_AHB1_GRP1_EnableClock>:
{
 8004f60:	b480      	push	{r7}
 8004f62:	b085      	sub	sp, #20
 8004f64:	af00      	add	r7, sp, #0
 8004f66:	6078      	str	r0, [r7, #4]
  SET_BIT(RCC->AHBENR, Periphs);
 8004f68:	4b08      	ldr	r3, [pc, #32]	; (8004f8c <LL_AHB1_GRP1_EnableClock+0x2c>)
 8004f6a:	695a      	ldr	r2, [r3, #20]
 8004f6c:	4907      	ldr	r1, [pc, #28]	; (8004f8c <LL_AHB1_GRP1_EnableClock+0x2c>)
 8004f6e:	687b      	ldr	r3, [r7, #4]
 8004f70:	4313      	orrs	r3, r2
 8004f72:	614b      	str	r3, [r1, #20]
  tmpreg = READ_BIT(RCC->AHBENR, Periphs);
 8004f74:	4b05      	ldr	r3, [pc, #20]	; (8004f8c <LL_AHB1_GRP1_EnableClock+0x2c>)
 8004f76:	695a      	ldr	r2, [r3, #20]
 8004f78:	687b      	ldr	r3, [r7, #4]
 8004f7a:	4013      	ands	r3, r2
 8004f7c:	60fb      	str	r3, [r7, #12]
  (void)tmpreg;
 8004f7e:	68fb      	ldr	r3, [r7, #12]
}
 8004f80:	bf00      	nop
 8004f82:	3714      	adds	r7, #20
 8004f84:	46bd      	mov	sp, r7
 8004f86:	f85d 7b04 	ldr.w	r7, [sp], #4
 8004f8a:	4770      	bx	lr
 8004f8c:	40021000 	.word	0x40021000

08004f90 <MX_GPIO_Init>:
        * Output
        * EVENT_OUT
        * EXTI
*/
void MX_GPIO_Init(void)
{
 8004f90:	b580      	push	{r7, lr}
 8004f92:	b086      	sub	sp, #24
 8004f94:	af00      	add	r7, sp, #0

  LL_GPIO_InitTypeDef GPIO_InitStruct = {0};
 8004f96:	463b      	mov	r3, r7
 8004f98:	2200      	movs	r2, #0
 8004f9a:	601a      	str	r2, [r3, #0]
 8004f9c:	605a      	str	r2, [r3, #4]
 8004f9e:	609a      	str	r2, [r3, #8]
 8004fa0:	60da      	str	r2, [r3, #12]
 8004fa2:	611a      	str	r2, [r3, #16]
 8004fa4:	615a      	str	r2, [r3, #20]

  /* GPIO Ports Clock Enable */
  LL_AHB1_GRP1_EnableClock(LL_AHB1_GRP1_PERIPH_GPIOF);
 8004fa6:	f44f 0080 	mov.w	r0, #4194304	; 0x400000
 8004faa:	f7ff ffd9 	bl	8004f60 <LL_AHB1_GRP1_EnableClock>
  LL_AHB1_GRP1_EnableClock(LL_AHB1_GRP1_PERIPH_GPIOA);
 8004fae:	f44f 3000 	mov.w	r0, #131072	; 0x20000
 8004fb2:	f7ff ffd5 	bl	8004f60 <LL_AHB1_GRP1_EnableClock>
  LL_AHB1_GRP1_EnableClock(LL_AHB1_GRP1_PERIPH_GPIOB);
 8004fb6:	f44f 2080 	mov.w	r0, #262144	; 0x40000
 8004fba:	f7ff ffd1 	bl	8004f60 <LL_AHB1_GRP1_EnableClock>

  /**/
  LL_GPIO_ResetOutputPin(LD3_GPIO_Port, LD3_Pin);
 8004fbe:	2108      	movs	r1, #8
 8004fc0:	480a      	ldr	r0, [pc, #40]	; (8004fec <MX_GPIO_Init+0x5c>)
 8004fc2:	f7ff ffbf 	bl	8004f44 <LL_GPIO_ResetOutputPin>

  /**/
  GPIO_InitStruct.Pin = LD3_Pin;
 8004fc6:	2308      	movs	r3, #8
 8004fc8:	603b      	str	r3, [r7, #0]
  GPIO_InitStruct.Mode = LL_GPIO_MODE_OUTPUT;
 8004fca:	2301      	movs	r3, #1
 8004fcc:	607b      	str	r3, [r7, #4]
  GPIO_InitStruct.Speed = LL_GPIO_SPEED_FREQ_LOW;
 8004fce:	2300      	movs	r3, #0
 8004fd0:	60bb      	str	r3, [r7, #8]
  GPIO_InitStruct.OutputType = LL_GPIO_OUTPUT_PUSHPULL;
 8004fd2:	2300      	movs	r3, #0
 8004fd4:	60fb      	str	r3, [r7, #12]
  GPIO_InitStruct.Pull = LL_GPIO_PULL_NO;
 8004fd6:	2300      	movs	r3, #0
 8004fd8:	613b      	str	r3, [r7, #16]
  LL_GPIO_Init(LD3_GPIO_Port, &GPIO_InitStruct);
 8004fda:	463b      	mov	r3, r7
 8004fdc:	4619      	mov	r1, r3
 8004fde:	4803      	ldr	r0, [pc, #12]	; (8004fec <MX_GPIO_Init+0x5c>)
 8004fe0:	f7fd ffe8 	bl	8002fb4 <LL_GPIO_Init>

}
 8004fe4:	bf00      	nop
 8004fe6:	3718      	adds	r7, #24
 8004fe8:	46bd      	mov	sp, r7
 8004fea:	bd80      	pop	{r7, pc}
 8004fec:	48000400 	.word	0x48000400

08004ff0 <main>:
/**
  * @brief  The application entry point.
  * @retval int
  */
int main(void)
{
 8004ff0:	b580      	push	{r7, lr}
 8004ff2:	af00      	add	r7, sp, #0
  

  /* MCU Configuration--------------------------------------------------------*/

  /* Reset of all peripherals, Initializes the Flash interface and the Systick. */
  HAL_Init();
 8004ff4:	f7fb fdb6 	bl	8000b64 <HAL_Init>
  /* USER CODE BEGIN Init */

  /* USER CODE END Init */

  /* Configure the system clock */
  SystemClock_Config();
 8004ff8:	f000 f80b 	bl	8005012 <SystemClock_Config>
  /* USER CODE BEGIN SysInit */

  /* USER CODE END SysInit */

  /* Initialize all configured peripherals */
  MX_GPIO_Init();
 8004ffc:	f7ff ffc8 	bl	8004f90 <MX_GPIO_Init>
  MX_USART2_UART_Init();
 8005000:	f000 fc20 	bl	8005844 <MX_USART2_UART_Init>
  MX_TIM1_Init();
 8005004:	f000 fb10 	bl	8005628 <MX_TIM1_Init>
  MX_ADC1_Init();
 8005008:	f7ff fe86 	bl	8004d18 <MX_ADC1_Init>
  /* USER CODE BEGIN 2 */
  CPP_Wrapper();
 800500c:	f7fe ff1e 	bl	8003e4c <CPP_Wrapper>
  /* USER CODE END 2 */

  /* Infinite loop */
  /* USER CODE BEGIN WHILE */
  while (1)
 8005010:	e7fe      	b.n	8005010 <main+0x20>

08005012 <SystemClock_Config>:
/**
  * @brief System Clock Configuration
  * @retval None
  */
void SystemClock_Config(void)
{
 8005012:	b580      	push	{r7, lr}
 8005014:	b096      	sub	sp, #88	; 0x58
 8005016:	af00      	add	r7, sp, #0
  RCC_OscInitTypeDef RCC_OscInitStruct = {0};
 8005018:	f107 0330 	add.w	r3, r7, #48	; 0x30
 800501c:	2228      	movs	r2, #40	; 0x28
 800501e:	2100      	movs	r1, #0
 8005020:	4618      	mov	r0, r3
 8005022:	f001 fd38 	bl	8006a96 <memset>
  RCC_ClkInitTypeDef RCC_ClkInitStruct = {0};
 8005026:	f107 031c 	add.w	r3, r7, #28
 800502a:	2200      	movs	r2, #0
 800502c:	601a      	str	r2, [r3, #0]
 800502e:	605a      	str	r2, [r3, #4]
 8005030:	609a      	str	r2, [r3, #8]
 8005032:	60da      	str	r2, [r3, #12]
 8005034:	611a      	str	r2, [r3, #16]
  RCC_PeriphCLKInitTypeDef PeriphClkInit = {0};
 8005036:	1d3b      	adds	r3, r7, #4
 8005038:	2200      	movs	r2, #0
 800503a:	601a      	str	r2, [r3, #0]
 800503c:	605a      	str	r2, [r3, #4]
 800503e:	609a      	str	r2, [r3, #8]
 8005040:	60da      	str	r2, [r3, #12]
 8005042:	611a      	str	r2, [r3, #16]
 8005044:	615a      	str	r2, [r3, #20]

  /** Initializes the CPU, AHB and APB busses clocks 
  */
  RCC_OscInitStruct.OscillatorType = RCC_OSCILLATORTYPE_HSE;
 8005046:	2301      	movs	r3, #1
 8005048:	633b      	str	r3, [r7, #48]	; 0x30
  RCC_OscInitStruct.HSEState = RCC_HSE_BYPASS;
 800504a:	f44f 23a0 	mov.w	r3, #327680	; 0x50000
 800504e:	637b      	str	r3, [r7, #52]	; 0x34
  RCC_OscInitStruct.HSEPredivValue = RCC_HSE_PREDIV_DIV1;
 8005050:	2300      	movs	r3, #0
 8005052:	63bb      	str	r3, [r7, #56]	; 0x38
  RCC_OscInitStruct.HSIState = RCC_HSI_ON;
 8005054:	2301      	movs	r3, #1
 8005056:	643b      	str	r3, [r7, #64]	; 0x40
  RCC_OscInitStruct.PLL.PLLState = RCC_PLL_ON;
 8005058:	2302      	movs	r3, #2
 800505a:	64fb      	str	r3, [r7, #76]	; 0x4c
  RCC_OscInitStruct.PLL.PLLSource = RCC_PLLSOURCE_HSE;
 800505c:	f44f 3380 	mov.w	r3, #65536	; 0x10000
 8005060:	653b      	str	r3, [r7, #80]	; 0x50
  RCC_OscInitStruct.PLL.PLLMUL = RCC_PLL_MUL9;
 8005062:	f44f 13e0 	mov.w	r3, #1835008	; 0x1c0000
 8005066:	657b      	str	r3, [r7, #84]	; 0x54
  if (HAL_RCC_OscConfig(&RCC_OscInitStruct) != HAL_OK)
 8005068:	f107 0330 	add.w	r3, r7, #48	; 0x30
 800506c:	4618      	mov	r0, r3
 800506e:	f7fc f85d 	bl	800112c <HAL_RCC_OscConfig>
 8005072:	4603      	mov	r3, r0
 8005074:	2b00      	cmp	r3, #0
 8005076:	d001      	beq.n	800507c <SystemClock_Config+0x6a>
  {
    Error_Handler();
 8005078:	f000 f828 	bl	80050cc <Error_Handler>
  }
  /** Initializes the CPU, AHB and APB busses clocks 
  */
  RCC_ClkInitStruct.ClockType = RCC_CLOCKTYPE_HCLK|RCC_CLOCKTYPE_SYSCLK
 800507c:	230f      	movs	r3, #15
 800507e:	61fb      	str	r3, [r7, #28]
                              |RCC_CLOCKTYPE_PCLK1|RCC_CLOCKTYPE_PCLK2;
  RCC_ClkInitStruct.SYSCLKSource = RCC_SYSCLKSOURCE_PLLCLK;
 8005080:	2302      	movs	r3, #2
 8005082:	623b      	str	r3, [r7, #32]
  RCC_ClkInitStruct.AHBCLKDivider = RCC_SYSCLK_DIV1;
 8005084:	2300      	movs	r3, #0
 8005086:	627b      	str	r3, [r7, #36]	; 0x24
  RCC_ClkInitStruct.APB1CLKDivider = RCC_HCLK_DIV2;
 8005088:	f44f 6380 	mov.w	r3, #1024	; 0x400
 800508c:	62bb      	str	r3, [r7, #40]	; 0x28
  RCC_ClkInitStruct.APB2CLKDivider = RCC_HCLK_DIV1;
 800508e:	2300      	movs	r3, #0
 8005090:	62fb      	str	r3, [r7, #44]	; 0x2c

  if (HAL_RCC_ClockConfig(&RCC_ClkInitStruct, FLASH_LATENCY_2) != HAL_OK)
 8005092:	f107 031c 	add.w	r3, r7, #28
 8005096:	2102      	movs	r1, #2
 8005098:	4618      	mov	r0, r3
 800509a:	f7fc ff35 	bl	8001f08 <HAL_RCC_ClockConfig>
 800509e:	4603      	mov	r3, r0
 80050a0:	2b00      	cmp	r3, #0
 80050a2:	d001      	beq.n	80050a8 <SystemClock_Config+0x96>
  {
    Error_Handler();
 80050a4:	f000 f812 	bl	80050cc <Error_Handler>
  }
  PeriphClkInit.PeriphClockSelection = RCC_PERIPHCLK_TIM1;
 80050a8:	f44f 5380 	mov.w	r3, #4096	; 0x1000
 80050ac:	607b      	str	r3, [r7, #4]
  PeriphClkInit.Tim1ClockSelection = RCC_TIM1CLK_HCLK;
 80050ae:	2300      	movs	r3, #0
 80050b0:	61bb      	str	r3, [r7, #24]
  if (HAL_RCCEx_PeriphCLKConfig(&PeriphClkInit) != HAL_OK)
 80050b2:	1d3b      	adds	r3, r7, #4
 80050b4:	4618      	mov	r0, r3
 80050b6:	f7fd f95d 	bl	8002374 <HAL_RCCEx_PeriphCLKConfig>
 80050ba:	4603      	mov	r3, r0
 80050bc:	2b00      	cmp	r3, #0
 80050be:	d001      	beq.n	80050c4 <SystemClock_Config+0xb2>
  {
    Error_Handler();
 80050c0:	f000 f804 	bl	80050cc <Error_Handler>
  }
}
 80050c4:	bf00      	nop
 80050c6:	3758      	adds	r7, #88	; 0x58
 80050c8:	46bd      	mov	sp, r7
 80050ca:	bd80      	pop	{r7, pc}

080050cc <Error_Handler>:
/**
  * @brief  This function is executed in case of error occurrence.
  * @retval None
  */
void Error_Handler(void)
{
 80050cc:	b480      	push	{r7}
 80050ce:	af00      	add	r7, sp, #0
  /* USER CODE BEGIN Error_Handler_Debug */
  /* User can add his own implementation to report the HAL error return state */

  /* USER CODE END Error_Handler_Debug */
}
 80050d0:	bf00      	nop
 80050d2:	46bd      	mov	sp, r7
 80050d4:	f85d 7b04 	ldr.w	r7, [sp], #4
 80050d8:	4770      	bx	lr
	...

080050dc <HAL_MspInit>:
/* USER CODE END 0 */
/**
  * Initializes the Global MSP.
  */
void HAL_MspInit(void)
{
 80050dc:	b480      	push	{r7}
 80050de:	b083      	sub	sp, #12
 80050e0:	af00      	add	r7, sp, #0
  /* USER CODE BEGIN MspInit 0 */

  /* USER CODE END MspInit 0 */

  __HAL_RCC_SYSCFG_CLK_ENABLE();
 80050e2:	4b0f      	ldr	r3, [pc, #60]	; (8005120 <HAL_MspInit+0x44>)
 80050e4:	699b      	ldr	r3, [r3, #24]
 80050e6:	4a0e      	ldr	r2, [pc, #56]	; (8005120 <HAL_MspInit+0x44>)
 80050e8:	f043 0301 	orr.w	r3, r3, #1
 80050ec:	6193      	str	r3, [r2, #24]
 80050ee:	4b0c      	ldr	r3, [pc, #48]	; (8005120 <HAL_MspInit+0x44>)
 80050f0:	699b      	ldr	r3, [r3, #24]
 80050f2:	f003 0301 	and.w	r3, r3, #1
 80050f6:	607b      	str	r3, [r7, #4]
 80050f8:	687b      	ldr	r3, [r7, #4]
  __HAL_RCC_PWR_CLK_ENABLE();
 80050fa:	4b09      	ldr	r3, [pc, #36]	; (8005120 <HAL_MspInit+0x44>)
 80050fc:	69db      	ldr	r3, [r3, #28]
 80050fe:	4a08      	ldr	r2, [pc, #32]	; (8005120 <HAL_MspInit+0x44>)
 8005100:	f043 5380 	orr.w	r3, r3, #268435456	; 0x10000000
 8005104:	61d3      	str	r3, [r2, #28]
 8005106:	4b06      	ldr	r3, [pc, #24]	; (8005120 <HAL_MspInit+0x44>)
 8005108:	69db      	ldr	r3, [r3, #28]
 800510a:	f003 5380 	and.w	r3, r3, #268435456	; 0x10000000
 800510e:	603b      	str	r3, [r7, #0]
 8005110:	683b      	ldr	r3, [r7, #0]
  /* System interrupt init*/

  /* USER CODE BEGIN MspInit 1 */

  /* USER CODE END MspInit 1 */
}
 8005112:	bf00      	nop
 8005114:	370c      	adds	r7, #12
 8005116:	46bd      	mov	sp, r7
 8005118:	f85d 7b04 	ldr.w	r7, [sp], #4
 800511c:	4770      	bx	lr
 800511e:	bf00      	nop
 8005120:	40021000 	.word	0x40021000

08005124 <NMI_Handler>:
/******************************************************************************/
/**
  * @brief This function handles Non maskable interrupt.
  */
void NMI_Handler(void)
{
 8005124:	b480      	push	{r7}
 8005126:	af00      	add	r7, sp, #0

  /* USER CODE END NonMaskableInt_IRQn 0 */
  /* USER CODE BEGIN NonMaskableInt_IRQn 1 */

  /* USER CODE END NonMaskableInt_IRQn 1 */
}
 8005128:	bf00      	nop
 800512a:	46bd      	mov	sp, r7
 800512c:	f85d 7b04 	ldr.w	r7, [sp], #4
 8005130:	4770      	bx	lr

08005132 <HardFault_Handler>:

/**
  * @brief This function handles Hard fault interrupt.
  */
void HardFault_Handler(void)
{
 8005132:	b480      	push	{r7}
 8005134:	af00      	add	r7, sp, #0
  /* USER CODE BEGIN HardFault_IRQn 0 */

  /* USER CODE END HardFault_IRQn 0 */
  while (1)
 8005136:	e7fe      	b.n	8005136 <HardFault_Handler+0x4>

08005138 <MemManage_Handler>:

/**
  * @brief This function handles Memory management fault.
  */
void MemManage_Handler(void)
{
 8005138:	b480      	push	{r7}
 800513a:	af00      	add	r7, sp, #0
  /* USER CODE BEGIN MemoryManagement_IRQn 0 */

  /* USER CODE END MemoryManagement_IRQn 0 */
  while (1)
 800513c:	e7fe      	b.n	800513c <MemManage_Handler+0x4>

0800513e <BusFault_Handler>:

/**
  * @brief This function handles Pre-fetch fault, memory access fault.
  */
void BusFault_Handler(void)
{
 800513e:	b480      	push	{r7}
 8005140:	af00      	add	r7, sp, #0
  /* USER CODE BEGIN BusFault_IRQn 0 */

  /* USER CODE END BusFault_IRQn 0 */
  while (1)
 8005142:	e7fe      	b.n	8005142 <BusFault_Handler+0x4>

08005144 <UsageFault_Handler>:

/**
  * @brief This function handles Undefined instruction or illegal state.
  */
void UsageFault_Handler(void)
{
 8005144:	b480      	push	{r7}
 8005146:	af00      	add	r7, sp, #0
  /* USER CODE BEGIN UsageFault_IRQn 0 */

  /* USER CODE END UsageFault_IRQn 0 */
  while (1)
 8005148:	e7fe      	b.n	8005148 <UsageFault_Handler+0x4>

0800514a <SVC_Handler>:

/**
  * @brief This function handles System service call via SWI instruction.
  */
void SVC_Handler(void)
{
 800514a:	b480      	push	{r7}
 800514c:	af00      	add	r7, sp, #0

  /* USER CODE END SVCall_IRQn 0 */
  /* USER CODE BEGIN SVCall_IRQn 1 */

  /* USER CODE END SVCall_IRQn 1 */
}
 800514e:	bf00      	nop
 8005150:	46bd      	mov	sp, r7
 8005152:	f85d 7b04 	ldr.w	r7, [sp], #4
 8005156:	4770      	bx	lr

08005158 <DebugMon_Handler>:

/**
  * @brief This function handles Debug monitor.
  */
void DebugMon_Handler(void)
{
 8005158:	b480      	push	{r7}
 800515a:	af00      	add	r7, sp, #0

  /* USER CODE END DebugMonitor_IRQn 0 */
  /* USER CODE BEGIN DebugMonitor_IRQn 1 */

  /* USER CODE END DebugMonitor_IRQn 1 */
}
 800515c:	bf00      	nop
 800515e:	46bd      	mov	sp, r7
 8005160:	f85d 7b04 	ldr.w	r7, [sp], #4
 8005164:	4770      	bx	lr

08005166 <PendSV_Handler>:

/**
  * @brief This function handles Pendable request for system service.
  */
void PendSV_Handler(void)
{
 8005166:	b480      	push	{r7}
 8005168:	af00      	add	r7, sp, #0

  /* USER CODE END PendSV_IRQn 0 */
  /* USER CODE BEGIN PendSV_IRQn 1 */

  /* USER CODE END PendSV_IRQn 1 */
}
 800516a:	bf00      	nop
 800516c:	46bd      	mov	sp, r7
 800516e:	f85d 7b04 	ldr.w	r7, [sp], #4
 8005172:	4770      	bx	lr

08005174 <SysTick_Handler>:

/**
  * @brief This function handles System tick timer.
  */
void SysTick_Handler(void)
{
 8005174:	b580      	push	{r7, lr}
 8005176:	af00      	add	r7, sp, #0
  /* USER CODE BEGIN SysTick_IRQn 0 */

  /* USER CODE END SysTick_IRQn 0 */
  HAL_IncTick();
 8005178:	f7fb fd3a 	bl	8000bf0 <HAL_IncTick>
  /* USER CODE BEGIN SysTick_IRQn 1 */

  /* USER CODE END SysTick_IRQn 1 */
}
 800517c:	bf00      	nop
 800517e:	bd80      	pop	{r7, pc}

08005180 <ADC1_2_IRQHandler>:

/**
  * @brief This function handles ADC1 and ADC2 interrupts.
  */
void ADC1_2_IRQHandler(void)
{
 8005180:	b580      	push	{r7, lr}
 8005182:	af00      	add	r7, sp, #0
  /* USER CODE BEGIN ADC1_2_IRQn 0 */
	HighFreqTask();
 8005184:	f7fe ff38 	bl	8003ff8 <HighFreqTask>
  /* USER CODE END ADC1_2_IRQn 0 */
  
  /* USER CODE BEGIN ADC1_2_IRQn 1 */

  /* USER CODE END ADC1_2_IRQn 1 */
}
 8005188:	bf00      	nop
 800518a:	bd80      	pop	{r7, pc}

0800518c <TIM1_UP_TIM16_IRQHandler>:

/**
  * @brief This function handles TIM1 update and TIM16 interrupts.
  */
void TIM1_UP_TIM16_IRQHandler(void)
{
 800518c:	b480      	push	{r7}
 800518e:	af00      	add	r7, sp, #0
  /* USER CODE END TIM1_UP_TIM16_IRQn 0 */
  
  /* USER CODE BEGIN TIM1_UP_TIM16_IRQn 1 */

  /* USER CODE END TIM1_UP_TIM16_IRQn 1 */
}
 8005190:	bf00      	nop
 8005192:	46bd      	mov	sp, r7
 8005194:	f85d 7b04 	ldr.w	r7, [sp], #4
 8005198:	4770      	bx	lr

0800519a <_getpid>:
void initialise_monitor_handles()
{
}

int _getpid(void)
{
 800519a:	b480      	push	{r7}
 800519c:	af00      	add	r7, sp, #0
	return 1;
 800519e:	2301      	movs	r3, #1
}
 80051a0:	4618      	mov	r0, r3
 80051a2:	46bd      	mov	sp, r7
 80051a4:	f85d 7b04 	ldr.w	r7, [sp], #4
 80051a8:	4770      	bx	lr

080051aa <_kill>:

int _kill(int pid, int sig)
{
 80051aa:	b580      	push	{r7, lr}
 80051ac:	b082      	sub	sp, #8
 80051ae:	af00      	add	r7, sp, #0
 80051b0:	6078      	str	r0, [r7, #4]
 80051b2:	6039      	str	r1, [r7, #0]
	errno = EINVAL;
 80051b4:	f001 fc1c 	bl	80069f0 <__errno>
 80051b8:	4602      	mov	r2, r0
 80051ba:	2316      	movs	r3, #22
 80051bc:	6013      	str	r3, [r2, #0]
	return -1;
 80051be:	f04f 33ff 	mov.w	r3, #4294967295
}
 80051c2:	4618      	mov	r0, r3
 80051c4:	3708      	adds	r7, #8
 80051c6:	46bd      	mov	sp, r7
 80051c8:	bd80      	pop	{r7, pc}

080051ca <_exit>:

void _exit (int status)
{
 80051ca:	b580      	push	{r7, lr}
 80051cc:	b082      	sub	sp, #8
 80051ce:	af00      	add	r7, sp, #0
 80051d0:	6078      	str	r0, [r7, #4]
	_kill(status, -1);
 80051d2:	f04f 31ff 	mov.w	r1, #4294967295
 80051d6:	6878      	ldr	r0, [r7, #4]
 80051d8:	f7ff ffe7 	bl	80051aa <_kill>
	while (1) {}		/* Make sure we hang here */
 80051dc:	e7fe      	b.n	80051dc <_exit+0x12>
	...

080051e0 <_sbrk>:
/**
 _sbrk
 Increase program data space. Malloc and related functions depend on this
**/
caddr_t _sbrk(int incr)
{
 80051e0:	b580      	push	{r7, lr}
 80051e2:	b084      	sub	sp, #16
 80051e4:	af00      	add	r7, sp, #0
 80051e6:	6078      	str	r0, [r7, #4]
	extern char end asm("end");
	static char *heap_end;
	char *prev_heap_end;

	if (heap_end == 0)
 80051e8:	4b11      	ldr	r3, [pc, #68]	; (8005230 <_sbrk+0x50>)
 80051ea:	681b      	ldr	r3, [r3, #0]
 80051ec:	2b00      	cmp	r3, #0
 80051ee:	d102      	bne.n	80051f6 <_sbrk+0x16>
		heap_end = &end;
 80051f0:	4b0f      	ldr	r3, [pc, #60]	; (8005230 <_sbrk+0x50>)
 80051f2:	4a10      	ldr	r2, [pc, #64]	; (8005234 <_sbrk+0x54>)
 80051f4:	601a      	str	r2, [r3, #0]

	prev_heap_end = heap_end;
 80051f6:	4b0e      	ldr	r3, [pc, #56]	; (8005230 <_sbrk+0x50>)
 80051f8:	681b      	ldr	r3, [r3, #0]
 80051fa:	60fb      	str	r3, [r7, #12]
	if (heap_end + incr > stack_ptr)
 80051fc:	4b0c      	ldr	r3, [pc, #48]	; (8005230 <_sbrk+0x50>)
 80051fe:	681a      	ldr	r2, [r3, #0]
 8005200:	687b      	ldr	r3, [r7, #4]
 8005202:	4413      	add	r3, r2
 8005204:	466a      	mov	r2, sp
 8005206:	4293      	cmp	r3, r2
 8005208:	d907      	bls.n	800521a <_sbrk+0x3a>
	{
		errno = ENOMEM;
 800520a:	f001 fbf1 	bl	80069f0 <__errno>
 800520e:	4602      	mov	r2, r0
 8005210:	230c      	movs	r3, #12
 8005212:	6013      	str	r3, [r2, #0]
		return (caddr_t) -1;
 8005214:	f04f 33ff 	mov.w	r3, #4294967295
 8005218:	e006      	b.n	8005228 <_sbrk+0x48>
	}

	heap_end += incr;
 800521a:	4b05      	ldr	r3, [pc, #20]	; (8005230 <_sbrk+0x50>)
 800521c:	681a      	ldr	r2, [r3, #0]
 800521e:	687b      	ldr	r3, [r7, #4]
 8005220:	4413      	add	r3, r2
 8005222:	4a03      	ldr	r2, [pc, #12]	; (8005230 <_sbrk+0x50>)
 8005224:	6013      	str	r3, [r2, #0]

	return (caddr_t) prev_heap_end;
 8005226:	68fb      	ldr	r3, [r7, #12]
}
 8005228:	4618      	mov	r0, r3
 800522a:	3710      	adds	r7, #16
 800522c:	46bd      	mov	sp, r7
 800522e:	bd80      	pop	{r7, pc}
 8005230:	2000008c 	.word	0x2000008c
 8005234:	20000118 	.word	0x20000118

08005238 <SystemInit>:
  *         Initialize the FPU setting, vector table location and the PLL configuration is reset.
  * @param  None
  * @retval None
  */
void SystemInit(void)
{
 8005238:	b480      	push	{r7}
 800523a:	af00      	add	r7, sp, #0
  /* FPU settings ------------------------------------------------------------*/
  #if (__FPU_PRESENT == 1) && (__FPU_USED == 1)
    SCB->CPACR |= ((3UL << 10*2)|(3UL << 11*2));  /* set CP10 and CP11 Full Access */
 800523c:	4b1f      	ldr	r3, [pc, #124]	; (80052bc <SystemInit+0x84>)
 800523e:	f8d3 3088 	ldr.w	r3, [r3, #136]	; 0x88
 8005242:	4a1e      	ldr	r2, [pc, #120]	; (80052bc <SystemInit+0x84>)
 8005244:	f443 0370 	orr.w	r3, r3, #15728640	; 0xf00000
 8005248:	f8c2 3088 	str.w	r3, [r2, #136]	; 0x88
  #endif

  /* Reset the RCC clock configuration to the default reset state ------------*/
  /* Set HSION bit */
  RCC->CR |= 0x00000001U;
 800524c:	4b1c      	ldr	r3, [pc, #112]	; (80052c0 <SystemInit+0x88>)
 800524e:	681b      	ldr	r3, [r3, #0]
 8005250:	4a1b      	ldr	r2, [pc, #108]	; (80052c0 <SystemInit+0x88>)
 8005252:	f043 0301 	orr.w	r3, r3, #1
 8005256:	6013      	str	r3, [r2, #0]

  /* Reset CFGR register */
  RCC->CFGR &= 0xF87FC00CU;
 8005258:	4b19      	ldr	r3, [pc, #100]	; (80052c0 <SystemInit+0x88>)
 800525a:	685a      	ldr	r2, [r3, #4]
 800525c:	4918      	ldr	r1, [pc, #96]	; (80052c0 <SystemInit+0x88>)
 800525e:	4b19      	ldr	r3, [pc, #100]	; (80052c4 <SystemInit+0x8c>)
 8005260:	4013      	ands	r3, r2
 8005262:	604b      	str	r3, [r1, #4]

  /* Reset HSEON, CSSON and PLLON bits */
  RCC->CR &= 0xFEF6FFFFU;
 8005264:	4b16      	ldr	r3, [pc, #88]	; (80052c0 <SystemInit+0x88>)
 8005266:	681b      	ldr	r3, [r3, #0]
 8005268:	4a15      	ldr	r2, [pc, #84]	; (80052c0 <SystemInit+0x88>)
 800526a:	f023 7384 	bic.w	r3, r3, #17301504	; 0x1080000
 800526e:	f423 3380 	bic.w	r3, r3, #65536	; 0x10000
 8005272:	6013      	str	r3, [r2, #0]

  /* Reset HSEBYP bit */
  RCC->CR &= 0xFFFBFFFFU;
 8005274:	4b12      	ldr	r3, [pc, #72]	; (80052c0 <SystemInit+0x88>)
 8005276:	681b      	ldr	r3, [r3, #0]
 8005278:	4a11      	ldr	r2, [pc, #68]	; (80052c0 <SystemInit+0x88>)
 800527a:	f423 2380 	bic.w	r3, r3, #262144	; 0x40000
 800527e:	6013      	str	r3, [r2, #0]

  /* Reset PLLSRC, PLLXTPRE, PLLMUL and USBPRE bits */
  RCC->CFGR &= 0xFF80FFFFU;
 8005280:	4b0f      	ldr	r3, [pc, #60]	; (80052c0 <SystemInit+0x88>)
 8005282:	685b      	ldr	r3, [r3, #4]
 8005284:	4a0e      	ldr	r2, [pc, #56]	; (80052c0 <SystemInit+0x88>)
 8005286:	f423 03fe 	bic.w	r3, r3, #8323072	; 0x7f0000
 800528a:	6053      	str	r3, [r2, #4]

  /* Reset PREDIV1[3:0] bits */
  RCC->CFGR2 &= 0xFFFFFFF0U;
 800528c:	4b0c      	ldr	r3, [pc, #48]	; (80052c0 <SystemInit+0x88>)
 800528e:	6adb      	ldr	r3, [r3, #44]	; 0x2c
 8005290:	4a0b      	ldr	r2, [pc, #44]	; (80052c0 <SystemInit+0x88>)
 8005292:	f023 030f 	bic.w	r3, r3, #15
 8005296:	62d3      	str	r3, [r2, #44]	; 0x2c

  /* Reset USARTSW[1:0], I2CSW and TIMs bits */
  RCC->CFGR3 &= 0xFF00FCCCU;
 8005298:	4b09      	ldr	r3, [pc, #36]	; (80052c0 <SystemInit+0x88>)
 800529a:	6b1a      	ldr	r2, [r3, #48]	; 0x30
 800529c:	4908      	ldr	r1, [pc, #32]	; (80052c0 <SystemInit+0x88>)
 800529e:	4b0a      	ldr	r3, [pc, #40]	; (80052c8 <SystemInit+0x90>)
 80052a0:	4013      	ands	r3, r2
 80052a2:	630b      	str	r3, [r1, #48]	; 0x30

  /* Disable all interrupts */
  RCC->CIR = 0x00000000U;
 80052a4:	4b06      	ldr	r3, [pc, #24]	; (80052c0 <SystemInit+0x88>)
 80052a6:	2200      	movs	r2, #0
 80052a8:	609a      	str	r2, [r3, #8]

#ifdef VECT_TAB_SRAM
  SCB->VTOR = SRAM_BASE | VECT_TAB_OFFSET; /* Vector Table Relocation in Internal SRAM */
#else
  SCB->VTOR = FLASH_BASE | VECT_TAB_OFFSET; /* Vector Table Relocation in Internal FLASH */
 80052aa:	4b04      	ldr	r3, [pc, #16]	; (80052bc <SystemInit+0x84>)
 80052ac:	f04f 6200 	mov.w	r2, #134217728	; 0x8000000
 80052b0:	609a      	str	r2, [r3, #8]
#endif
}
 80052b2:	bf00      	nop
 80052b4:	46bd      	mov	sp, r7
 80052b6:	f85d 7b04 	ldr.w	r7, [sp], #4
 80052ba:	4770      	bx	lr
 80052bc:	e000ed00 	.word	0xe000ed00
 80052c0:	40021000 	.word	0x40021000
 80052c4:	f87fc00c 	.word	0xf87fc00c
 80052c8:	ff00fccc 	.word	0xff00fccc

080052cc <NVIC_GetPriorityGrouping>:
{
 80052cc:	b480      	push	{r7}
 80052ce:	af00      	add	r7, sp, #0
  return ((uint32_t)((SCB->AIRCR & SCB_AIRCR_PRIGROUP_Msk) >> SCB_AIRCR_PRIGROUP_Pos));
 80052d0:	4b04      	ldr	r3, [pc, #16]	; (80052e4 <NVIC_GetPriorityGrouping+0x18>)
 80052d2:	68db      	ldr	r3, [r3, #12]
 80052d4:	0a1b      	lsrs	r3, r3, #8
 80052d6:	f003 0307 	and.w	r3, r3, #7
}
 80052da:	4618      	mov	r0, r3
 80052dc:	46bd      	mov	sp, r7
 80052de:	f85d 7b04 	ldr.w	r7, [sp], #4
 80052e2:	4770      	bx	lr
 80052e4:	e000ed00 	.word	0xe000ed00

080052e8 <NVIC_EnableIRQ>:
{
 80052e8:	b480      	push	{r7}
 80052ea:	b083      	sub	sp, #12
 80052ec:	af00      	add	r7, sp, #0
 80052ee:	4603      	mov	r3, r0
 80052f0:	71fb      	strb	r3, [r7, #7]
  NVIC->ISER[(((uint32_t)(int32_t)IRQn) >> 5UL)] = (uint32_t)(1UL << (((uint32_t)(int32_t)IRQn) & 0x1FUL));
 80052f2:	79fb      	ldrb	r3, [r7, #7]
 80052f4:	f003 021f 	and.w	r2, r3, #31
 80052f8:	4907      	ldr	r1, [pc, #28]	; (8005318 <NVIC_EnableIRQ+0x30>)
 80052fa:	f997 3007 	ldrsb.w	r3, [r7, #7]
 80052fe:	095b      	lsrs	r3, r3, #5
 8005300:	2001      	movs	r0, #1
 8005302:	fa00 f202 	lsl.w	r2, r0, r2
 8005306:	f841 2023 	str.w	r2, [r1, r3, lsl #2]
}
 800530a:	bf00      	nop
 800530c:	370c      	adds	r7, #12
 800530e:	46bd      	mov	sp, r7
 8005310:	f85d 7b04 	ldr.w	r7, [sp], #4
 8005314:	4770      	bx	lr
 8005316:	bf00      	nop
 8005318:	e000e100 	.word	0xe000e100

0800531c <NVIC_SetPriority>:
{
 800531c:	b480      	push	{r7}
 800531e:	b083      	sub	sp, #12
 8005320:	af00      	add	r7, sp, #0
 8005322:	4603      	mov	r3, r0
 8005324:	6039      	str	r1, [r7, #0]
 8005326:	71fb      	strb	r3, [r7, #7]
  if ((int32_t)(IRQn) < 0)
 8005328:	f997 3007 	ldrsb.w	r3, [r7, #7]
 800532c:	2b00      	cmp	r3, #0
 800532e:	da0b      	bge.n	8005348 <NVIC_SetPriority+0x2c>
    SCB->SHP[(((uint32_t)(int32_t)IRQn) & 0xFUL)-4UL] = (uint8_t)((priority << (8U - __NVIC_PRIO_BITS)) & (uint32_t)0xFFUL);
 8005330:	683b      	ldr	r3, [r7, #0]
 8005332:	b2da      	uxtb	r2, r3
 8005334:	490c      	ldr	r1, [pc, #48]	; (8005368 <NVIC_SetPriority+0x4c>)
 8005336:	79fb      	ldrb	r3, [r7, #7]
 8005338:	f003 030f 	and.w	r3, r3, #15
 800533c:	3b04      	subs	r3, #4
 800533e:	0112      	lsls	r2, r2, #4
 8005340:	b2d2      	uxtb	r2, r2
 8005342:	440b      	add	r3, r1
 8005344:	761a      	strb	r2, [r3, #24]
}
 8005346:	e009      	b.n	800535c <NVIC_SetPriority+0x40>
    NVIC->IP[((uint32_t)(int32_t)IRQn)]               = (uint8_t)((priority << (8U - __NVIC_PRIO_BITS)) & (uint32_t)0xFFUL);
 8005348:	683b      	ldr	r3, [r7, #0]
 800534a:	b2da      	uxtb	r2, r3
 800534c:	4907      	ldr	r1, [pc, #28]	; (800536c <NVIC_SetPriority+0x50>)
 800534e:	f997 3007 	ldrsb.w	r3, [r7, #7]
 8005352:	0112      	lsls	r2, r2, #4
 8005354:	b2d2      	uxtb	r2, r2
 8005356:	440b      	add	r3, r1
 8005358:	f883 2300 	strb.w	r2, [r3, #768]	; 0x300
}
 800535c:	bf00      	nop
 800535e:	370c      	adds	r7, #12
 8005360:	46bd      	mov	sp, r7
 8005362:	f85d 7b04 	ldr.w	r7, [sp], #4
 8005366:	4770      	bx	lr
 8005368:	e000ed00 	.word	0xe000ed00
 800536c:	e000e100 	.word	0xe000e100

08005370 <NVIC_EncodePriority>:
{
 8005370:	b480      	push	{r7}
 8005372:	b089      	sub	sp, #36	; 0x24
 8005374:	af00      	add	r7, sp, #0
 8005376:	60f8      	str	r0, [r7, #12]
 8005378:	60b9      	str	r1, [r7, #8]
 800537a:	607a      	str	r2, [r7, #4]
  uint32_t PriorityGroupTmp = (PriorityGroup & (uint32_t)0x07UL);   /* only values 0..7 are used          */
 800537c:	68fb      	ldr	r3, [r7, #12]
 800537e:	f003 0307 	and.w	r3, r3, #7
 8005382:	61fb      	str	r3, [r7, #28]
  PreemptPriorityBits = ((7UL - PriorityGroupTmp) > (uint32_t)(__NVIC_PRIO_BITS)) ? (uint32_t)(__NVIC_PRIO_BITS) : (uint32_t)(7UL - PriorityGroupTmp);
 8005384:	69fb      	ldr	r3, [r7, #28]
 8005386:	f1c3 0307 	rsb	r3, r3, #7
 800538a:	2b04      	cmp	r3, #4
 800538c:	bf28      	it	cs
 800538e:	2304      	movcs	r3, #4
 8005390:	61bb      	str	r3, [r7, #24]
  SubPriorityBits     = ((PriorityGroupTmp + (uint32_t)(__NVIC_PRIO_BITS)) < (uint32_t)7UL) ? (uint32_t)0UL : (uint32_t)((PriorityGroupTmp - 7UL) + (uint32_t)(__NVIC_PRIO_BITS));
 8005392:	69fb      	ldr	r3, [r7, #28]
 8005394:	3304      	adds	r3, #4
 8005396:	2b06      	cmp	r3, #6
 8005398:	d902      	bls.n	80053a0 <NVIC_EncodePriority+0x30>
 800539a:	69fb      	ldr	r3, [r7, #28]
 800539c:	3b03      	subs	r3, #3
 800539e:	e000      	b.n	80053a2 <NVIC_EncodePriority+0x32>
 80053a0:	2300      	movs	r3, #0
 80053a2:	617b      	str	r3, [r7, #20]
           ((PreemptPriority & (uint32_t)((1UL << (PreemptPriorityBits)) - 1UL)) << SubPriorityBits) |
 80053a4:	f04f 32ff 	mov.w	r2, #4294967295
 80053a8:	69bb      	ldr	r3, [r7, #24]
 80053aa:	fa02 f303 	lsl.w	r3, r2, r3
 80053ae:	43da      	mvns	r2, r3
 80053b0:	68bb      	ldr	r3, [r7, #8]
 80053b2:	401a      	ands	r2, r3
 80053b4:	697b      	ldr	r3, [r7, #20]
 80053b6:	409a      	lsls	r2, r3
           ((SubPriority     & (uint32_t)((1UL << (SubPriorityBits    )) - 1UL)))
 80053b8:	f04f 31ff 	mov.w	r1, #4294967295
 80053bc:	697b      	ldr	r3, [r7, #20]
 80053be:	fa01 f303 	lsl.w	r3, r1, r3
 80053c2:	43d9      	mvns	r1, r3
 80053c4:	687b      	ldr	r3, [r7, #4]
 80053c6:	400b      	ands	r3, r1
           ((PreemptPriority & (uint32_t)((1UL << (PreemptPriorityBits)) - 1UL)) << SubPriorityBits) |
 80053c8:	4313      	orrs	r3, r2
}
 80053ca:	4618      	mov	r0, r3
 80053cc:	3724      	adds	r7, #36	; 0x24
 80053ce:	46bd      	mov	sp, r7
 80053d0:	f85d 7b04 	ldr.w	r7, [sp], #4
 80053d4:	4770      	bx	lr

080053d6 <LL_TIM_DisableARRPreload>:
{
 80053d6:	b480      	push	{r7}
 80053d8:	b083      	sub	sp, #12
 80053da:	af00      	add	r7, sp, #0
 80053dc:	6078      	str	r0, [r7, #4]
  CLEAR_BIT(TIMx->CR1, TIM_CR1_ARPE);
 80053de:	687b      	ldr	r3, [r7, #4]
 80053e0:	681b      	ldr	r3, [r3, #0]
 80053e2:	f023 0280 	bic.w	r2, r3, #128	; 0x80
 80053e6:	687b      	ldr	r3, [r7, #4]
 80053e8:	601a      	str	r2, [r3, #0]
}
 80053ea:	bf00      	nop
 80053ec:	370c      	adds	r7, #12
 80053ee:	46bd      	mov	sp, r7
 80053f0:	f85d 7b04 	ldr.w	r7, [sp], #4
 80053f4:	4770      	bx	lr
	...

080053f8 <LL_TIM_OC_DisableFast>:
{
 80053f8:	b4b0      	push	{r4, r5, r7}
 80053fa:	b083      	sub	sp, #12
 80053fc:	af00      	add	r7, sp, #0
 80053fe:	6078      	str	r0, [r7, #4]
 8005400:	6039      	str	r1, [r7, #0]
  register uint8_t iChannel = TIM_GET_CHANNEL_INDEX(Channel);
 8005402:	683b      	ldr	r3, [r7, #0]
 8005404:	2b01      	cmp	r3, #1
 8005406:	d028      	beq.n	800545a <LL_TIM_OC_DisableFast+0x62>
 8005408:	683b      	ldr	r3, [r7, #0]
 800540a:	2b04      	cmp	r3, #4
 800540c:	d023      	beq.n	8005456 <LL_TIM_OC_DisableFast+0x5e>
 800540e:	683b      	ldr	r3, [r7, #0]
 8005410:	2b10      	cmp	r3, #16
 8005412:	d01e      	beq.n	8005452 <LL_TIM_OC_DisableFast+0x5a>
 8005414:	683b      	ldr	r3, [r7, #0]
 8005416:	2b40      	cmp	r3, #64	; 0x40
 8005418:	d019      	beq.n	800544e <LL_TIM_OC_DisableFast+0x56>
 800541a:	683b      	ldr	r3, [r7, #0]
 800541c:	f5b3 7f80 	cmp.w	r3, #256	; 0x100
 8005420:	d013      	beq.n	800544a <LL_TIM_OC_DisableFast+0x52>
 8005422:	683b      	ldr	r3, [r7, #0]
 8005424:	f5b3 6f80 	cmp.w	r3, #1024	; 0x400
 8005428:	d00d      	beq.n	8005446 <LL_TIM_OC_DisableFast+0x4e>
 800542a:	683b      	ldr	r3, [r7, #0]
 800542c:	f5b3 5f80 	cmp.w	r3, #4096	; 0x1000
 8005430:	d007      	beq.n	8005442 <LL_TIM_OC_DisableFast+0x4a>
 8005432:	683b      	ldr	r3, [r7, #0]
 8005434:	f5b3 3f80 	cmp.w	r3, #65536	; 0x10000
 8005438:	d101      	bne.n	800543e <LL_TIM_OC_DisableFast+0x46>
 800543a:	2307      	movs	r3, #7
 800543c:	e00e      	b.n	800545c <LL_TIM_OC_DisableFast+0x64>
 800543e:	2308      	movs	r3, #8
 8005440:	e00c      	b.n	800545c <LL_TIM_OC_DisableFast+0x64>
 8005442:	2306      	movs	r3, #6
 8005444:	e00a      	b.n	800545c <LL_TIM_OC_DisableFast+0x64>
 8005446:	2305      	movs	r3, #5
 8005448:	e008      	b.n	800545c <LL_TIM_OC_DisableFast+0x64>
 800544a:	2304      	movs	r3, #4
 800544c:	e006      	b.n	800545c <LL_TIM_OC_DisableFast+0x64>
 800544e:	2303      	movs	r3, #3
 8005450:	e004      	b.n	800545c <LL_TIM_OC_DisableFast+0x64>
 8005452:	2302      	movs	r3, #2
 8005454:	e002      	b.n	800545c <LL_TIM_OC_DisableFast+0x64>
 8005456:	2301      	movs	r3, #1
 8005458:	e000      	b.n	800545c <LL_TIM_OC_DisableFast+0x64>
 800545a:	2300      	movs	r3, #0
 800545c:	461d      	mov	r5, r3
  register __IO uint32_t *pReg = (__IO uint32_t *)((uint32_t)((uint32_t)(&TIMx->CCMR1) + OFFSET_TAB_CCMRx[iChannel]));
 800545e:	687b      	ldr	r3, [r7, #4]
 8005460:	3318      	adds	r3, #24
 8005462:	461a      	mov	r2, r3
 8005464:	4629      	mov	r1, r5
 8005466:	4b09      	ldr	r3, [pc, #36]	; (800548c <LL_TIM_OC_DisableFast+0x94>)
 8005468:	5c5b      	ldrb	r3, [r3, r1]
 800546a:	4413      	add	r3, r2
 800546c:	461c      	mov	r4, r3
  CLEAR_BIT(*pReg, (TIM_CCMR1_OC1FE << SHIFT_TAB_OCxx[iChannel]));
 800546e:	6822      	ldr	r2, [r4, #0]
 8005470:	4629      	mov	r1, r5
 8005472:	4b07      	ldr	r3, [pc, #28]	; (8005490 <LL_TIM_OC_DisableFast+0x98>)
 8005474:	5c5b      	ldrb	r3, [r3, r1]
 8005476:	4619      	mov	r1, r3
 8005478:	2304      	movs	r3, #4
 800547a:	408b      	lsls	r3, r1
 800547c:	43db      	mvns	r3, r3
 800547e:	4013      	ands	r3, r2
 8005480:	6023      	str	r3, [r4, #0]
}
 8005482:	bf00      	nop
 8005484:	370c      	adds	r7, #12
 8005486:	46bd      	mov	sp, r7
 8005488:	bcb0      	pop	{r4, r5, r7}
 800548a:	4770      	bx	lr
 800548c:	08006d14 	.word	0x08006d14
 8005490:	08006d20 	.word	0x08006d20

08005494 <LL_TIM_OC_EnablePreload>:
{
 8005494:	b4b0      	push	{r4, r5, r7}
 8005496:	b083      	sub	sp, #12
 8005498:	af00      	add	r7, sp, #0
 800549a:	6078      	str	r0, [r7, #4]
 800549c:	6039      	str	r1, [r7, #0]
  register uint8_t iChannel = TIM_GET_CHANNEL_INDEX(Channel);
 800549e:	683b      	ldr	r3, [r7, #0]
 80054a0:	2b01      	cmp	r3, #1
 80054a2:	d028      	beq.n	80054f6 <LL_TIM_OC_EnablePreload+0x62>
 80054a4:	683b      	ldr	r3, [r7, #0]
 80054a6:	2b04      	cmp	r3, #4
 80054a8:	d023      	beq.n	80054f2 <LL_TIM_OC_EnablePreload+0x5e>
 80054aa:	683b      	ldr	r3, [r7, #0]
 80054ac:	2b10      	cmp	r3, #16
 80054ae:	d01e      	beq.n	80054ee <LL_TIM_OC_EnablePreload+0x5a>
 80054b0:	683b      	ldr	r3, [r7, #0]
 80054b2:	2b40      	cmp	r3, #64	; 0x40
 80054b4:	d019      	beq.n	80054ea <LL_TIM_OC_EnablePreload+0x56>
 80054b6:	683b      	ldr	r3, [r7, #0]
 80054b8:	f5b3 7f80 	cmp.w	r3, #256	; 0x100
 80054bc:	d013      	beq.n	80054e6 <LL_TIM_OC_EnablePreload+0x52>
 80054be:	683b      	ldr	r3, [r7, #0]
 80054c0:	f5b3 6f80 	cmp.w	r3, #1024	; 0x400
 80054c4:	d00d      	beq.n	80054e2 <LL_TIM_OC_EnablePreload+0x4e>
 80054c6:	683b      	ldr	r3, [r7, #0]
 80054c8:	f5b3 5f80 	cmp.w	r3, #4096	; 0x1000
 80054cc:	d007      	beq.n	80054de <LL_TIM_OC_EnablePreload+0x4a>
 80054ce:	683b      	ldr	r3, [r7, #0]
 80054d0:	f5b3 3f80 	cmp.w	r3, #65536	; 0x10000
 80054d4:	d101      	bne.n	80054da <LL_TIM_OC_EnablePreload+0x46>
 80054d6:	2307      	movs	r3, #7
 80054d8:	e00e      	b.n	80054f8 <LL_TIM_OC_EnablePreload+0x64>
 80054da:	2308      	movs	r3, #8
 80054dc:	e00c      	b.n	80054f8 <LL_TIM_OC_EnablePreload+0x64>
 80054de:	2306      	movs	r3, #6
 80054e0:	e00a      	b.n	80054f8 <LL_TIM_OC_EnablePreload+0x64>
 80054e2:	2305      	movs	r3, #5
 80054e4:	e008      	b.n	80054f8 <LL_TIM_OC_EnablePreload+0x64>
 80054e6:	2304      	movs	r3, #4
 80054e8:	e006      	b.n	80054f8 <LL_TIM_OC_EnablePreload+0x64>
 80054ea:	2303      	movs	r3, #3
 80054ec:	e004      	b.n	80054f8 <LL_TIM_OC_EnablePreload+0x64>
 80054ee:	2302      	movs	r3, #2
 80054f0:	e002      	b.n	80054f8 <LL_TIM_OC_EnablePreload+0x64>
 80054f2:	2301      	movs	r3, #1
 80054f4:	e000      	b.n	80054f8 <LL_TIM_OC_EnablePreload+0x64>
 80054f6:	2300      	movs	r3, #0
 80054f8:	461d      	mov	r5, r3
  register __IO uint32_t *pReg = (__IO uint32_t *)((uint32_t)((uint32_t)(&TIMx->CCMR1) + OFFSET_TAB_CCMRx[iChannel]));
 80054fa:	687b      	ldr	r3, [r7, #4]
 80054fc:	3318      	adds	r3, #24
 80054fe:	461a      	mov	r2, r3
 8005500:	4629      	mov	r1, r5
 8005502:	4b09      	ldr	r3, [pc, #36]	; (8005528 <LL_TIM_OC_EnablePreload+0x94>)
 8005504:	5c5b      	ldrb	r3, [r3, r1]
 8005506:	4413      	add	r3, r2
 8005508:	461c      	mov	r4, r3
  SET_BIT(*pReg, (TIM_CCMR1_OC1PE << SHIFT_TAB_OCxx[iChannel]));
 800550a:	6822      	ldr	r2, [r4, #0]
 800550c:	4629      	mov	r1, r5
 800550e:	4b07      	ldr	r3, [pc, #28]	; (800552c <LL_TIM_OC_EnablePreload+0x98>)
 8005510:	5c5b      	ldrb	r3, [r3, r1]
 8005512:	4619      	mov	r1, r3
 8005514:	2308      	movs	r3, #8
 8005516:	408b      	lsls	r3, r1
 8005518:	4313      	orrs	r3, r2
 800551a:	6023      	str	r3, [r4, #0]
}
 800551c:	bf00      	nop
 800551e:	370c      	adds	r7, #12
 8005520:	46bd      	mov	sp, r7
 8005522:	bcb0      	pop	{r4, r5, r7}
 8005524:	4770      	bx	lr
 8005526:	bf00      	nop
 8005528:	08006d14 	.word	0x08006d14
 800552c:	08006d20 	.word	0x08006d20

08005530 <LL_TIM_SetClockSource>:
{
 8005530:	b480      	push	{r7}
 8005532:	b083      	sub	sp, #12
 8005534:	af00      	add	r7, sp, #0
 8005536:	6078      	str	r0, [r7, #4]
 8005538:	6039      	str	r1, [r7, #0]
  MODIFY_REG(TIMx->SMCR, TIM_SMCR_SMS | TIM_SMCR_ECE, ClockSource);
 800553a:	687b      	ldr	r3, [r7, #4]
 800553c:	689b      	ldr	r3, [r3, #8]
 800553e:	f423 33a0 	bic.w	r3, r3, #81920	; 0x14000
 8005542:	f023 0307 	bic.w	r3, r3, #7
 8005546:	683a      	ldr	r2, [r7, #0]
 8005548:	431a      	orrs	r2, r3
 800554a:	687b      	ldr	r3, [r7, #4]
 800554c:	609a      	str	r2, [r3, #8]
}
 800554e:	bf00      	nop
 8005550:	370c      	adds	r7, #12
 8005552:	46bd      	mov	sp, r7
 8005554:	f85d 7b04 	ldr.w	r7, [sp], #4
 8005558:	4770      	bx	lr

0800555a <LL_TIM_SetTriggerOutput>:
{
 800555a:	b480      	push	{r7}
 800555c:	b083      	sub	sp, #12
 800555e:	af00      	add	r7, sp, #0
 8005560:	6078      	str	r0, [r7, #4]
 8005562:	6039      	str	r1, [r7, #0]
  MODIFY_REG(TIMx->CR2, TIM_CR2_MMS, TimerSynchronization);
 8005564:	687b      	ldr	r3, [r7, #4]
 8005566:	685b      	ldr	r3, [r3, #4]
 8005568:	f023 0270 	bic.w	r2, r3, #112	; 0x70
 800556c:	683b      	ldr	r3, [r7, #0]
 800556e:	431a      	orrs	r2, r3
 8005570:	687b      	ldr	r3, [r7, #4]
 8005572:	605a      	str	r2, [r3, #4]
}
 8005574:	bf00      	nop
 8005576:	370c      	adds	r7, #12
 8005578:	46bd      	mov	sp, r7
 800557a:	f85d 7b04 	ldr.w	r7, [sp], #4
 800557e:	4770      	bx	lr

08005580 <LL_TIM_SetTriggerOutput2>:
{
 8005580:	b480      	push	{r7}
 8005582:	b083      	sub	sp, #12
 8005584:	af00      	add	r7, sp, #0
 8005586:	6078      	str	r0, [r7, #4]
 8005588:	6039      	str	r1, [r7, #0]
  MODIFY_REG(TIMx->CR2, TIM_CR2_MMS2, ADCSynchronization);
 800558a:	687b      	ldr	r3, [r7, #4]
 800558c:	685b      	ldr	r3, [r3, #4]
 800558e:	f423 0270 	bic.w	r2, r3, #15728640	; 0xf00000
 8005592:	683b      	ldr	r3, [r7, #0]
 8005594:	431a      	orrs	r2, r3
 8005596:	687b      	ldr	r3, [r7, #4]
 8005598:	605a      	str	r2, [r3, #4]
}
 800559a:	bf00      	nop
 800559c:	370c      	adds	r7, #12
 800559e:	46bd      	mov	sp, r7
 80055a0:	f85d 7b04 	ldr.w	r7, [sp], #4
 80055a4:	4770      	bx	lr

080055a6 <LL_TIM_DisableMasterSlaveMode>:
{
 80055a6:	b480      	push	{r7}
 80055a8:	b083      	sub	sp, #12
 80055aa:	af00      	add	r7, sp, #0
 80055ac:	6078      	str	r0, [r7, #4]
  CLEAR_BIT(TIMx->SMCR, TIM_SMCR_MSM);
 80055ae:	687b      	ldr	r3, [r7, #4]
 80055b0:	689b      	ldr	r3, [r3, #8]
 80055b2:	f023 0280 	bic.w	r2, r3, #128	; 0x80
 80055b6:	687b      	ldr	r3, [r7, #4]
 80055b8:	609a      	str	r2, [r3, #8]
}
 80055ba:	bf00      	nop
 80055bc:	370c      	adds	r7, #12
 80055be:	46bd      	mov	sp, r7
 80055c0:	f85d 7b04 	ldr.w	r7, [sp], #4
 80055c4:	4770      	bx	lr
	...

080055c8 <LL_AHB1_GRP1_EnableClock>:
{
 80055c8:	b480      	push	{r7}
 80055ca:	b085      	sub	sp, #20
 80055cc:	af00      	add	r7, sp, #0
 80055ce:	6078      	str	r0, [r7, #4]
  SET_BIT(RCC->AHBENR, Periphs);
 80055d0:	4b08      	ldr	r3, [pc, #32]	; (80055f4 <LL_AHB1_GRP1_EnableClock+0x2c>)
 80055d2:	695a      	ldr	r2, [r3, #20]
 80055d4:	4907      	ldr	r1, [pc, #28]	; (80055f4 <LL_AHB1_GRP1_EnableClock+0x2c>)
 80055d6:	687b      	ldr	r3, [r7, #4]
 80055d8:	4313      	orrs	r3, r2
 80055da:	614b      	str	r3, [r1, #20]
  tmpreg = READ_BIT(RCC->AHBENR, Periphs);
 80055dc:	4b05      	ldr	r3, [pc, #20]	; (80055f4 <LL_AHB1_GRP1_EnableClock+0x2c>)
 80055de:	695a      	ldr	r2, [r3, #20]
 80055e0:	687b      	ldr	r3, [r7, #4]
 80055e2:	4013      	ands	r3, r2
 80055e4:	60fb      	str	r3, [r7, #12]
  (void)tmpreg;
 80055e6:	68fb      	ldr	r3, [r7, #12]
}
 80055e8:	bf00      	nop
 80055ea:	3714      	adds	r7, #20
 80055ec:	46bd      	mov	sp, r7
 80055ee:	f85d 7b04 	ldr.w	r7, [sp], #4
 80055f2:	4770      	bx	lr
 80055f4:	40021000 	.word	0x40021000

080055f8 <LL_APB2_GRP1_EnableClock>:
  *
  *         (*) value not defined in all devices.
  * @retval None
*/
__STATIC_INLINE void LL_APB2_GRP1_EnableClock(uint32_t Periphs)
{
 80055f8:	b480      	push	{r7}
 80055fa:	b085      	sub	sp, #20
 80055fc:	af00      	add	r7, sp, #0
 80055fe:	6078      	str	r0, [r7, #4]
  __IO uint32_t tmpreg;
  SET_BIT(RCC->APB2ENR, Periphs);
 8005600:	4b08      	ldr	r3, [pc, #32]	; (8005624 <LL_APB2_GRP1_EnableClock+0x2c>)
 8005602:	699a      	ldr	r2, [r3, #24]
 8005604:	4907      	ldr	r1, [pc, #28]	; (8005624 <LL_APB2_GRP1_EnableClock+0x2c>)
 8005606:	687b      	ldr	r3, [r7, #4]
 8005608:	4313      	orrs	r3, r2
 800560a:	618b      	str	r3, [r1, #24]
  /* Delay after an RCC peripheral clock enabling */
  tmpreg = READ_BIT(RCC->APB2ENR, Periphs);
 800560c:	4b05      	ldr	r3, [pc, #20]	; (8005624 <LL_APB2_GRP1_EnableClock+0x2c>)
 800560e:	699a      	ldr	r2, [r3, #24]
 8005610:	687b      	ldr	r3, [r7, #4]
 8005612:	4013      	ands	r3, r2
 8005614:	60fb      	str	r3, [r7, #12]
  (void)tmpreg;
 8005616:	68fb      	ldr	r3, [r7, #12]
}
 8005618:	bf00      	nop
 800561a:	3714      	adds	r7, #20
 800561c:	46bd      	mov	sp, r7
 800561e:	f85d 7b04 	ldr.w	r7, [sp], #4
 8005622:	4770      	bx	lr
 8005624:	40021000 	.word	0x40021000

08005628 <MX_TIM1_Init>:

/* USER CODE END 0 */

/* TIM1 init function */
void MX_TIM1_Init(void)
{
 8005628:	b580      	push	{r7, lr}
 800562a:	b09e      	sub	sp, #120	; 0x78
 800562c:	af00      	add	r7, sp, #0
  LL_TIM_InitTypeDef TIM_InitStruct = {0};
 800562e:	f107 0364 	add.w	r3, r7, #100	; 0x64
 8005632:	2200      	movs	r2, #0
 8005634:	601a      	str	r2, [r3, #0]
 8005636:	605a      	str	r2, [r3, #4]
 8005638:	609a      	str	r2, [r3, #8]
 800563a:	60da      	str	r2, [r3, #12]
 800563c:	611a      	str	r2, [r3, #16]
  LL_TIM_OC_InitTypeDef TIM_OC_InitStruct = {0};
 800563e:	f107 0344 	add.w	r3, r7, #68	; 0x44
 8005642:	2220      	movs	r2, #32
 8005644:	2100      	movs	r1, #0
 8005646:	4618      	mov	r0, r3
 8005648:	f001 fa25 	bl	8006a96 <memset>
  LL_TIM_BDTR_InitTypeDef TIM_BDTRInitStruct = {0};
 800564c:	f107 031c 	add.w	r3, r7, #28
 8005650:	2228      	movs	r2, #40	; 0x28
 8005652:	2100      	movs	r1, #0
 8005654:	4618      	mov	r0, r3
 8005656:	f001 fa1e 	bl	8006a96 <memset>

  LL_GPIO_InitTypeDef GPIO_InitStruct = {0};
 800565a:	1d3b      	adds	r3, r7, #4
 800565c:	2200      	movs	r2, #0
 800565e:	601a      	str	r2, [r3, #0]
 8005660:	605a      	str	r2, [r3, #4]
 8005662:	609a      	str	r2, [r3, #8]
 8005664:	60da      	str	r2, [r3, #12]
 8005666:	611a      	str	r2, [r3, #16]
 8005668:	615a      	str	r2, [r3, #20]
  /* Peripheral clock enable */
  LL_APB2_GRP1_EnableClock(LL_APB2_GRP1_PERIPH_TIM1);
 800566a:	f44f 6000 	mov.w	r0, #2048	; 0x800
 800566e:	f7ff ffc3 	bl	80055f8 <LL_APB2_GRP1_EnableClock>

  /* TIM1 interrupt Init */
  NVIC_SetPriority(TIM1_UP_TIM16_IRQn, NVIC_EncodePriority(NVIC_GetPriorityGrouping(),0, 0));
 8005672:	f7ff fe2b 	bl	80052cc <NVIC_GetPriorityGrouping>
 8005676:	4603      	mov	r3, r0
 8005678:	2200      	movs	r2, #0
 800567a:	2100      	movs	r1, #0
 800567c:	4618      	mov	r0, r3
 800567e:	f7ff fe77 	bl	8005370 <NVIC_EncodePriority>
 8005682:	4603      	mov	r3, r0
 8005684:	4619      	mov	r1, r3
 8005686:	2019      	movs	r0, #25
 8005688:	f7ff fe48 	bl	800531c <NVIC_SetPriority>
  NVIC_EnableIRQ(TIM1_UP_TIM16_IRQn);
 800568c:	2019      	movs	r0, #25
 800568e:	f7ff fe2b 	bl	80052e8 <NVIC_EnableIRQ>

  TIM_InitStruct.Prescaler = 0;
 8005692:	2300      	movs	r3, #0
 8005694:	f8a7 3064 	strh.w	r3, [r7, #100]	; 0x64
  TIM_InitStruct.CounterMode = LL_TIM_COUNTERMODE_UP;
 8005698:	2300      	movs	r3, #0
 800569a:	66bb      	str	r3, [r7, #104]	; 0x68
  TIM_InitStruct.Autoreload = 65535;
 800569c:	f64f 73ff 	movw	r3, #65535	; 0xffff
 80056a0:	66fb      	str	r3, [r7, #108]	; 0x6c
  TIM_InitStruct.ClockDivision = LL_TIM_CLOCKDIVISION_DIV1;
 80056a2:	2300      	movs	r3, #0
 80056a4:	673b      	str	r3, [r7, #112]	; 0x70
  TIM_InitStruct.RepetitionCounter = 0;
 80056a6:	2300      	movs	r3, #0
 80056a8:	f887 3074 	strb.w	r3, [r7, #116]	; 0x74
  LL_TIM_Init(TIM1, &TIM_InitStruct);
 80056ac:	f107 0364 	add.w	r3, r7, #100	; 0x64
 80056b0:	4619      	mov	r1, r3
 80056b2:	4863      	ldr	r0, [pc, #396]	; (8005840 <MX_TIM1_Init+0x218>)
 80056b4:	f7fd fd86 	bl	80031c4 <LL_TIM_Init>
  LL_TIM_DisableARRPreload(TIM1);
 80056b8:	4861      	ldr	r0, [pc, #388]	; (8005840 <MX_TIM1_Init+0x218>)
 80056ba:	f7ff fe8c 	bl	80053d6 <LL_TIM_DisableARRPreload>
  LL_TIM_SetClockSource(TIM1, LL_TIM_CLOCKSOURCE_INTERNAL);
 80056be:	2100      	movs	r1, #0
 80056c0:	485f      	ldr	r0, [pc, #380]	; (8005840 <MX_TIM1_Init+0x218>)
 80056c2:	f7ff ff35 	bl	8005530 <LL_TIM_SetClockSource>
  LL_TIM_OC_EnablePreload(TIM1, LL_TIM_CHANNEL_CH1);
 80056c6:	2101      	movs	r1, #1
 80056c8:	485d      	ldr	r0, [pc, #372]	; (8005840 <MX_TIM1_Init+0x218>)
 80056ca:	f7ff fee3 	bl	8005494 <LL_TIM_OC_EnablePreload>
  TIM_OC_InitStruct.OCMode = LL_TIM_OCMODE_PWM1;
 80056ce:	2360      	movs	r3, #96	; 0x60
 80056d0:	647b      	str	r3, [r7, #68]	; 0x44
  TIM_OC_InitStruct.OCState = LL_TIM_OCSTATE_DISABLE;
 80056d2:	2300      	movs	r3, #0
 80056d4:	64bb      	str	r3, [r7, #72]	; 0x48
  TIM_OC_InitStruct.OCNState = LL_TIM_OCSTATE_DISABLE;
 80056d6:	2300      	movs	r3, #0
 80056d8:	64fb      	str	r3, [r7, #76]	; 0x4c
  TIM_OC_InitStruct.CompareValue = 10000;
 80056da:	f242 7310 	movw	r3, #10000	; 0x2710
 80056de:	653b      	str	r3, [r7, #80]	; 0x50
  TIM_OC_InitStruct.OCPolarity = LL_TIM_OCPOLARITY_HIGH;
 80056e0:	2300      	movs	r3, #0
 80056e2:	657b      	str	r3, [r7, #84]	; 0x54
  TIM_OC_InitStruct.OCNPolarity = LL_TIM_OCPOLARITY_HIGH;
 80056e4:	2300      	movs	r3, #0
 80056e6:	65bb      	str	r3, [r7, #88]	; 0x58
  TIM_OC_InitStruct.OCIdleState = LL_TIM_OCIDLESTATE_LOW;
 80056e8:	2300      	movs	r3, #0
 80056ea:	65fb      	str	r3, [r7, #92]	; 0x5c
  TIM_OC_InitStruct.OCNIdleState = LL_TIM_OCIDLESTATE_LOW;
 80056ec:	2300      	movs	r3, #0
 80056ee:	663b      	str	r3, [r7, #96]	; 0x60
  LL_TIM_OC_Init(TIM1, LL_TIM_CHANNEL_CH1, &TIM_OC_InitStruct);
 80056f0:	f107 0344 	add.w	r3, r7, #68	; 0x44
 80056f4:	461a      	mov	r2, r3
 80056f6:	2101      	movs	r1, #1
 80056f8:	4851      	ldr	r0, [pc, #324]	; (8005840 <MX_TIM1_Init+0x218>)
 80056fa:	f7fd fdd7 	bl	80032ac <LL_TIM_OC_Init>
  LL_TIM_OC_DisableFast(TIM1, LL_TIM_CHANNEL_CH1);
 80056fe:	2101      	movs	r1, #1
 8005700:	484f      	ldr	r0, [pc, #316]	; (8005840 <MX_TIM1_Init+0x218>)
 8005702:	f7ff fe79 	bl	80053f8 <LL_TIM_OC_DisableFast>
  LL_TIM_OC_EnablePreload(TIM1, LL_TIM_CHANNEL_CH2);
 8005706:	2110      	movs	r1, #16
 8005708:	484d      	ldr	r0, [pc, #308]	; (8005840 <MX_TIM1_Init+0x218>)
 800570a:	f7ff fec3 	bl	8005494 <LL_TIM_OC_EnablePreload>
  TIM_OC_InitStruct.OCState = LL_TIM_OCSTATE_DISABLE;
 800570e:	2300      	movs	r3, #0
 8005710:	64bb      	str	r3, [r7, #72]	; 0x48
  TIM_OC_InitStruct.OCNState = LL_TIM_OCSTATE_DISABLE;
 8005712:	2300      	movs	r3, #0
 8005714:	64fb      	str	r3, [r7, #76]	; 0x4c
  TIM_OC_InitStruct.CompareValue = 0;
 8005716:	2300      	movs	r3, #0
 8005718:	653b      	str	r3, [r7, #80]	; 0x50
  LL_TIM_OC_Init(TIM1, LL_TIM_CHANNEL_CH2, &TIM_OC_InitStruct);
 800571a:	f107 0344 	add.w	r3, r7, #68	; 0x44
 800571e:	461a      	mov	r2, r3
 8005720:	2110      	movs	r1, #16
 8005722:	4847      	ldr	r0, [pc, #284]	; (8005840 <MX_TIM1_Init+0x218>)
 8005724:	f7fd fdc2 	bl	80032ac <LL_TIM_OC_Init>
  LL_TIM_OC_DisableFast(TIM1, LL_TIM_CHANNEL_CH2);
 8005728:	2110      	movs	r1, #16
 800572a:	4845      	ldr	r0, [pc, #276]	; (8005840 <MX_TIM1_Init+0x218>)
 800572c:	f7ff fe64 	bl	80053f8 <LL_TIM_OC_DisableFast>
  LL_TIM_OC_EnablePreload(TIM1, LL_TIM_CHANNEL_CH3);
 8005730:	f44f 7180 	mov.w	r1, #256	; 0x100
 8005734:	4842      	ldr	r0, [pc, #264]	; (8005840 <MX_TIM1_Init+0x218>)
 8005736:	f7ff fead 	bl	8005494 <LL_TIM_OC_EnablePreload>
  TIM_OC_InitStruct.OCState = LL_TIM_OCSTATE_DISABLE;
 800573a:	2300      	movs	r3, #0
 800573c:	64bb      	str	r3, [r7, #72]	; 0x48
  TIM_OC_InitStruct.OCNState = LL_TIM_OCSTATE_DISABLE;
 800573e:	2300      	movs	r3, #0
 8005740:	64fb      	str	r3, [r7, #76]	; 0x4c
  LL_TIM_OC_Init(TIM1, LL_TIM_CHANNEL_CH3, &TIM_OC_InitStruct);
 8005742:	f107 0344 	add.w	r3, r7, #68	; 0x44
 8005746:	461a      	mov	r2, r3
 8005748:	f44f 7180 	mov.w	r1, #256	; 0x100
 800574c:	483c      	ldr	r0, [pc, #240]	; (8005840 <MX_TIM1_Init+0x218>)
 800574e:	f7fd fdad 	bl	80032ac <LL_TIM_OC_Init>
  LL_TIM_OC_DisableFast(TIM1, LL_TIM_CHANNEL_CH3);
 8005752:	f44f 7180 	mov.w	r1, #256	; 0x100
 8005756:	483a      	ldr	r0, [pc, #232]	; (8005840 <MX_TIM1_Init+0x218>)
 8005758:	f7ff fe4e 	bl	80053f8 <LL_TIM_OC_DisableFast>
  LL_TIM_OC_EnablePreload(TIM1, LL_TIM_CHANNEL_CH4);
 800575c:	f44f 5180 	mov.w	r1, #4096	; 0x1000
 8005760:	4837      	ldr	r0, [pc, #220]	; (8005840 <MX_TIM1_Init+0x218>)
 8005762:	f7ff fe97 	bl	8005494 <LL_TIM_OC_EnablePreload>
  TIM_OC_InitStruct.OCState = LL_TIM_OCSTATE_DISABLE;
 8005766:	2300      	movs	r3, #0
 8005768:	64bb      	str	r3, [r7, #72]	; 0x48
  TIM_OC_InitStruct.OCNState = LL_TIM_OCSTATE_DISABLE;
 800576a:	2300      	movs	r3, #0
 800576c:	64fb      	str	r3, [r7, #76]	; 0x4c
  TIM_OC_InitStruct.CompareValue = 65530;
 800576e:	f64f 73fa 	movw	r3, #65530	; 0xfffa
 8005772:	653b      	str	r3, [r7, #80]	; 0x50
  LL_TIM_OC_Init(TIM1, LL_TIM_CHANNEL_CH4, &TIM_OC_InitStruct);
 8005774:	f107 0344 	add.w	r3, r7, #68	; 0x44
 8005778:	461a      	mov	r2, r3
 800577a:	f44f 5180 	mov.w	r1, #4096	; 0x1000
 800577e:	4830      	ldr	r0, [pc, #192]	; (8005840 <MX_TIM1_Init+0x218>)
 8005780:	f7fd fd94 	bl	80032ac <LL_TIM_OC_Init>
  LL_TIM_OC_DisableFast(TIM1, LL_TIM_CHANNEL_CH4);
 8005784:	f44f 5180 	mov.w	r1, #4096	; 0x1000
 8005788:	482d      	ldr	r0, [pc, #180]	; (8005840 <MX_TIM1_Init+0x218>)
 800578a:	f7ff fe35 	bl	80053f8 <LL_TIM_OC_DisableFast>
  LL_TIM_SetTriggerOutput(TIM1, LL_TIM_TRGO_UPDATE);
 800578e:	2120      	movs	r1, #32
 8005790:	482b      	ldr	r0, [pc, #172]	; (8005840 <MX_TIM1_Init+0x218>)
 8005792:	f7ff fee2 	bl	800555a <LL_TIM_SetTriggerOutput>
  LL_TIM_SetTriggerOutput2(TIM1, LL_TIM_TRGO2_OC4);
 8005796:	f44f 01e0 	mov.w	r1, #7340032	; 0x700000
 800579a:	4829      	ldr	r0, [pc, #164]	; (8005840 <MX_TIM1_Init+0x218>)
 800579c:	f7ff fef0 	bl	8005580 <LL_TIM_SetTriggerOutput2>
  LL_TIM_DisableMasterSlaveMode(TIM1);
 80057a0:	4827      	ldr	r0, [pc, #156]	; (8005840 <MX_TIM1_Init+0x218>)
 80057a2:	f7ff ff00 	bl	80055a6 <LL_TIM_DisableMasterSlaveMode>
  TIM_BDTRInitStruct.OSSRState = LL_TIM_OSSR_DISABLE;
 80057a6:	2300      	movs	r3, #0
 80057a8:	61fb      	str	r3, [r7, #28]
  TIM_BDTRInitStruct.OSSIState = LL_TIM_OSSI_DISABLE;
 80057aa:	2300      	movs	r3, #0
 80057ac:	623b      	str	r3, [r7, #32]
  TIM_BDTRInitStruct.LockLevel = LL_TIM_LOCKLEVEL_OFF;
 80057ae:	2300      	movs	r3, #0
 80057b0:	627b      	str	r3, [r7, #36]	; 0x24
  TIM_BDTRInitStruct.DeadTime = 0;
 80057b2:	2300      	movs	r3, #0
 80057b4:	f887 3028 	strb.w	r3, [r7, #40]	; 0x28
  TIM_BDTRInitStruct.BreakState = LL_TIM_BREAK_DISABLE;
 80057b8:	2300      	movs	r3, #0
 80057ba:	857b      	strh	r3, [r7, #42]	; 0x2a
  TIM_BDTRInitStruct.BreakPolarity = LL_TIM_BREAK_POLARITY_HIGH;
 80057bc:	f44f 5300 	mov.w	r3, #8192	; 0x2000
 80057c0:	62fb      	str	r3, [r7, #44]	; 0x2c
  TIM_BDTRInitStruct.BreakFilter = LL_TIM_BREAK_FILTER_FDIV1;
 80057c2:	2300      	movs	r3, #0
 80057c4:	633b      	str	r3, [r7, #48]	; 0x30
  TIM_BDTRInitStruct.Break2State = LL_TIM_BREAK2_DISABLE;
 80057c6:	2300      	movs	r3, #0
 80057c8:	637b      	str	r3, [r7, #52]	; 0x34
  TIM_BDTRInitStruct.Break2Polarity = LL_TIM_BREAK2_POLARITY_HIGH;
 80057ca:	f04f 7300 	mov.w	r3, #33554432	; 0x2000000
 80057ce:	63bb      	str	r3, [r7, #56]	; 0x38
  TIM_BDTRInitStruct.Break2Filter = LL_TIM_BREAK2_FILTER_FDIV1;
 80057d0:	2300      	movs	r3, #0
 80057d2:	63fb      	str	r3, [r7, #60]	; 0x3c
  TIM_BDTRInitStruct.AutomaticOutput = LL_TIM_AUTOMATICOUTPUT_DISABLE;
 80057d4:	2300      	movs	r3, #0
 80057d6:	643b      	str	r3, [r7, #64]	; 0x40
  LL_TIM_BDTR_Init(TIM1, &TIM_BDTRInitStruct);
 80057d8:	f107 031c 	add.w	r3, r7, #28
 80057dc:	4619      	mov	r1, r3
 80057de:	4818      	ldr	r0, [pc, #96]	; (8005840 <MX_TIM1_Init+0x218>)
 80057e0:	f7fd fdb2 	bl	8003348 <LL_TIM_BDTR_Init>
  LL_AHB1_GRP1_EnableClock(LL_AHB1_GRP1_PERIPH_GPIOA);
 80057e4:	f44f 3000 	mov.w	r0, #131072	; 0x20000
 80057e8:	f7ff feee 	bl	80055c8 <LL_AHB1_GRP1_EnableClock>
    PA8     ------> TIM1_CH1
    PA9     ------> TIM1_CH2
    PA10     ------> TIM1_CH3
    PA11     ------> TIM1_CH4 
    */
  GPIO_InitStruct.Pin = LL_GPIO_PIN_8|LL_GPIO_PIN_9|LL_GPIO_PIN_10;
 80057ec:	f44f 63e0 	mov.w	r3, #1792	; 0x700
 80057f0:	607b      	str	r3, [r7, #4]
  GPIO_InitStruct.Mode = LL_GPIO_MODE_ALTERNATE;
 80057f2:	2302      	movs	r3, #2
 80057f4:	60bb      	str	r3, [r7, #8]
  GPIO_InitStruct.Speed = LL_GPIO_SPEED_FREQ_LOW;
 80057f6:	2300      	movs	r3, #0
 80057f8:	60fb      	str	r3, [r7, #12]
  GPIO_InitStruct.OutputType = LL_GPIO_OUTPUT_PUSHPULL;
 80057fa:	2300      	movs	r3, #0
 80057fc:	613b      	str	r3, [r7, #16]
  GPIO_InitStruct.Pull = LL_GPIO_PULL_NO;
 80057fe:	2300      	movs	r3, #0
 8005800:	617b      	str	r3, [r7, #20]
  GPIO_InitStruct.Alternate = LL_GPIO_AF_6;
 8005802:	2306      	movs	r3, #6
 8005804:	61bb      	str	r3, [r7, #24]
  LL_GPIO_Init(GPIOA, &GPIO_InitStruct);
 8005806:	1d3b      	adds	r3, r7, #4
 8005808:	4619      	mov	r1, r3
 800580a:	f04f 4090 	mov.w	r0, #1207959552	; 0x48000000
 800580e:	f7fd fbd1 	bl	8002fb4 <LL_GPIO_Init>

  GPIO_InitStruct.Pin = LL_GPIO_PIN_11;
 8005812:	f44f 6300 	mov.w	r3, #2048	; 0x800
 8005816:	607b      	str	r3, [r7, #4]
  GPIO_InitStruct.Mode = LL_GPIO_MODE_ALTERNATE;
 8005818:	2302      	movs	r3, #2
 800581a:	60bb      	str	r3, [r7, #8]
  GPIO_InitStruct.Speed = LL_GPIO_SPEED_FREQ_LOW;
 800581c:	2300      	movs	r3, #0
 800581e:	60fb      	str	r3, [r7, #12]
  GPIO_InitStruct.OutputType = LL_GPIO_OUTPUT_PUSHPULL;
 8005820:	2300      	movs	r3, #0
 8005822:	613b      	str	r3, [r7, #16]
  GPIO_InitStruct.Pull = LL_GPIO_PULL_NO;
 8005824:	2300      	movs	r3, #0
 8005826:	617b      	str	r3, [r7, #20]
  GPIO_InitStruct.Alternate = LL_GPIO_AF_11;
 8005828:	230b      	movs	r3, #11
 800582a:	61bb      	str	r3, [r7, #24]
  LL_GPIO_Init(GPIOA, &GPIO_InitStruct);
 800582c:	1d3b      	adds	r3, r7, #4
 800582e:	4619      	mov	r1, r3
 8005830:	f04f 4090 	mov.w	r0, #1207959552	; 0x48000000
 8005834:	f7fd fbbe 	bl	8002fb4 <LL_GPIO_Init>

}
 8005838:	bf00      	nop
 800583a:	3778      	adds	r7, #120	; 0x78
 800583c:	46bd      	mov	sp, r7
 800583e:	bd80      	pop	{r7, pc}
 8005840:	40012c00 	.word	0x40012c00

08005844 <MX_USART2_UART_Init>:
UART_HandleTypeDef huart2;

/* USART2 init function */

void MX_USART2_UART_Init(void)
{
 8005844:	b580      	push	{r7, lr}
 8005846:	af00      	add	r7, sp, #0

  huart2.Instance = USART2;
 8005848:	4b14      	ldr	r3, [pc, #80]	; (800589c <MX_USART2_UART_Init+0x58>)
 800584a:	4a15      	ldr	r2, [pc, #84]	; (80058a0 <MX_USART2_UART_Init+0x5c>)
 800584c:	601a      	str	r2, [r3, #0]
  huart2.Init.BaudRate = 38400;
 800584e:	4b13      	ldr	r3, [pc, #76]	; (800589c <MX_USART2_UART_Init+0x58>)
 8005850:	f44f 4216 	mov.w	r2, #38400	; 0x9600
 8005854:	605a      	str	r2, [r3, #4]
  huart2.Init.WordLength = UART_WORDLENGTH_8B;
 8005856:	4b11      	ldr	r3, [pc, #68]	; (800589c <MX_USART2_UART_Init+0x58>)
 8005858:	2200      	movs	r2, #0
 800585a:	609a      	str	r2, [r3, #8]
  huart2.Init.StopBits = UART_STOPBITS_1;
 800585c:	4b0f      	ldr	r3, [pc, #60]	; (800589c <MX_USART2_UART_Init+0x58>)
 800585e:	2200      	movs	r2, #0
 8005860:	60da      	str	r2, [r3, #12]
  huart2.Init.Parity = UART_PARITY_NONE;
 8005862:	4b0e      	ldr	r3, [pc, #56]	; (800589c <MX_USART2_UART_Init+0x58>)
 8005864:	2200      	movs	r2, #0
 8005866:	611a      	str	r2, [r3, #16]
  huart2.Init.Mode = UART_MODE_TX_RX;
 8005868:	4b0c      	ldr	r3, [pc, #48]	; (800589c <MX_USART2_UART_Init+0x58>)
 800586a:	220c      	movs	r2, #12
 800586c:	615a      	str	r2, [r3, #20]
  huart2.Init.HwFlowCtl = UART_HWCONTROL_NONE;
 800586e:	4b0b      	ldr	r3, [pc, #44]	; (800589c <MX_USART2_UART_Init+0x58>)
 8005870:	2200      	movs	r2, #0
 8005872:	619a      	str	r2, [r3, #24]
  huart2.Init.OverSampling = UART_OVERSAMPLING_16;
 8005874:	4b09      	ldr	r3, [pc, #36]	; (800589c <MX_USART2_UART_Init+0x58>)
 8005876:	2200      	movs	r2, #0
 8005878:	61da      	str	r2, [r3, #28]
  huart2.Init.OneBitSampling = UART_ONE_BIT_SAMPLE_DISABLE;
 800587a:	4b08      	ldr	r3, [pc, #32]	; (800589c <MX_USART2_UART_Init+0x58>)
 800587c:	2200      	movs	r2, #0
 800587e:	621a      	str	r2, [r3, #32]
  huart2.AdvancedInit.AdvFeatureInit = UART_ADVFEATURE_NO_INIT;
 8005880:	4b06      	ldr	r3, [pc, #24]	; (800589c <MX_USART2_UART_Init+0x58>)
 8005882:	2200      	movs	r2, #0
 8005884:	625a      	str	r2, [r3, #36]	; 0x24
  if (HAL_UART_Init(&huart2) != HAL_OK)
 8005886:	4805      	ldr	r0, [pc, #20]	; (800589c <MX_USART2_UART_Init+0x58>)
 8005888:	f7fc fe9a 	bl	80025c0 <HAL_UART_Init>
 800588c:	4603      	mov	r3, r0
 800588e:	2b00      	cmp	r3, #0
 8005890:	d001      	beq.n	8005896 <MX_USART2_UART_Init+0x52>
  {
    Error_Handler();
 8005892:	f7ff fc1b 	bl	80050cc <Error_Handler>
  }

}
 8005896:	bf00      	nop
 8005898:	bd80      	pop	{r7, pc}
 800589a:	bf00      	nop
 800589c:	200000a0 	.word	0x200000a0
 80058a0:	40004400 	.word	0x40004400

080058a4 <HAL_UART_MspInit>:

void HAL_UART_MspInit(UART_HandleTypeDef* uartHandle)
{
 80058a4:	b580      	push	{r7, lr}
 80058a6:	b08a      	sub	sp, #40	; 0x28
 80058a8:	af00      	add	r7, sp, #0
 80058aa:	6078      	str	r0, [r7, #4]

  GPIO_InitTypeDef GPIO_InitStruct = {0};
 80058ac:	f107 0314 	add.w	r3, r7, #20
 80058b0:	2200      	movs	r2, #0
 80058b2:	601a      	str	r2, [r3, #0]
 80058b4:	605a      	str	r2, [r3, #4]
 80058b6:	609a      	str	r2, [r3, #8]
 80058b8:	60da      	str	r2, [r3, #12]
 80058ba:	611a      	str	r2, [r3, #16]
  if(uartHandle->Instance==USART2)
 80058bc:	687b      	ldr	r3, [r7, #4]
 80058be:	681b      	ldr	r3, [r3, #0]
 80058c0:	4a18      	ldr	r2, [pc, #96]	; (8005924 <HAL_UART_MspInit+0x80>)
 80058c2:	4293      	cmp	r3, r2
 80058c4:	d129      	bne.n	800591a <HAL_UART_MspInit+0x76>
  {
  /* USER CODE BEGIN USART2_MspInit 0 */

  /* USER CODE END USART2_MspInit 0 */
    /* USART2 clock enable */
    __HAL_RCC_USART2_CLK_ENABLE();
 80058c6:	4b18      	ldr	r3, [pc, #96]	; (8005928 <HAL_UART_MspInit+0x84>)
 80058c8:	69db      	ldr	r3, [r3, #28]
 80058ca:	4a17      	ldr	r2, [pc, #92]	; (8005928 <HAL_UART_MspInit+0x84>)
 80058cc:	f443 3300 	orr.w	r3, r3, #131072	; 0x20000
 80058d0:	61d3      	str	r3, [r2, #28]
 80058d2:	4b15      	ldr	r3, [pc, #84]	; (8005928 <HAL_UART_MspInit+0x84>)
 80058d4:	69db      	ldr	r3, [r3, #28]
 80058d6:	f403 3300 	and.w	r3, r3, #131072	; 0x20000
 80058da:	613b      	str	r3, [r7, #16]
 80058dc:	693b      	ldr	r3, [r7, #16]
  
    __HAL_RCC_GPIOA_CLK_ENABLE();
 80058de:	4b12      	ldr	r3, [pc, #72]	; (8005928 <HAL_UART_MspInit+0x84>)
 80058e0:	695b      	ldr	r3, [r3, #20]
 80058e2:	4a11      	ldr	r2, [pc, #68]	; (8005928 <HAL_UART_MspInit+0x84>)
 80058e4:	f443 3300 	orr.w	r3, r3, #131072	; 0x20000
 80058e8:	6153      	str	r3, [r2, #20]
 80058ea:	4b0f      	ldr	r3, [pc, #60]	; (8005928 <HAL_UART_MspInit+0x84>)
 80058ec:	695b      	ldr	r3, [r3, #20]
 80058ee:	f403 3300 	and.w	r3, r3, #131072	; 0x20000
 80058f2:	60fb      	str	r3, [r7, #12]
 80058f4:	68fb      	ldr	r3, [r7, #12]
    /**USART2 GPIO Configuration    
    PA2     ------> USART2_TX
    PA15     ------> USART2_RX 
    */
    GPIO_InitStruct.Pin = GPIO_PIN_2|GPIO_PIN_15;
 80058f6:	f248 0304 	movw	r3, #32772	; 0x8004
 80058fa:	617b      	str	r3, [r7, #20]
    GPIO_InitStruct.Mode = GPIO_MODE_AF_PP;
 80058fc:	2302      	movs	r3, #2
 80058fe:	61bb      	str	r3, [r7, #24]
    GPIO_InitStruct.Pull = GPIO_NOPULL;
 8005900:	2300      	movs	r3, #0
 8005902:	61fb      	str	r3, [r7, #28]
    GPIO_InitStruct.Speed = GPIO_SPEED_FREQ_HIGH;
 8005904:	2303      	movs	r3, #3
 8005906:	623b      	str	r3, [r7, #32]
    GPIO_InitStruct.Alternate = GPIO_AF7_USART2;
 8005908:	2307      	movs	r3, #7
 800590a:	627b      	str	r3, [r7, #36]	; 0x24
    HAL_GPIO_Init(GPIOA, &GPIO_InitStruct);
 800590c:	f107 0314 	add.w	r3, r7, #20
 8005910:	4619      	mov	r1, r3
 8005912:	f04f 4090 	mov.w	r0, #1207959552	; 0x48000000
 8005916:	f7fb fa93 	bl	8000e40 <HAL_GPIO_Init>

  /* USER CODE BEGIN USART2_MspInit 1 */

  /* USER CODE END USART2_MspInit 1 */
  }
}
 800591a:	bf00      	nop
 800591c:	3728      	adds	r7, #40	; 0x28
 800591e:	46bd      	mov	sp, r7
 8005920:	bd80      	pop	{r7, pc}
 8005922:	bf00      	nop
 8005924:	40004400 	.word	0x40004400
 8005928:	40021000 	.word	0x40021000

0800592c <Reset_Handler>:

    .section	.text.Reset_Handler
	.weak	Reset_Handler
	.type	Reset_Handler, %function
Reset_Handler:
  ldr   sp, =_estack    /* Atollic update: set stack pointer */
 800592c:	f8df d034 	ldr.w	sp, [pc, #52]	; 8005964 <LoopForever+0x2>

/* Copy the data segment initializers from flash to SRAM */
  movs	r1, #0
 8005930:	2100      	movs	r1, #0
  b	LoopCopyDataInit
 8005932:	e003      	b.n	800593c <LoopCopyDataInit>

08005934 <CopyDataInit>:

CopyDataInit:
	ldr	r3, =_sidata
 8005934:	4b0c      	ldr	r3, [pc, #48]	; (8005968 <LoopForever+0x6>)
	ldr	r3, [r3, r1]
 8005936:	585b      	ldr	r3, [r3, r1]
	str	r3, [r0, r1]
 8005938:	5043      	str	r3, [r0, r1]
	adds	r1, r1, #4
 800593a:	3104      	adds	r1, #4

0800593c <LoopCopyDataInit>:

LoopCopyDataInit:
	ldr	r0, =_sdata
 800593c:	480b      	ldr	r0, [pc, #44]	; (800596c <LoopForever+0xa>)
	ldr	r3, =_edata
 800593e:	4b0c      	ldr	r3, [pc, #48]	; (8005970 <LoopForever+0xe>)
	adds	r2, r0, r1
 8005940:	1842      	adds	r2, r0, r1
	cmp	r2, r3
 8005942:	429a      	cmp	r2, r3
	bcc	CopyDataInit
 8005944:	d3f6      	bcc.n	8005934 <CopyDataInit>
	ldr	r2, =_sbss
 8005946:	4a0b      	ldr	r2, [pc, #44]	; (8005974 <LoopForever+0x12>)
	b	LoopFillZerobss
 8005948:	e002      	b.n	8005950 <LoopFillZerobss>

0800594a <FillZerobss>:
/* Zero fill the bss segment. */
FillZerobss:
	movs	r3, #0
 800594a:	2300      	movs	r3, #0
	str	r3, [r2], #4
 800594c:	f842 3b04 	str.w	r3, [r2], #4

08005950 <LoopFillZerobss>:

LoopFillZerobss:
	ldr	r3, = _ebss
 8005950:	4b09      	ldr	r3, [pc, #36]	; (8005978 <LoopForever+0x16>)
	cmp	r2, r3
 8005952:	429a      	cmp	r2, r3
	bcc	FillZerobss
 8005954:	d3f9      	bcc.n	800594a <FillZerobss>

/* Call the clock system intitialization function.*/
    bl  SystemInit
 8005956:	f7ff fc6f 	bl	8005238 <SystemInit>
/* Call static constructors */
    bl __libc_init_array
 800595a:	f001 f84f 	bl	80069fc <__libc_init_array>
/* Call the application's entry point.*/
	bl	main
 800595e:	f7ff fb47 	bl	8004ff0 <main>

08005962 <LoopForever>:

LoopForever:
    b LoopForever
 8005962:	e7fe      	b.n	8005962 <LoopForever>
  ldr   sp, =_estack    /* Atollic update: set stack pointer */
 8005964:	20002fff 	.word	0x20002fff
	ldr	r3, =_sidata
 8005968:	08006f10 	.word	0x08006f10
	ldr	r0, =_sdata
 800596c:	20000000 	.word	0x20000000
	ldr	r3, =_edata
 8005970:	20000070 	.word	0x20000070
	ldr	r2, =_sbss
 8005974:	20000070 	.word	0x20000070
	ldr	r3, = _ebss
 8005978:	20000114 	.word	0x20000114

0800597c <CAN_RX0_IRQHandler>:
 * @retval : None
*/
    .section	.text.Default_Handler,"ax",%progbits
Default_Handler:
Infinite_Loop:
	b	Infinite_Loop
 800597c:	e7fe      	b.n	800597c <CAN_RX0_IRQHandler>

0800597e <_Znwj>:
 800597e:	b510      	push	{r4, lr}
 8005980:	2800      	cmp	r0, #0
 8005982:	bf14      	ite	ne
 8005984:	4604      	movne	r4, r0
 8005986:	2401      	moveq	r4, #1
 8005988:	4620      	mov	r0, r4
 800598a:	f001 f85b 	bl	8006a44 <malloc>
 800598e:	b930      	cbnz	r0, 800599e <_Znwj+0x20>
 8005990:	f000 f806 	bl	80059a0 <_ZSt15get_new_handlerv>
 8005994:	b908      	cbnz	r0, 800599a <_Znwj+0x1c>
 8005996:	f001 f824 	bl	80069e2 <abort>
 800599a:	4780      	blx	r0
 800599c:	e7f4      	b.n	8005988 <_Znwj+0xa>
 800599e:	bd10      	pop	{r4, pc}

080059a0 <_ZSt15get_new_handlerv>:
 80059a0:	4b02      	ldr	r3, [pc, #8]	; (80059ac <_ZSt15get_new_handlerv+0xc>)
 80059a2:	6818      	ldr	r0, [r3, #0]
 80059a4:	f3bf 8f5b 	dmb	ish
 80059a8:	4770      	bx	lr
 80059aa:	bf00      	nop
 80059ac:	20000090 	.word	0x20000090

080059b0 <_ZdlPv>:
 80059b0:	f001 b850 	b.w	8006a54 <free>

080059b4 <_ZSt17__throw_bad_allocv>:
 80059b4:	b508      	push	{r3, lr}
 80059b6:	f001 f814 	bl	80069e2 <abort>

080059ba <_ZSt20__throw_length_errorPKc>:
 80059ba:	b508      	push	{r3, lr}
 80059bc:	f001 f811 	bl	80069e2 <abort>

080059c0 <sin>:
 80059c0:	b51f      	push	{r0, r1, r2, r3, r4, lr}
 80059c2:	ec51 0b10 	vmov	r0, r1, d0
 80059c6:	4a20      	ldr	r2, [pc, #128]	; (8005a48 <sin+0x88>)
 80059c8:	f021 4300 	bic.w	r3, r1, #2147483648	; 0x80000000
 80059cc:	4293      	cmp	r3, r2
 80059ce:	dc07      	bgt.n	80059e0 <sin+0x20>
 80059d0:	ed9f 1b1b 	vldr	d1, [pc, #108]	; 8005a40 <sin+0x80>
 80059d4:	2000      	movs	r0, #0
 80059d6:	f000 fe37 	bl	8006648 <__kernel_sin>
 80059da:	ec51 0b10 	vmov	r0, r1, d0
 80059de:	e007      	b.n	80059f0 <sin+0x30>
 80059e0:	4a1a      	ldr	r2, [pc, #104]	; (8005a4c <sin+0x8c>)
 80059e2:	4293      	cmp	r3, r2
 80059e4:	dd09      	ble.n	80059fa <sin+0x3a>
 80059e6:	ee10 2a10 	vmov	r2, s0
 80059ea:	460b      	mov	r3, r1
 80059ec:	f7fa fbf0 	bl	80001d0 <__aeabi_dsub>
 80059f0:	ec41 0b10 	vmov	d0, r0, r1
 80059f4:	b005      	add	sp, #20
 80059f6:	f85d fb04 	ldr.w	pc, [sp], #4
 80059fa:	4668      	mov	r0, sp
 80059fc:	f000 f828 	bl	8005a50 <__ieee754_rem_pio2>
 8005a00:	f000 0003 	and.w	r0, r0, #3
 8005a04:	2801      	cmp	r0, #1
 8005a06:	ed9d 1b02 	vldr	d1, [sp, #8]
 8005a0a:	ed9d 0b00 	vldr	d0, [sp]
 8005a0e:	d004      	beq.n	8005a1a <sin+0x5a>
 8005a10:	2802      	cmp	r0, #2
 8005a12:	d005      	beq.n	8005a20 <sin+0x60>
 8005a14:	b970      	cbnz	r0, 8005a34 <sin+0x74>
 8005a16:	2001      	movs	r0, #1
 8005a18:	e7dd      	b.n	80059d6 <sin+0x16>
 8005a1a:	f000 fa0d 	bl	8005e38 <__kernel_cos>
 8005a1e:	e7dc      	b.n	80059da <sin+0x1a>
 8005a20:	2001      	movs	r0, #1
 8005a22:	f000 fe11 	bl	8006648 <__kernel_sin>
 8005a26:	ec53 2b10 	vmov	r2, r3, d0
 8005a2a:	ee10 0a10 	vmov	r0, s0
 8005a2e:	f103 4100 	add.w	r1, r3, #2147483648	; 0x80000000
 8005a32:	e7dd      	b.n	80059f0 <sin+0x30>
 8005a34:	f000 fa00 	bl	8005e38 <__kernel_cos>
 8005a38:	e7f5      	b.n	8005a26 <sin+0x66>
 8005a3a:	bf00      	nop
 8005a3c:	f3af 8000 	nop.w
	...
 8005a48:	3fe921fb 	.word	0x3fe921fb
 8005a4c:	7fefffff 	.word	0x7fefffff

08005a50 <__ieee754_rem_pio2>:
 8005a50:	e92d 4ff0 	stmdb	sp!, {r4, r5, r6, r7, r8, r9, sl, fp, lr}
 8005a54:	ec57 6b10 	vmov	r6, r7, d0
 8005a58:	4bc3      	ldr	r3, [pc, #780]	; (8005d68 <__ieee754_rem_pio2+0x318>)
 8005a5a:	b08d      	sub	sp, #52	; 0x34
 8005a5c:	f027 4800 	bic.w	r8, r7, #2147483648	; 0x80000000
 8005a60:	4598      	cmp	r8, r3
 8005a62:	4604      	mov	r4, r0
 8005a64:	9704      	str	r7, [sp, #16]
 8005a66:	dc07      	bgt.n	8005a78 <__ieee754_rem_pio2+0x28>
 8005a68:	2200      	movs	r2, #0
 8005a6a:	2300      	movs	r3, #0
 8005a6c:	ed84 0b00 	vstr	d0, [r4]
 8005a70:	e9c0 2302 	strd	r2, r3, [r0, #8]
 8005a74:	2500      	movs	r5, #0
 8005a76:	e027      	b.n	8005ac8 <__ieee754_rem_pio2+0x78>
 8005a78:	4bbc      	ldr	r3, [pc, #752]	; (8005d6c <__ieee754_rem_pio2+0x31c>)
 8005a7a:	4598      	cmp	r8, r3
 8005a7c:	dc75      	bgt.n	8005b6a <__ieee754_rem_pio2+0x11a>
 8005a7e:	9b04      	ldr	r3, [sp, #16]
 8005a80:	4dbb      	ldr	r5, [pc, #748]	; (8005d70 <__ieee754_rem_pio2+0x320>)
 8005a82:	2b00      	cmp	r3, #0
 8005a84:	ee10 0a10 	vmov	r0, s0
 8005a88:	a3a9      	add	r3, pc, #676	; (adr r3, 8005d30 <__ieee754_rem_pio2+0x2e0>)
 8005a8a:	e9d3 2300 	ldrd	r2, r3, [r3]
 8005a8e:	4639      	mov	r1, r7
 8005a90:	dd36      	ble.n	8005b00 <__ieee754_rem_pio2+0xb0>
 8005a92:	f7fa fb9d 	bl	80001d0 <__aeabi_dsub>
 8005a96:	45a8      	cmp	r8, r5
 8005a98:	4606      	mov	r6, r0
 8005a9a:	460f      	mov	r7, r1
 8005a9c:	d018      	beq.n	8005ad0 <__ieee754_rem_pio2+0x80>
 8005a9e:	a3a6      	add	r3, pc, #664	; (adr r3, 8005d38 <__ieee754_rem_pio2+0x2e8>)
 8005aa0:	e9d3 2300 	ldrd	r2, r3, [r3]
 8005aa4:	f7fa fb94 	bl	80001d0 <__aeabi_dsub>
 8005aa8:	4602      	mov	r2, r0
 8005aaa:	460b      	mov	r3, r1
 8005aac:	e9c4 2300 	strd	r2, r3, [r4]
 8005ab0:	4630      	mov	r0, r6
 8005ab2:	4639      	mov	r1, r7
 8005ab4:	f7fa fb8c 	bl	80001d0 <__aeabi_dsub>
 8005ab8:	a39f      	add	r3, pc, #636	; (adr r3, 8005d38 <__ieee754_rem_pio2+0x2e8>)
 8005aba:	e9d3 2300 	ldrd	r2, r3, [r3]
 8005abe:	f7fa fb87 	bl	80001d0 <__aeabi_dsub>
 8005ac2:	e9c4 0102 	strd	r0, r1, [r4, #8]
 8005ac6:	2501      	movs	r5, #1
 8005ac8:	4628      	mov	r0, r5
 8005aca:	b00d      	add	sp, #52	; 0x34
 8005acc:	e8bd 8ff0 	ldmia.w	sp!, {r4, r5, r6, r7, r8, r9, sl, fp, pc}
 8005ad0:	a39b      	add	r3, pc, #620	; (adr r3, 8005d40 <__ieee754_rem_pio2+0x2f0>)
 8005ad2:	e9d3 2300 	ldrd	r2, r3, [r3]
 8005ad6:	f7fa fb7b 	bl	80001d0 <__aeabi_dsub>
 8005ada:	a39b      	add	r3, pc, #620	; (adr r3, 8005d48 <__ieee754_rem_pio2+0x2f8>)
 8005adc:	e9d3 2300 	ldrd	r2, r3, [r3]
 8005ae0:	4606      	mov	r6, r0
 8005ae2:	460f      	mov	r7, r1
 8005ae4:	f7fa fb74 	bl	80001d0 <__aeabi_dsub>
 8005ae8:	4602      	mov	r2, r0
 8005aea:	460b      	mov	r3, r1
 8005aec:	e9c4 2300 	strd	r2, r3, [r4]
 8005af0:	4630      	mov	r0, r6
 8005af2:	4639      	mov	r1, r7
 8005af4:	f7fa fb6c 	bl	80001d0 <__aeabi_dsub>
 8005af8:	a393      	add	r3, pc, #588	; (adr r3, 8005d48 <__ieee754_rem_pio2+0x2f8>)
 8005afa:	e9d3 2300 	ldrd	r2, r3, [r3]
 8005afe:	e7de      	b.n	8005abe <__ieee754_rem_pio2+0x6e>
 8005b00:	f7fa fb68 	bl	80001d4 <__adddf3>
 8005b04:	45a8      	cmp	r8, r5
 8005b06:	4606      	mov	r6, r0
 8005b08:	460f      	mov	r7, r1
 8005b0a:	d016      	beq.n	8005b3a <__ieee754_rem_pio2+0xea>
 8005b0c:	a38a      	add	r3, pc, #552	; (adr r3, 8005d38 <__ieee754_rem_pio2+0x2e8>)
 8005b0e:	e9d3 2300 	ldrd	r2, r3, [r3]
 8005b12:	f7fa fb5f 	bl	80001d4 <__adddf3>
 8005b16:	4602      	mov	r2, r0
 8005b18:	460b      	mov	r3, r1
 8005b1a:	e9c4 2300 	strd	r2, r3, [r4]
 8005b1e:	4630      	mov	r0, r6
 8005b20:	4639      	mov	r1, r7
 8005b22:	f7fa fb55 	bl	80001d0 <__aeabi_dsub>
 8005b26:	a384      	add	r3, pc, #528	; (adr r3, 8005d38 <__ieee754_rem_pio2+0x2e8>)
 8005b28:	e9d3 2300 	ldrd	r2, r3, [r3]
 8005b2c:	f7fa fb52 	bl	80001d4 <__adddf3>
 8005b30:	f04f 35ff 	mov.w	r5, #4294967295
 8005b34:	e9c4 0102 	strd	r0, r1, [r4, #8]
 8005b38:	e7c6      	b.n	8005ac8 <__ieee754_rem_pio2+0x78>
 8005b3a:	a381      	add	r3, pc, #516	; (adr r3, 8005d40 <__ieee754_rem_pio2+0x2f0>)
 8005b3c:	e9d3 2300 	ldrd	r2, r3, [r3]
 8005b40:	f7fa fb48 	bl	80001d4 <__adddf3>
 8005b44:	a380      	add	r3, pc, #512	; (adr r3, 8005d48 <__ieee754_rem_pio2+0x2f8>)
 8005b46:	e9d3 2300 	ldrd	r2, r3, [r3]
 8005b4a:	4606      	mov	r6, r0
 8005b4c:	460f      	mov	r7, r1
 8005b4e:	f7fa fb41 	bl	80001d4 <__adddf3>
 8005b52:	4602      	mov	r2, r0
 8005b54:	460b      	mov	r3, r1
 8005b56:	e9c4 2300 	strd	r2, r3, [r4]
 8005b5a:	4630      	mov	r0, r6
 8005b5c:	4639      	mov	r1, r7
 8005b5e:	f7fa fb37 	bl	80001d0 <__aeabi_dsub>
 8005b62:	a379      	add	r3, pc, #484	; (adr r3, 8005d48 <__ieee754_rem_pio2+0x2f8>)
 8005b64:	e9d3 2300 	ldrd	r2, r3, [r3]
 8005b68:	e7e0      	b.n	8005b2c <__ieee754_rem_pio2+0xdc>
 8005b6a:	4b82      	ldr	r3, [pc, #520]	; (8005d74 <__ieee754_rem_pio2+0x324>)
 8005b6c:	4598      	cmp	r8, r3
 8005b6e:	f300 80d0 	bgt.w	8005d12 <__ieee754_rem_pio2+0x2c2>
 8005b72:	f000 fe23 	bl	80067bc <fabs>
 8005b76:	ec57 6b10 	vmov	r6, r7, d0
 8005b7a:	ee10 0a10 	vmov	r0, s0
 8005b7e:	a374      	add	r3, pc, #464	; (adr r3, 8005d50 <__ieee754_rem_pio2+0x300>)
 8005b80:	e9d3 2300 	ldrd	r2, r3, [r3]
 8005b84:	4639      	mov	r1, r7
 8005b86:	f7fa fcdb 	bl	8000540 <__aeabi_dmul>
 8005b8a:	2200      	movs	r2, #0
 8005b8c:	4b7a      	ldr	r3, [pc, #488]	; (8005d78 <__ieee754_rem_pio2+0x328>)
 8005b8e:	f7fa fb21 	bl	80001d4 <__adddf3>
 8005b92:	f7fa ff6f 	bl	8000a74 <__aeabi_d2iz>
 8005b96:	4605      	mov	r5, r0
 8005b98:	f7fa fc68 	bl	800046c <__aeabi_i2d>
 8005b9c:	a364      	add	r3, pc, #400	; (adr r3, 8005d30 <__ieee754_rem_pio2+0x2e0>)
 8005b9e:	e9d3 2300 	ldrd	r2, r3, [r3]
 8005ba2:	e9cd 0102 	strd	r0, r1, [sp, #8]
 8005ba6:	f7fa fccb 	bl	8000540 <__aeabi_dmul>
 8005baa:	4602      	mov	r2, r0
 8005bac:	460b      	mov	r3, r1
 8005bae:	4630      	mov	r0, r6
 8005bb0:	4639      	mov	r1, r7
 8005bb2:	f7fa fb0d 	bl	80001d0 <__aeabi_dsub>
 8005bb6:	a360      	add	r3, pc, #384	; (adr r3, 8005d38 <__ieee754_rem_pio2+0x2e8>)
 8005bb8:	e9d3 2300 	ldrd	r2, r3, [r3]
 8005bbc:	4682      	mov	sl, r0
 8005bbe:	468b      	mov	fp, r1
 8005bc0:	e9dd 0102 	ldrd	r0, r1, [sp, #8]
 8005bc4:	f7fa fcbc 	bl	8000540 <__aeabi_dmul>
 8005bc8:	2d1f      	cmp	r5, #31
 8005bca:	4606      	mov	r6, r0
 8005bcc:	460f      	mov	r7, r1
 8005bce:	dc0c      	bgt.n	8005bea <__ieee754_rem_pio2+0x19a>
 8005bd0:	1e6a      	subs	r2, r5, #1
 8005bd2:	4b6a      	ldr	r3, [pc, #424]	; (8005d7c <__ieee754_rem_pio2+0x32c>)
 8005bd4:	f853 3022 	ldr.w	r3, [r3, r2, lsl #2]
 8005bd8:	4543      	cmp	r3, r8
 8005bda:	d006      	beq.n	8005bea <__ieee754_rem_pio2+0x19a>
 8005bdc:	4632      	mov	r2, r6
 8005bde:	463b      	mov	r3, r7
 8005be0:	4650      	mov	r0, sl
 8005be2:	4659      	mov	r1, fp
 8005be4:	f7fa faf4 	bl	80001d0 <__aeabi_dsub>
 8005be8:	e00e      	b.n	8005c08 <__ieee754_rem_pio2+0x1b8>
 8005bea:	4632      	mov	r2, r6
 8005bec:	463b      	mov	r3, r7
 8005bee:	4650      	mov	r0, sl
 8005bf0:	4659      	mov	r1, fp
 8005bf2:	f7fa faed 	bl	80001d0 <__aeabi_dsub>
 8005bf6:	ea4f 5328 	mov.w	r3, r8, asr #20
 8005bfa:	9305      	str	r3, [sp, #20]
 8005bfc:	9a05      	ldr	r2, [sp, #20]
 8005bfe:	f3c1 530a 	ubfx	r3, r1, #20, #11
 8005c02:	1ad3      	subs	r3, r2, r3
 8005c04:	2b10      	cmp	r3, #16
 8005c06:	dc02      	bgt.n	8005c0e <__ieee754_rem_pio2+0x1be>
 8005c08:	e9c4 0100 	strd	r0, r1, [r4]
 8005c0c:	e039      	b.n	8005c82 <__ieee754_rem_pio2+0x232>
 8005c0e:	a34c      	add	r3, pc, #304	; (adr r3, 8005d40 <__ieee754_rem_pio2+0x2f0>)
 8005c10:	e9d3 2300 	ldrd	r2, r3, [r3]
 8005c14:	e9dd 0102 	ldrd	r0, r1, [sp, #8]
 8005c18:	f7fa fc92 	bl	8000540 <__aeabi_dmul>
 8005c1c:	4606      	mov	r6, r0
 8005c1e:	460f      	mov	r7, r1
 8005c20:	4602      	mov	r2, r0
 8005c22:	460b      	mov	r3, r1
 8005c24:	4650      	mov	r0, sl
 8005c26:	4659      	mov	r1, fp
 8005c28:	f7fa fad2 	bl	80001d0 <__aeabi_dsub>
 8005c2c:	4602      	mov	r2, r0
 8005c2e:	460b      	mov	r3, r1
 8005c30:	4680      	mov	r8, r0
 8005c32:	4689      	mov	r9, r1
 8005c34:	4650      	mov	r0, sl
 8005c36:	4659      	mov	r1, fp
 8005c38:	f7fa faca 	bl	80001d0 <__aeabi_dsub>
 8005c3c:	4632      	mov	r2, r6
 8005c3e:	463b      	mov	r3, r7
 8005c40:	f7fa fac6 	bl	80001d0 <__aeabi_dsub>
 8005c44:	a340      	add	r3, pc, #256	; (adr r3, 8005d48 <__ieee754_rem_pio2+0x2f8>)
 8005c46:	e9d3 2300 	ldrd	r2, r3, [r3]
 8005c4a:	4606      	mov	r6, r0
 8005c4c:	460f      	mov	r7, r1
 8005c4e:	e9dd 0102 	ldrd	r0, r1, [sp, #8]
 8005c52:	f7fa fc75 	bl	8000540 <__aeabi_dmul>
 8005c56:	4632      	mov	r2, r6
 8005c58:	463b      	mov	r3, r7
 8005c5a:	f7fa fab9 	bl	80001d0 <__aeabi_dsub>
 8005c5e:	4602      	mov	r2, r0
 8005c60:	460b      	mov	r3, r1
 8005c62:	4606      	mov	r6, r0
 8005c64:	460f      	mov	r7, r1
 8005c66:	4640      	mov	r0, r8
 8005c68:	4649      	mov	r1, r9
 8005c6a:	f7fa fab1 	bl	80001d0 <__aeabi_dsub>
 8005c6e:	9a05      	ldr	r2, [sp, #20]
 8005c70:	f3c1 530a 	ubfx	r3, r1, #20, #11
 8005c74:	1ad3      	subs	r3, r2, r3
 8005c76:	2b31      	cmp	r3, #49	; 0x31
 8005c78:	dc20      	bgt.n	8005cbc <__ieee754_rem_pio2+0x26c>
 8005c7a:	e9c4 0100 	strd	r0, r1, [r4]
 8005c7e:	46c2      	mov	sl, r8
 8005c80:	46cb      	mov	fp, r9
 8005c82:	e9d4 8900 	ldrd	r8, r9, [r4]
 8005c86:	4650      	mov	r0, sl
 8005c88:	4642      	mov	r2, r8
 8005c8a:	464b      	mov	r3, r9
 8005c8c:	4659      	mov	r1, fp
 8005c8e:	f7fa fa9f 	bl	80001d0 <__aeabi_dsub>
 8005c92:	463b      	mov	r3, r7
 8005c94:	4632      	mov	r2, r6
 8005c96:	f7fa fa9b 	bl	80001d0 <__aeabi_dsub>
 8005c9a:	9b04      	ldr	r3, [sp, #16]
 8005c9c:	2b00      	cmp	r3, #0
 8005c9e:	e9c4 0102 	strd	r0, r1, [r4, #8]
 8005ca2:	f6bf af11 	bge.w	8005ac8 <__ieee754_rem_pio2+0x78>
 8005ca6:	f109 4300 	add.w	r3, r9, #2147483648	; 0x80000000
 8005caa:	6063      	str	r3, [r4, #4]
 8005cac:	f8c4 8000 	str.w	r8, [r4]
 8005cb0:	60a0      	str	r0, [r4, #8]
 8005cb2:	f101 4300 	add.w	r3, r1, #2147483648	; 0x80000000
 8005cb6:	60e3      	str	r3, [r4, #12]
 8005cb8:	426d      	negs	r5, r5
 8005cba:	e705      	b.n	8005ac8 <__ieee754_rem_pio2+0x78>
 8005cbc:	a326      	add	r3, pc, #152	; (adr r3, 8005d58 <__ieee754_rem_pio2+0x308>)
 8005cbe:	e9d3 2300 	ldrd	r2, r3, [r3]
 8005cc2:	e9dd 0102 	ldrd	r0, r1, [sp, #8]
 8005cc6:	f7fa fc3b 	bl	8000540 <__aeabi_dmul>
 8005cca:	4606      	mov	r6, r0
 8005ccc:	460f      	mov	r7, r1
 8005cce:	4602      	mov	r2, r0
 8005cd0:	460b      	mov	r3, r1
 8005cd2:	4640      	mov	r0, r8
 8005cd4:	4649      	mov	r1, r9
 8005cd6:	f7fa fa7b 	bl	80001d0 <__aeabi_dsub>
 8005cda:	4602      	mov	r2, r0
 8005cdc:	460b      	mov	r3, r1
 8005cde:	4682      	mov	sl, r0
 8005ce0:	468b      	mov	fp, r1
 8005ce2:	4640      	mov	r0, r8
 8005ce4:	4649      	mov	r1, r9
 8005ce6:	f7fa fa73 	bl	80001d0 <__aeabi_dsub>
 8005cea:	4632      	mov	r2, r6
 8005cec:	463b      	mov	r3, r7
 8005cee:	f7fa fa6f 	bl	80001d0 <__aeabi_dsub>
 8005cf2:	a31b      	add	r3, pc, #108	; (adr r3, 8005d60 <__ieee754_rem_pio2+0x310>)
 8005cf4:	e9d3 2300 	ldrd	r2, r3, [r3]
 8005cf8:	4606      	mov	r6, r0
 8005cfa:	460f      	mov	r7, r1
 8005cfc:	e9dd 0102 	ldrd	r0, r1, [sp, #8]
 8005d00:	f7fa fc1e 	bl	8000540 <__aeabi_dmul>
 8005d04:	4632      	mov	r2, r6
 8005d06:	463b      	mov	r3, r7
 8005d08:	f7fa fa62 	bl	80001d0 <__aeabi_dsub>
 8005d0c:	4606      	mov	r6, r0
 8005d0e:	460f      	mov	r7, r1
 8005d10:	e764      	b.n	8005bdc <__ieee754_rem_pio2+0x18c>
 8005d12:	4b1b      	ldr	r3, [pc, #108]	; (8005d80 <__ieee754_rem_pio2+0x330>)
 8005d14:	4598      	cmp	r8, r3
 8005d16:	dd35      	ble.n	8005d84 <__ieee754_rem_pio2+0x334>
 8005d18:	ee10 2a10 	vmov	r2, s0
 8005d1c:	463b      	mov	r3, r7
 8005d1e:	4630      	mov	r0, r6
 8005d20:	4639      	mov	r1, r7
 8005d22:	f7fa fa55 	bl	80001d0 <__aeabi_dsub>
 8005d26:	e9c4 0102 	strd	r0, r1, [r4, #8]
 8005d2a:	e9c4 0100 	strd	r0, r1, [r4]
 8005d2e:	e6a1      	b.n	8005a74 <__ieee754_rem_pio2+0x24>
 8005d30:	54400000 	.word	0x54400000
 8005d34:	3ff921fb 	.word	0x3ff921fb
 8005d38:	1a626331 	.word	0x1a626331
 8005d3c:	3dd0b461 	.word	0x3dd0b461
 8005d40:	1a600000 	.word	0x1a600000
 8005d44:	3dd0b461 	.word	0x3dd0b461
 8005d48:	2e037073 	.word	0x2e037073
 8005d4c:	3ba3198a 	.word	0x3ba3198a
 8005d50:	6dc9c883 	.word	0x6dc9c883
 8005d54:	3fe45f30 	.word	0x3fe45f30
 8005d58:	2e000000 	.word	0x2e000000
 8005d5c:	3ba3198a 	.word	0x3ba3198a
 8005d60:	252049c1 	.word	0x252049c1
 8005d64:	397b839a 	.word	0x397b839a
 8005d68:	3fe921fb 	.word	0x3fe921fb
 8005d6c:	4002d97b 	.word	0x4002d97b
 8005d70:	3ff921fb 	.word	0x3ff921fb
 8005d74:	413921fb 	.word	0x413921fb
 8005d78:	3fe00000 	.word	0x3fe00000
 8005d7c:	08006d2c 	.word	0x08006d2c
 8005d80:	7fefffff 	.word	0x7fefffff
 8005d84:	ea4f 5528 	mov.w	r5, r8, asr #20
 8005d88:	f2a5 4516 	subw	r5, r5, #1046	; 0x416
 8005d8c:	eba8 5105 	sub.w	r1, r8, r5, lsl #20
 8005d90:	4630      	mov	r0, r6
 8005d92:	460f      	mov	r7, r1
 8005d94:	f7fa fe6e 	bl	8000a74 <__aeabi_d2iz>
 8005d98:	f7fa fb68 	bl	800046c <__aeabi_i2d>
 8005d9c:	4602      	mov	r2, r0
 8005d9e:	460b      	mov	r3, r1
 8005da0:	4630      	mov	r0, r6
 8005da2:	4639      	mov	r1, r7
 8005da4:	e9cd 2306 	strd	r2, r3, [sp, #24]
 8005da8:	f7fa fa12 	bl	80001d0 <__aeabi_dsub>
 8005dac:	2200      	movs	r2, #0
 8005dae:	4b1f      	ldr	r3, [pc, #124]	; (8005e2c <__ieee754_rem_pio2+0x3dc>)
 8005db0:	f7fa fbc6 	bl	8000540 <__aeabi_dmul>
 8005db4:	460f      	mov	r7, r1
 8005db6:	4606      	mov	r6, r0
 8005db8:	f7fa fe5c 	bl	8000a74 <__aeabi_d2iz>
 8005dbc:	f7fa fb56 	bl	800046c <__aeabi_i2d>
 8005dc0:	4602      	mov	r2, r0
 8005dc2:	460b      	mov	r3, r1
 8005dc4:	4630      	mov	r0, r6
 8005dc6:	4639      	mov	r1, r7
 8005dc8:	e9cd 2308 	strd	r2, r3, [sp, #32]
 8005dcc:	f7fa fa00 	bl	80001d0 <__aeabi_dsub>
 8005dd0:	2200      	movs	r2, #0
 8005dd2:	4b16      	ldr	r3, [pc, #88]	; (8005e2c <__ieee754_rem_pio2+0x3dc>)
 8005dd4:	f7fa fbb4 	bl	8000540 <__aeabi_dmul>
 8005dd8:	e9cd 010a 	strd	r0, r1, [sp, #40]	; 0x28
 8005ddc:	f10d 0930 	add.w	r9, sp, #48	; 0x30
 8005de0:	f04f 0803 	mov.w	r8, #3
 8005de4:	2600      	movs	r6, #0
 8005de6:	2700      	movs	r7, #0
 8005de8:	4632      	mov	r2, r6
 8005dea:	463b      	mov	r3, r7
 8005dec:	e979 0102 	ldrd	r0, r1, [r9, #-8]!
 8005df0:	f108 3aff 	add.w	sl, r8, #4294967295
 8005df4:	f7fa fe0c 	bl	8000a10 <__aeabi_dcmpeq>
 8005df8:	b9b0      	cbnz	r0, 8005e28 <__ieee754_rem_pio2+0x3d8>
 8005dfa:	4b0d      	ldr	r3, [pc, #52]	; (8005e30 <__ieee754_rem_pio2+0x3e0>)
 8005dfc:	9301      	str	r3, [sp, #4]
 8005dfe:	2302      	movs	r3, #2
 8005e00:	9300      	str	r3, [sp, #0]
 8005e02:	462a      	mov	r2, r5
 8005e04:	4643      	mov	r3, r8
 8005e06:	4621      	mov	r1, r4
 8005e08:	a806      	add	r0, sp, #24
 8005e0a:	f000 f8dd 	bl	8005fc8 <__kernel_rem_pio2>
 8005e0e:	9b04      	ldr	r3, [sp, #16]
 8005e10:	2b00      	cmp	r3, #0
 8005e12:	4605      	mov	r5, r0
 8005e14:	f6bf ae58 	bge.w	8005ac8 <__ieee754_rem_pio2+0x78>
 8005e18:	6863      	ldr	r3, [r4, #4]
 8005e1a:	f103 4300 	add.w	r3, r3, #2147483648	; 0x80000000
 8005e1e:	6063      	str	r3, [r4, #4]
 8005e20:	68e3      	ldr	r3, [r4, #12]
 8005e22:	f103 4300 	add.w	r3, r3, #2147483648	; 0x80000000
 8005e26:	e746      	b.n	8005cb6 <__ieee754_rem_pio2+0x266>
 8005e28:	46d0      	mov	r8, sl
 8005e2a:	e7dd      	b.n	8005de8 <__ieee754_rem_pio2+0x398>
 8005e2c:	41700000 	.word	0x41700000
 8005e30:	08006dac 	.word	0x08006dac
 8005e34:	00000000 	.word	0x00000000

08005e38 <__kernel_cos>:
 8005e38:	e92d 4ff8 	stmdb	sp!, {r3, r4, r5, r6, r7, r8, r9, sl, fp, lr}
 8005e3c:	ec59 8b10 	vmov	r8, r9, d0
 8005e40:	f029 4600 	bic.w	r6, r9, #2147483648	; 0x80000000
 8005e44:	f1b6 5f79 	cmp.w	r6, #1044381696	; 0x3e400000
 8005e48:	ed2d 8b02 	vpush	{d8}
 8005e4c:	eeb0 8a41 	vmov.f32	s16, s2
 8005e50:	eef0 8a61 	vmov.f32	s17, s3
 8005e54:	da07      	bge.n	8005e66 <__kernel_cos+0x2e>
 8005e56:	ee10 0a10 	vmov	r0, s0
 8005e5a:	4649      	mov	r1, r9
 8005e5c:	f7fa fe0a 	bl	8000a74 <__aeabi_d2iz>
 8005e60:	2800      	cmp	r0, #0
 8005e62:	f000 8089 	beq.w	8005f78 <__kernel_cos+0x140>
 8005e66:	4642      	mov	r2, r8
 8005e68:	464b      	mov	r3, r9
 8005e6a:	4640      	mov	r0, r8
 8005e6c:	4649      	mov	r1, r9
 8005e6e:	f7fa fb67 	bl	8000540 <__aeabi_dmul>
 8005e72:	2200      	movs	r2, #0
 8005e74:	4b4e      	ldr	r3, [pc, #312]	; (8005fb0 <__kernel_cos+0x178>)
 8005e76:	4604      	mov	r4, r0
 8005e78:	460d      	mov	r5, r1
 8005e7a:	f7fa fb61 	bl	8000540 <__aeabi_dmul>
 8005e7e:	a340      	add	r3, pc, #256	; (adr r3, 8005f80 <__kernel_cos+0x148>)
 8005e80:	e9d3 2300 	ldrd	r2, r3, [r3]
 8005e84:	4682      	mov	sl, r0
 8005e86:	468b      	mov	fp, r1
 8005e88:	4620      	mov	r0, r4
 8005e8a:	4629      	mov	r1, r5
 8005e8c:	f7fa fb58 	bl	8000540 <__aeabi_dmul>
 8005e90:	a33d      	add	r3, pc, #244	; (adr r3, 8005f88 <__kernel_cos+0x150>)
 8005e92:	e9d3 2300 	ldrd	r2, r3, [r3]
 8005e96:	f7fa f99d 	bl	80001d4 <__adddf3>
 8005e9a:	4622      	mov	r2, r4
 8005e9c:	462b      	mov	r3, r5
 8005e9e:	f7fa fb4f 	bl	8000540 <__aeabi_dmul>
 8005ea2:	a33b      	add	r3, pc, #236	; (adr r3, 8005f90 <__kernel_cos+0x158>)
 8005ea4:	e9d3 2300 	ldrd	r2, r3, [r3]
 8005ea8:	f7fa f992 	bl	80001d0 <__aeabi_dsub>
 8005eac:	4622      	mov	r2, r4
 8005eae:	462b      	mov	r3, r5
 8005eb0:	f7fa fb46 	bl	8000540 <__aeabi_dmul>
 8005eb4:	a338      	add	r3, pc, #224	; (adr r3, 8005f98 <__kernel_cos+0x160>)
 8005eb6:	e9d3 2300 	ldrd	r2, r3, [r3]
 8005eba:	f7fa f98b 	bl	80001d4 <__adddf3>
 8005ebe:	4622      	mov	r2, r4
 8005ec0:	462b      	mov	r3, r5
 8005ec2:	f7fa fb3d 	bl	8000540 <__aeabi_dmul>
 8005ec6:	a336      	add	r3, pc, #216	; (adr r3, 8005fa0 <__kernel_cos+0x168>)
 8005ec8:	e9d3 2300 	ldrd	r2, r3, [r3]
 8005ecc:	f7fa f980 	bl	80001d0 <__aeabi_dsub>
 8005ed0:	4622      	mov	r2, r4
 8005ed2:	462b      	mov	r3, r5
 8005ed4:	f7fa fb34 	bl	8000540 <__aeabi_dmul>
 8005ed8:	a333      	add	r3, pc, #204	; (adr r3, 8005fa8 <__kernel_cos+0x170>)
 8005eda:	e9d3 2300 	ldrd	r2, r3, [r3]
 8005ede:	f7fa f979 	bl	80001d4 <__adddf3>
 8005ee2:	4622      	mov	r2, r4
 8005ee4:	462b      	mov	r3, r5
 8005ee6:	f7fa fb2b 	bl	8000540 <__aeabi_dmul>
 8005eea:	4622      	mov	r2, r4
 8005eec:	462b      	mov	r3, r5
 8005eee:	f7fa fb27 	bl	8000540 <__aeabi_dmul>
 8005ef2:	ec53 2b18 	vmov	r2, r3, d8
 8005ef6:	4604      	mov	r4, r0
 8005ef8:	460d      	mov	r5, r1
 8005efa:	4640      	mov	r0, r8
 8005efc:	4649      	mov	r1, r9
 8005efe:	f7fa fb1f 	bl	8000540 <__aeabi_dmul>
 8005f02:	460b      	mov	r3, r1
 8005f04:	4602      	mov	r2, r0
 8005f06:	4629      	mov	r1, r5
 8005f08:	4620      	mov	r0, r4
 8005f0a:	f7fa f961 	bl	80001d0 <__aeabi_dsub>
 8005f0e:	4b29      	ldr	r3, [pc, #164]	; (8005fb4 <__kernel_cos+0x17c>)
 8005f10:	429e      	cmp	r6, r3
 8005f12:	4680      	mov	r8, r0
 8005f14:	4689      	mov	r9, r1
 8005f16:	dc11      	bgt.n	8005f3c <__kernel_cos+0x104>
 8005f18:	4602      	mov	r2, r0
 8005f1a:	460b      	mov	r3, r1
 8005f1c:	4650      	mov	r0, sl
 8005f1e:	4659      	mov	r1, fp
 8005f20:	f7fa f956 	bl	80001d0 <__aeabi_dsub>
 8005f24:	460b      	mov	r3, r1
 8005f26:	4924      	ldr	r1, [pc, #144]	; (8005fb8 <__kernel_cos+0x180>)
 8005f28:	4602      	mov	r2, r0
 8005f2a:	2000      	movs	r0, #0
 8005f2c:	f7fa f950 	bl	80001d0 <__aeabi_dsub>
 8005f30:	ecbd 8b02 	vpop	{d8}
 8005f34:	ec41 0b10 	vmov	d0, r0, r1
 8005f38:	e8bd 8ff8 	ldmia.w	sp!, {r3, r4, r5, r6, r7, r8, r9, sl, fp, pc}
 8005f3c:	4b1f      	ldr	r3, [pc, #124]	; (8005fbc <__kernel_cos+0x184>)
 8005f3e:	491e      	ldr	r1, [pc, #120]	; (8005fb8 <__kernel_cos+0x180>)
 8005f40:	429e      	cmp	r6, r3
 8005f42:	bfcc      	ite	gt
 8005f44:	4d1e      	ldrgt	r5, [pc, #120]	; (8005fc0 <__kernel_cos+0x188>)
 8005f46:	f5a6 1500 	suble.w	r5, r6, #2097152	; 0x200000
 8005f4a:	2400      	movs	r4, #0
 8005f4c:	4622      	mov	r2, r4
 8005f4e:	462b      	mov	r3, r5
 8005f50:	2000      	movs	r0, #0
 8005f52:	f7fa f93d 	bl	80001d0 <__aeabi_dsub>
 8005f56:	4622      	mov	r2, r4
 8005f58:	4606      	mov	r6, r0
 8005f5a:	460f      	mov	r7, r1
 8005f5c:	462b      	mov	r3, r5
 8005f5e:	4650      	mov	r0, sl
 8005f60:	4659      	mov	r1, fp
 8005f62:	f7fa f935 	bl	80001d0 <__aeabi_dsub>
 8005f66:	4642      	mov	r2, r8
 8005f68:	464b      	mov	r3, r9
 8005f6a:	f7fa f931 	bl	80001d0 <__aeabi_dsub>
 8005f6e:	4602      	mov	r2, r0
 8005f70:	460b      	mov	r3, r1
 8005f72:	4630      	mov	r0, r6
 8005f74:	4639      	mov	r1, r7
 8005f76:	e7d9      	b.n	8005f2c <__kernel_cos+0xf4>
 8005f78:	2000      	movs	r0, #0
 8005f7a:	490f      	ldr	r1, [pc, #60]	; (8005fb8 <__kernel_cos+0x180>)
 8005f7c:	e7d8      	b.n	8005f30 <__kernel_cos+0xf8>
 8005f7e:	bf00      	nop
 8005f80:	be8838d4 	.word	0xbe8838d4
 8005f84:	bda8fae9 	.word	0xbda8fae9
 8005f88:	bdb4b1c4 	.word	0xbdb4b1c4
 8005f8c:	3e21ee9e 	.word	0x3e21ee9e
 8005f90:	809c52ad 	.word	0x809c52ad
 8005f94:	3e927e4f 	.word	0x3e927e4f
 8005f98:	19cb1590 	.word	0x19cb1590
 8005f9c:	3efa01a0 	.word	0x3efa01a0
 8005fa0:	16c15177 	.word	0x16c15177
 8005fa4:	3f56c16c 	.word	0x3f56c16c
 8005fa8:	5555554c 	.word	0x5555554c
 8005fac:	3fa55555 	.word	0x3fa55555
 8005fb0:	3fe00000 	.word	0x3fe00000
 8005fb4:	3fd33332 	.word	0x3fd33332
 8005fb8:	3ff00000 	.word	0x3ff00000
 8005fbc:	3fe90000 	.word	0x3fe90000
 8005fc0:	3fd20000 	.word	0x3fd20000
 8005fc4:	00000000 	.word	0x00000000

08005fc8 <__kernel_rem_pio2>:
 8005fc8:	e92d 4ff0 	stmdb	sp!, {r4, r5, r6, r7, r8, r9, sl, fp, lr}
 8005fcc:	ed2d 8b02 	vpush	{d8}
 8005fd0:	f5ad 7d1b 	sub.w	sp, sp, #620	; 0x26c
 8005fd4:	1ed4      	subs	r4, r2, #3
 8005fd6:	9308      	str	r3, [sp, #32]
 8005fd8:	9101      	str	r1, [sp, #4]
 8005fda:	4bc5      	ldr	r3, [pc, #788]	; (80062f0 <__kernel_rem_pio2+0x328>)
 8005fdc:	99a6      	ldr	r1, [sp, #664]	; 0x298
 8005fde:	9009      	str	r0, [sp, #36]	; 0x24
 8005fe0:	f853 3021 	ldr.w	r3, [r3, r1, lsl #2]
 8005fe4:	9304      	str	r3, [sp, #16]
 8005fe6:	9b08      	ldr	r3, [sp, #32]
 8005fe8:	3b01      	subs	r3, #1
 8005fea:	9307      	str	r3, [sp, #28]
 8005fec:	2318      	movs	r3, #24
 8005fee:	fb94 f4f3 	sdiv	r4, r4, r3
 8005ff2:	f06f 0317 	mvn.w	r3, #23
 8005ff6:	ea24 74e4 	bic.w	r4, r4, r4, asr #31
 8005ffa:	fb04 3303 	mla	r3, r4, r3, r3
 8005ffe:	eb03 0a02 	add.w	sl, r3, r2
 8006002:	9b04      	ldr	r3, [sp, #16]
 8006004:	9a07      	ldr	r2, [sp, #28]
 8006006:	ed9f 8bb6 	vldr	d8, [pc, #728]	; 80062e0 <__kernel_rem_pio2+0x318>
 800600a:	eb03 0802 	add.w	r8, r3, r2
 800600e:	9ba7      	ldr	r3, [sp, #668]	; 0x29c
 8006010:	1aa7      	subs	r7, r4, r2
 8006012:	eb03 0987 	add.w	r9, r3, r7, lsl #2
 8006016:	ae22      	add	r6, sp, #136	; 0x88
 8006018:	2500      	movs	r5, #0
 800601a:	4545      	cmp	r5, r8
 800601c:	dd13      	ble.n	8006046 <__kernel_rem_pio2+0x7e>
 800601e:	ed9f 8bb0 	vldr	d8, [pc, #704]	; 80062e0 <__kernel_rem_pio2+0x318>
 8006022:	f50d 7be4 	add.w	fp, sp, #456	; 0x1c8
 8006026:	2600      	movs	r6, #0
 8006028:	9b04      	ldr	r3, [sp, #16]
 800602a:	429e      	cmp	r6, r3
 800602c:	dc32      	bgt.n	8006094 <__kernel_rem_pio2+0xcc>
 800602e:	9b09      	ldr	r3, [sp, #36]	; 0x24
 8006030:	9302      	str	r3, [sp, #8]
 8006032:	9b08      	ldr	r3, [sp, #32]
 8006034:	199d      	adds	r5, r3, r6
 8006036:	ab22      	add	r3, sp, #136	; 0x88
 8006038:	eb03 03c5 	add.w	r3, r3, r5, lsl #3
 800603c:	9306      	str	r3, [sp, #24]
 800603e:	ec59 8b18 	vmov	r8, r9, d8
 8006042:	2700      	movs	r7, #0
 8006044:	e01f      	b.n	8006086 <__kernel_rem_pio2+0xbe>
 8006046:	42ef      	cmn	r7, r5
 8006048:	d407      	bmi.n	800605a <__kernel_rem_pio2+0x92>
 800604a:	f859 0025 	ldr.w	r0, [r9, r5, lsl #2]
 800604e:	f7fa fa0d 	bl	800046c <__aeabi_i2d>
 8006052:	e8e6 0102 	strd	r0, r1, [r6], #8
 8006056:	3501      	adds	r5, #1
 8006058:	e7df      	b.n	800601a <__kernel_rem_pio2+0x52>
 800605a:	ec51 0b18 	vmov	r0, r1, d8
 800605e:	e7f8      	b.n	8006052 <__kernel_rem_pio2+0x8a>
 8006060:	9906      	ldr	r1, [sp, #24]
 8006062:	9d02      	ldr	r5, [sp, #8]
 8006064:	e971 2302 	ldrd	r2, r3, [r1, #-8]!
 8006068:	9106      	str	r1, [sp, #24]
 800606a:	e8f5 0102 	ldrd	r0, r1, [r5], #8
 800606e:	9502      	str	r5, [sp, #8]
 8006070:	f7fa fa66 	bl	8000540 <__aeabi_dmul>
 8006074:	4602      	mov	r2, r0
 8006076:	460b      	mov	r3, r1
 8006078:	4640      	mov	r0, r8
 800607a:	4649      	mov	r1, r9
 800607c:	f7fa f8aa 	bl	80001d4 <__adddf3>
 8006080:	3701      	adds	r7, #1
 8006082:	4680      	mov	r8, r0
 8006084:	4689      	mov	r9, r1
 8006086:	9b07      	ldr	r3, [sp, #28]
 8006088:	429f      	cmp	r7, r3
 800608a:	dde9      	ble.n	8006060 <__kernel_rem_pio2+0x98>
 800608c:	e8eb 8902 	strd	r8, r9, [fp], #8
 8006090:	3601      	adds	r6, #1
 8006092:	e7c9      	b.n	8006028 <__kernel_rem_pio2+0x60>
 8006094:	9b04      	ldr	r3, [sp, #16]
 8006096:	aa0e      	add	r2, sp, #56	; 0x38
 8006098:	eb02 0383 	add.w	r3, r2, r3, lsl #2
 800609c:	930c      	str	r3, [sp, #48]	; 0x30
 800609e:	9ba7      	ldr	r3, [sp, #668]	; 0x29c
 80060a0:	eb03 0384 	add.w	r3, r3, r4, lsl #2
 80060a4:	9c04      	ldr	r4, [sp, #16]
 80060a6:	930b      	str	r3, [sp, #44]	; 0x2c
 80060a8:	ab9a      	add	r3, sp, #616	; 0x268
 80060aa:	f104 5b00 	add.w	fp, r4, #536870912	; 0x20000000
 80060ae:	eb03 03c4 	add.w	r3, r3, r4, lsl #3
 80060b2:	f10b 3bff 	add.w	fp, fp, #4294967295
 80060b6:	e953 8928 	ldrd	r8, r9, [r3, #-160]	; 0xa0
 80060ba:	ea4f 0bcb 	mov.w	fp, fp, lsl #3
 80060be:	ab9a      	add	r3, sp, #616	; 0x268
 80060c0:	445b      	add	r3, fp
 80060c2:	f1a3 0698 	sub.w	r6, r3, #152	; 0x98
 80060c6:	2500      	movs	r5, #0
 80060c8:	1b63      	subs	r3, r4, r5
 80060ca:	2b00      	cmp	r3, #0
 80060cc:	dc78      	bgt.n	80061c0 <__kernel_rem_pio2+0x1f8>
 80060ce:	4650      	mov	r0, sl
 80060d0:	ec49 8b10 	vmov	d0, r8, r9
 80060d4:	f000 fc00 	bl	80068d8 <scalbn>
 80060d8:	ec57 6b10 	vmov	r6, r7, d0
 80060dc:	2200      	movs	r2, #0
 80060de:	f04f 537f 	mov.w	r3, #1069547520	; 0x3fc00000
 80060e2:	ee10 0a10 	vmov	r0, s0
 80060e6:	4639      	mov	r1, r7
 80060e8:	f7fa fa2a 	bl	8000540 <__aeabi_dmul>
 80060ec:	ec41 0b10 	vmov	d0, r0, r1
 80060f0:	f000 fb6e 	bl	80067d0 <floor>
 80060f4:	2200      	movs	r2, #0
 80060f6:	ec51 0b10 	vmov	r0, r1, d0
 80060fa:	4b7e      	ldr	r3, [pc, #504]	; (80062f4 <__kernel_rem_pio2+0x32c>)
 80060fc:	f7fa fa20 	bl	8000540 <__aeabi_dmul>
 8006100:	4602      	mov	r2, r0
 8006102:	460b      	mov	r3, r1
 8006104:	4630      	mov	r0, r6
 8006106:	4639      	mov	r1, r7
 8006108:	f7fa f862 	bl	80001d0 <__aeabi_dsub>
 800610c:	460f      	mov	r7, r1
 800610e:	4606      	mov	r6, r0
 8006110:	f7fa fcb0 	bl	8000a74 <__aeabi_d2iz>
 8006114:	9006      	str	r0, [sp, #24]
 8006116:	f7fa f9a9 	bl	800046c <__aeabi_i2d>
 800611a:	4602      	mov	r2, r0
 800611c:	460b      	mov	r3, r1
 800611e:	4630      	mov	r0, r6
 8006120:	4639      	mov	r1, r7
 8006122:	f7fa f855 	bl	80001d0 <__aeabi_dsub>
 8006126:	f1ba 0f00 	cmp.w	sl, #0
 800612a:	4606      	mov	r6, r0
 800612c:	460f      	mov	r7, r1
 800612e:	dd6c      	ble.n	800620a <__kernel_rem_pio2+0x242>
 8006130:	1e62      	subs	r2, r4, #1
 8006132:	ab0e      	add	r3, sp, #56	; 0x38
 8006134:	f1ca 0118 	rsb	r1, sl, #24
 8006138:	f853 0022 	ldr.w	r0, [r3, r2, lsl #2]
 800613c:	9d06      	ldr	r5, [sp, #24]
 800613e:	fa40 f301 	asr.w	r3, r0, r1
 8006142:	441d      	add	r5, r3
 8006144:	408b      	lsls	r3, r1
 8006146:	1ac0      	subs	r0, r0, r3
 8006148:	ab0e      	add	r3, sp, #56	; 0x38
 800614a:	9506      	str	r5, [sp, #24]
 800614c:	f843 0022 	str.w	r0, [r3, r2, lsl #2]
 8006150:	f1ca 0317 	rsb	r3, sl, #23
 8006154:	fa40 f303 	asr.w	r3, r0, r3
 8006158:	9302      	str	r3, [sp, #8]
 800615a:	9b02      	ldr	r3, [sp, #8]
 800615c:	2b00      	cmp	r3, #0
 800615e:	dd62      	ble.n	8006226 <__kernel_rem_pio2+0x25e>
 8006160:	9b06      	ldr	r3, [sp, #24]
 8006162:	2200      	movs	r2, #0
 8006164:	3301      	adds	r3, #1
 8006166:	9306      	str	r3, [sp, #24]
 8006168:	4615      	mov	r5, r2
 800616a:	f06f 417f 	mvn.w	r1, #4278190080	; 0xff000000
 800616e:	4294      	cmp	r4, r2
 8006170:	f300 8095 	bgt.w	800629e <__kernel_rem_pio2+0x2d6>
 8006174:	f1ba 0f00 	cmp.w	sl, #0
 8006178:	dd07      	ble.n	800618a <__kernel_rem_pio2+0x1c2>
 800617a:	f1ba 0f01 	cmp.w	sl, #1
 800617e:	f000 80a2 	beq.w	80062c6 <__kernel_rem_pio2+0x2fe>
 8006182:	f1ba 0f02 	cmp.w	sl, #2
 8006186:	f000 80c1 	beq.w	800630c <__kernel_rem_pio2+0x344>
 800618a:	9b02      	ldr	r3, [sp, #8]
 800618c:	2b02      	cmp	r3, #2
 800618e:	d14a      	bne.n	8006226 <__kernel_rem_pio2+0x25e>
 8006190:	4632      	mov	r2, r6
 8006192:	463b      	mov	r3, r7
 8006194:	2000      	movs	r0, #0
 8006196:	4958      	ldr	r1, [pc, #352]	; (80062f8 <__kernel_rem_pio2+0x330>)
 8006198:	f7fa f81a 	bl	80001d0 <__aeabi_dsub>
 800619c:	4606      	mov	r6, r0
 800619e:	460f      	mov	r7, r1
 80061a0:	2d00      	cmp	r5, #0
 80061a2:	d040      	beq.n	8006226 <__kernel_rem_pio2+0x25e>
 80061a4:	4650      	mov	r0, sl
 80061a6:	ed9f 0b50 	vldr	d0, [pc, #320]	; 80062e8 <__kernel_rem_pio2+0x320>
 80061aa:	f000 fb95 	bl	80068d8 <scalbn>
 80061ae:	4630      	mov	r0, r6
 80061b0:	4639      	mov	r1, r7
 80061b2:	ec53 2b10 	vmov	r2, r3, d0
 80061b6:	f7fa f80b 	bl	80001d0 <__aeabi_dsub>
 80061ba:	4606      	mov	r6, r0
 80061bc:	460f      	mov	r7, r1
 80061be:	e032      	b.n	8006226 <__kernel_rem_pio2+0x25e>
 80061c0:	2200      	movs	r2, #0
 80061c2:	4b4e      	ldr	r3, [pc, #312]	; (80062fc <__kernel_rem_pio2+0x334>)
 80061c4:	4640      	mov	r0, r8
 80061c6:	4649      	mov	r1, r9
 80061c8:	f7fa f9ba 	bl	8000540 <__aeabi_dmul>
 80061cc:	f7fa fc52 	bl	8000a74 <__aeabi_d2iz>
 80061d0:	f7fa f94c 	bl	800046c <__aeabi_i2d>
 80061d4:	2200      	movs	r2, #0
 80061d6:	4b4a      	ldr	r3, [pc, #296]	; (8006300 <__kernel_rem_pio2+0x338>)
 80061d8:	e9cd 0102 	strd	r0, r1, [sp, #8]
 80061dc:	f7fa f9b0 	bl	8000540 <__aeabi_dmul>
 80061e0:	4602      	mov	r2, r0
 80061e2:	460b      	mov	r3, r1
 80061e4:	4640      	mov	r0, r8
 80061e6:	4649      	mov	r1, r9
 80061e8:	f7f9 fff2 	bl	80001d0 <__aeabi_dsub>
 80061ec:	f7fa fc42 	bl	8000a74 <__aeabi_d2iz>
 80061f0:	ab0e      	add	r3, sp, #56	; 0x38
 80061f2:	f843 0025 	str.w	r0, [r3, r5, lsl #2]
 80061f6:	e976 2302 	ldrd	r2, r3, [r6, #-8]!
 80061fa:	e9dd 0102 	ldrd	r0, r1, [sp, #8]
 80061fe:	f7f9 ffe9 	bl	80001d4 <__adddf3>
 8006202:	3501      	adds	r5, #1
 8006204:	4680      	mov	r8, r0
 8006206:	4689      	mov	r9, r1
 8006208:	e75e      	b.n	80060c8 <__kernel_rem_pio2+0x100>
 800620a:	d105      	bne.n	8006218 <__kernel_rem_pio2+0x250>
 800620c:	1e63      	subs	r3, r4, #1
 800620e:	aa0e      	add	r2, sp, #56	; 0x38
 8006210:	f852 0023 	ldr.w	r0, [r2, r3, lsl #2]
 8006214:	15c3      	asrs	r3, r0, #23
 8006216:	e79f      	b.n	8006158 <__kernel_rem_pio2+0x190>
 8006218:	2200      	movs	r2, #0
 800621a:	4b3a      	ldr	r3, [pc, #232]	; (8006304 <__kernel_rem_pio2+0x33c>)
 800621c:	f7fa fc16 	bl	8000a4c <__aeabi_dcmpge>
 8006220:	2800      	cmp	r0, #0
 8006222:	d139      	bne.n	8006298 <__kernel_rem_pio2+0x2d0>
 8006224:	9002      	str	r0, [sp, #8]
 8006226:	2200      	movs	r2, #0
 8006228:	2300      	movs	r3, #0
 800622a:	4630      	mov	r0, r6
 800622c:	4639      	mov	r1, r7
 800622e:	f7fa fbef 	bl	8000a10 <__aeabi_dcmpeq>
 8006232:	2800      	cmp	r0, #0
 8006234:	f000 80c7 	beq.w	80063c6 <__kernel_rem_pio2+0x3fe>
 8006238:	1e65      	subs	r5, r4, #1
 800623a:	462b      	mov	r3, r5
 800623c:	2200      	movs	r2, #0
 800623e:	9904      	ldr	r1, [sp, #16]
 8006240:	428b      	cmp	r3, r1
 8006242:	da6a      	bge.n	800631a <__kernel_rem_pio2+0x352>
 8006244:	2a00      	cmp	r2, #0
 8006246:	f000 8088 	beq.w	800635a <__kernel_rem_pio2+0x392>
 800624a:	ab0e      	add	r3, sp, #56	; 0x38
 800624c:	f1aa 0a18 	sub.w	sl, sl, #24
 8006250:	f853 3025 	ldr.w	r3, [r3, r5, lsl #2]
 8006254:	2b00      	cmp	r3, #0
 8006256:	f000 80b4 	beq.w	80063c2 <__kernel_rem_pio2+0x3fa>
 800625a:	4650      	mov	r0, sl
 800625c:	ed9f 0b22 	vldr	d0, [pc, #136]	; 80062e8 <__kernel_rem_pio2+0x320>
 8006260:	f000 fb3a 	bl	80068d8 <scalbn>
 8006264:	00ec      	lsls	r4, r5, #3
 8006266:	ab72      	add	r3, sp, #456	; 0x1c8
 8006268:	191e      	adds	r6, r3, r4
 800626a:	ec59 8b10 	vmov	r8, r9, d0
 800626e:	f106 0a08 	add.w	sl, r6, #8
 8006272:	462f      	mov	r7, r5
 8006274:	2f00      	cmp	r7, #0
 8006276:	f280 80df 	bge.w	8006438 <__kernel_rem_pio2+0x470>
 800627a:	ed9f 8b19 	vldr	d8, [pc, #100]	; 80062e0 <__kernel_rem_pio2+0x318>
 800627e:	f04f 0a00 	mov.w	sl, #0
 8006282:	eba5 030a 	sub.w	r3, r5, sl
 8006286:	2b00      	cmp	r3, #0
 8006288:	f2c0 810a 	blt.w	80064a0 <__kernel_rem_pio2+0x4d8>
 800628c:	f8df b078 	ldr.w	fp, [pc, #120]	; 8006308 <__kernel_rem_pio2+0x340>
 8006290:	ec59 8b18 	vmov	r8, r9, d8
 8006294:	2700      	movs	r7, #0
 8006296:	e0f5      	b.n	8006484 <__kernel_rem_pio2+0x4bc>
 8006298:	2302      	movs	r3, #2
 800629a:	9302      	str	r3, [sp, #8]
 800629c:	e760      	b.n	8006160 <__kernel_rem_pio2+0x198>
 800629e:	ab0e      	add	r3, sp, #56	; 0x38
 80062a0:	f853 3022 	ldr.w	r3, [r3, r2, lsl #2]
 80062a4:	b94d      	cbnz	r5, 80062ba <__kernel_rem_pio2+0x2f2>
 80062a6:	b12b      	cbz	r3, 80062b4 <__kernel_rem_pio2+0x2ec>
 80062a8:	a80e      	add	r0, sp, #56	; 0x38
 80062aa:	f1c3 7380 	rsb	r3, r3, #16777216	; 0x1000000
 80062ae:	f840 3022 	str.w	r3, [r0, r2, lsl #2]
 80062b2:	2301      	movs	r3, #1
 80062b4:	3201      	adds	r2, #1
 80062b6:	461d      	mov	r5, r3
 80062b8:	e759      	b.n	800616e <__kernel_rem_pio2+0x1a6>
 80062ba:	a80e      	add	r0, sp, #56	; 0x38
 80062bc:	1acb      	subs	r3, r1, r3
 80062be:	f840 3022 	str.w	r3, [r0, r2, lsl #2]
 80062c2:	462b      	mov	r3, r5
 80062c4:	e7f6      	b.n	80062b4 <__kernel_rem_pio2+0x2ec>
 80062c6:	1e62      	subs	r2, r4, #1
 80062c8:	ab0e      	add	r3, sp, #56	; 0x38
 80062ca:	f853 3022 	ldr.w	r3, [r3, r2, lsl #2]
 80062ce:	f3c3 0316 	ubfx	r3, r3, #0, #23
 80062d2:	a90e      	add	r1, sp, #56	; 0x38
 80062d4:	f841 3022 	str.w	r3, [r1, r2, lsl #2]
 80062d8:	e757      	b.n	800618a <__kernel_rem_pio2+0x1c2>
 80062da:	bf00      	nop
 80062dc:	f3af 8000 	nop.w
	...
 80062ec:	3ff00000 	.word	0x3ff00000
 80062f0:	08006ef8 	.word	0x08006ef8
 80062f4:	40200000 	.word	0x40200000
 80062f8:	3ff00000 	.word	0x3ff00000
 80062fc:	3e700000 	.word	0x3e700000
 8006300:	41700000 	.word	0x41700000
 8006304:	3fe00000 	.word	0x3fe00000
 8006308:	08006eb8 	.word	0x08006eb8
 800630c:	1e62      	subs	r2, r4, #1
 800630e:	ab0e      	add	r3, sp, #56	; 0x38
 8006310:	f853 3022 	ldr.w	r3, [r3, r2, lsl #2]
 8006314:	f3c3 0315 	ubfx	r3, r3, #0, #22
 8006318:	e7db      	b.n	80062d2 <__kernel_rem_pio2+0x30a>
 800631a:	a90e      	add	r1, sp, #56	; 0x38
 800631c:	f851 1023 	ldr.w	r1, [r1, r3, lsl #2]
 8006320:	3b01      	subs	r3, #1
 8006322:	430a      	orrs	r2, r1
 8006324:	e78b      	b.n	800623e <__kernel_rem_pio2+0x276>
 8006326:	3301      	adds	r3, #1
 8006328:	f852 1d04 	ldr.w	r1, [r2, #-4]!
 800632c:	2900      	cmp	r1, #0
 800632e:	d0fa      	beq.n	8006326 <__kernel_rem_pio2+0x35e>
 8006330:	9a08      	ldr	r2, [sp, #32]
 8006332:	4422      	add	r2, r4
 8006334:	00d2      	lsls	r2, r2, #3
 8006336:	a922      	add	r1, sp, #136	; 0x88
 8006338:	18e3      	adds	r3, r4, r3
 800633a:	9206      	str	r2, [sp, #24]
 800633c:	440a      	add	r2, r1
 800633e:	9302      	str	r3, [sp, #8]
 8006340:	f10b 0108 	add.w	r1, fp, #8
 8006344:	f102 0308 	add.w	r3, r2, #8
 8006348:	1c66      	adds	r6, r4, #1
 800634a:	910a      	str	r1, [sp, #40]	; 0x28
 800634c:	2500      	movs	r5, #0
 800634e:	930d      	str	r3, [sp, #52]	; 0x34
 8006350:	9b02      	ldr	r3, [sp, #8]
 8006352:	42b3      	cmp	r3, r6
 8006354:	da04      	bge.n	8006360 <__kernel_rem_pio2+0x398>
 8006356:	461c      	mov	r4, r3
 8006358:	e6a6      	b.n	80060a8 <__kernel_rem_pio2+0xe0>
 800635a:	9a0c      	ldr	r2, [sp, #48]	; 0x30
 800635c:	2301      	movs	r3, #1
 800635e:	e7e3      	b.n	8006328 <__kernel_rem_pio2+0x360>
 8006360:	9b06      	ldr	r3, [sp, #24]
 8006362:	18ef      	adds	r7, r5, r3
 8006364:	ab22      	add	r3, sp, #136	; 0x88
 8006366:	441f      	add	r7, r3
 8006368:	9b0b      	ldr	r3, [sp, #44]	; 0x2c
 800636a:	f853 0026 	ldr.w	r0, [r3, r6, lsl #2]
 800636e:	f7fa f87d 	bl	800046c <__aeabi_i2d>
 8006372:	9b09      	ldr	r3, [sp, #36]	; 0x24
 8006374:	461c      	mov	r4, r3
 8006376:	9b0d      	ldr	r3, [sp, #52]	; 0x34
 8006378:	e9c7 0100 	strd	r0, r1, [r7]
 800637c:	eb03 0b05 	add.w	fp, r3, r5
 8006380:	2700      	movs	r7, #0
 8006382:	f04f 0800 	mov.w	r8, #0
 8006386:	f04f 0900 	mov.w	r9, #0
 800638a:	9b07      	ldr	r3, [sp, #28]
 800638c:	429f      	cmp	r7, r3
 800638e:	dd08      	ble.n	80063a2 <__kernel_rem_pio2+0x3da>
 8006390:	9b0a      	ldr	r3, [sp, #40]	; 0x28
 8006392:	aa72      	add	r2, sp, #456	; 0x1c8
 8006394:	18eb      	adds	r3, r5, r3
 8006396:	4413      	add	r3, r2
 8006398:	e9c3 8902 	strd	r8, r9, [r3, #8]
 800639c:	3601      	adds	r6, #1
 800639e:	3508      	adds	r5, #8
 80063a0:	e7d6      	b.n	8006350 <__kernel_rem_pio2+0x388>
 80063a2:	e97b 2302 	ldrd	r2, r3, [fp, #-8]!
 80063a6:	e8f4 0102 	ldrd	r0, r1, [r4], #8
 80063aa:	f7fa f8c9 	bl	8000540 <__aeabi_dmul>
 80063ae:	4602      	mov	r2, r0
 80063b0:	460b      	mov	r3, r1
 80063b2:	4640      	mov	r0, r8
 80063b4:	4649      	mov	r1, r9
 80063b6:	f7f9 ff0d 	bl	80001d4 <__adddf3>
 80063ba:	3701      	adds	r7, #1
 80063bc:	4680      	mov	r8, r0
 80063be:	4689      	mov	r9, r1
 80063c0:	e7e3      	b.n	800638a <__kernel_rem_pio2+0x3c2>
 80063c2:	3d01      	subs	r5, #1
 80063c4:	e741      	b.n	800624a <__kernel_rem_pio2+0x282>
 80063c6:	f1ca 0000 	rsb	r0, sl, #0
 80063ca:	ec47 6b10 	vmov	d0, r6, r7
 80063ce:	f000 fa83 	bl	80068d8 <scalbn>
 80063d2:	ec57 6b10 	vmov	r6, r7, d0
 80063d6:	2200      	movs	r2, #0
 80063d8:	4b99      	ldr	r3, [pc, #612]	; (8006640 <__kernel_rem_pio2+0x678>)
 80063da:	ee10 0a10 	vmov	r0, s0
 80063de:	4639      	mov	r1, r7
 80063e0:	f7fa fb34 	bl	8000a4c <__aeabi_dcmpge>
 80063e4:	b1f8      	cbz	r0, 8006426 <__kernel_rem_pio2+0x45e>
 80063e6:	2200      	movs	r2, #0
 80063e8:	4b96      	ldr	r3, [pc, #600]	; (8006644 <__kernel_rem_pio2+0x67c>)
 80063ea:	4630      	mov	r0, r6
 80063ec:	4639      	mov	r1, r7
 80063ee:	f7fa f8a7 	bl	8000540 <__aeabi_dmul>
 80063f2:	f7fa fb3f 	bl	8000a74 <__aeabi_d2iz>
 80063f6:	4680      	mov	r8, r0
 80063f8:	f7fa f838 	bl	800046c <__aeabi_i2d>
 80063fc:	2200      	movs	r2, #0
 80063fe:	4b90      	ldr	r3, [pc, #576]	; (8006640 <__kernel_rem_pio2+0x678>)
 8006400:	f7fa f89e 	bl	8000540 <__aeabi_dmul>
 8006404:	460b      	mov	r3, r1
 8006406:	4602      	mov	r2, r0
 8006408:	4639      	mov	r1, r7
 800640a:	4630      	mov	r0, r6
 800640c:	f7f9 fee0 	bl	80001d0 <__aeabi_dsub>
 8006410:	f7fa fb30 	bl	8000a74 <__aeabi_d2iz>
 8006414:	1c65      	adds	r5, r4, #1
 8006416:	ab0e      	add	r3, sp, #56	; 0x38
 8006418:	f10a 0a18 	add.w	sl, sl, #24
 800641c:	f843 0024 	str.w	r0, [r3, r4, lsl #2]
 8006420:	f843 8025 	str.w	r8, [r3, r5, lsl #2]
 8006424:	e719      	b.n	800625a <__kernel_rem_pio2+0x292>
 8006426:	4630      	mov	r0, r6
 8006428:	4639      	mov	r1, r7
 800642a:	f7fa fb23 	bl	8000a74 <__aeabi_d2iz>
 800642e:	ab0e      	add	r3, sp, #56	; 0x38
 8006430:	4625      	mov	r5, r4
 8006432:	f843 0024 	str.w	r0, [r3, r4, lsl #2]
 8006436:	e710      	b.n	800625a <__kernel_rem_pio2+0x292>
 8006438:	ab0e      	add	r3, sp, #56	; 0x38
 800643a:	f853 0027 	ldr.w	r0, [r3, r7, lsl #2]
 800643e:	f7fa f815 	bl	800046c <__aeabi_i2d>
 8006442:	4642      	mov	r2, r8
 8006444:	464b      	mov	r3, r9
 8006446:	f7fa f87b 	bl	8000540 <__aeabi_dmul>
 800644a:	2200      	movs	r2, #0
 800644c:	e96a 0102 	strd	r0, r1, [sl, #-8]!
 8006450:	4b7c      	ldr	r3, [pc, #496]	; (8006644 <__kernel_rem_pio2+0x67c>)
 8006452:	4640      	mov	r0, r8
 8006454:	4649      	mov	r1, r9
 8006456:	f7fa f873 	bl	8000540 <__aeabi_dmul>
 800645a:	3f01      	subs	r7, #1
 800645c:	4680      	mov	r8, r0
 800645e:	4689      	mov	r9, r1
 8006460:	e708      	b.n	8006274 <__kernel_rem_pio2+0x2ac>
 8006462:	eb06 03c7 	add.w	r3, r6, r7, lsl #3
 8006466:	e9d3 2300 	ldrd	r2, r3, [r3]
 800646a:	e8fb 0102 	ldrd	r0, r1, [fp], #8
 800646e:	f7fa f867 	bl	8000540 <__aeabi_dmul>
 8006472:	4602      	mov	r2, r0
 8006474:	460b      	mov	r3, r1
 8006476:	4640      	mov	r0, r8
 8006478:	4649      	mov	r1, r9
 800647a:	f7f9 feab 	bl	80001d4 <__adddf3>
 800647e:	3701      	adds	r7, #1
 8006480:	4680      	mov	r8, r0
 8006482:	4689      	mov	r9, r1
 8006484:	9b04      	ldr	r3, [sp, #16]
 8006486:	429f      	cmp	r7, r3
 8006488:	dc01      	bgt.n	800648e <__kernel_rem_pio2+0x4c6>
 800648a:	45ba      	cmp	sl, r7
 800648c:	dae9      	bge.n	8006462 <__kernel_rem_pio2+0x49a>
 800648e:	ab4a      	add	r3, sp, #296	; 0x128
 8006490:	eb03 03ca 	add.w	r3, r3, sl, lsl #3
 8006494:	e9c3 8900 	strd	r8, r9, [r3]
 8006498:	f10a 0a01 	add.w	sl, sl, #1
 800649c:	3e08      	subs	r6, #8
 800649e:	e6f0      	b.n	8006282 <__kernel_rem_pio2+0x2ba>
 80064a0:	9ba6      	ldr	r3, [sp, #664]	; 0x298
 80064a2:	2b03      	cmp	r3, #3
 80064a4:	d85b      	bhi.n	800655e <__kernel_rem_pio2+0x596>
 80064a6:	e8df f003 	tbb	[pc, r3]
 80064aa:	264a      	.short	0x264a
 80064ac:	0226      	.short	0x0226
 80064ae:	ab9a      	add	r3, sp, #616	; 0x268
 80064b0:	441c      	add	r4, r3
 80064b2:	f5a4 749c 	sub.w	r4, r4, #312	; 0x138
 80064b6:	46a2      	mov	sl, r4
 80064b8:	46ab      	mov	fp, r5
 80064ba:	f1bb 0f00 	cmp.w	fp, #0
 80064be:	dc6c      	bgt.n	800659a <__kernel_rem_pio2+0x5d2>
 80064c0:	46a2      	mov	sl, r4
 80064c2:	46ab      	mov	fp, r5
 80064c4:	f1bb 0f01 	cmp.w	fp, #1
 80064c8:	f300 8086 	bgt.w	80065d8 <__kernel_rem_pio2+0x610>
 80064cc:	2000      	movs	r0, #0
 80064ce:	2100      	movs	r1, #0
 80064d0:	2d01      	cmp	r5, #1
 80064d2:	f300 80a0 	bgt.w	8006616 <__kernel_rem_pio2+0x64e>
 80064d6:	9b02      	ldr	r3, [sp, #8]
 80064d8:	e9dd 784a 	ldrd	r7, r8, [sp, #296]	; 0x128
 80064dc:	e9dd 564c 	ldrd	r5, r6, [sp, #304]	; 0x130
 80064e0:	2b00      	cmp	r3, #0
 80064e2:	f040 809e 	bne.w	8006622 <__kernel_rem_pio2+0x65a>
 80064e6:	9b01      	ldr	r3, [sp, #4]
 80064e8:	e9c3 7800 	strd	r7, r8, [r3]
 80064ec:	e9c3 5602 	strd	r5, r6, [r3, #8]
 80064f0:	e9c3 0104 	strd	r0, r1, [r3, #16]
 80064f4:	e033      	b.n	800655e <__kernel_rem_pio2+0x596>
 80064f6:	3408      	adds	r4, #8
 80064f8:	ab4a      	add	r3, sp, #296	; 0x128
 80064fa:	441c      	add	r4, r3
 80064fc:	462e      	mov	r6, r5
 80064fe:	2000      	movs	r0, #0
 8006500:	2100      	movs	r1, #0
 8006502:	2e00      	cmp	r6, #0
 8006504:	da3a      	bge.n	800657c <__kernel_rem_pio2+0x5b4>
 8006506:	9b02      	ldr	r3, [sp, #8]
 8006508:	2b00      	cmp	r3, #0
 800650a:	d03d      	beq.n	8006588 <__kernel_rem_pio2+0x5c0>
 800650c:	4602      	mov	r2, r0
 800650e:	f101 4300 	add.w	r3, r1, #2147483648	; 0x80000000
 8006512:	9c01      	ldr	r4, [sp, #4]
 8006514:	e9c4 2300 	strd	r2, r3, [r4]
 8006518:	4602      	mov	r2, r0
 800651a:	460b      	mov	r3, r1
 800651c:	e9dd 014a 	ldrd	r0, r1, [sp, #296]	; 0x128
 8006520:	f7f9 fe56 	bl	80001d0 <__aeabi_dsub>
 8006524:	ae4c      	add	r6, sp, #304	; 0x130
 8006526:	2401      	movs	r4, #1
 8006528:	42a5      	cmp	r5, r4
 800652a:	da30      	bge.n	800658e <__kernel_rem_pio2+0x5c6>
 800652c:	9b02      	ldr	r3, [sp, #8]
 800652e:	b113      	cbz	r3, 8006536 <__kernel_rem_pio2+0x56e>
 8006530:	f101 4300 	add.w	r3, r1, #2147483648	; 0x80000000
 8006534:	4619      	mov	r1, r3
 8006536:	9b01      	ldr	r3, [sp, #4]
 8006538:	e9c3 0102 	strd	r0, r1, [r3, #8]
 800653c:	e00f      	b.n	800655e <__kernel_rem_pio2+0x596>
 800653e:	ab9a      	add	r3, sp, #616	; 0x268
 8006540:	441c      	add	r4, r3
 8006542:	f5a4 749c 	sub.w	r4, r4, #312	; 0x138
 8006546:	2000      	movs	r0, #0
 8006548:	2100      	movs	r1, #0
 800654a:	2d00      	cmp	r5, #0
 800654c:	da10      	bge.n	8006570 <__kernel_rem_pio2+0x5a8>
 800654e:	9b02      	ldr	r3, [sp, #8]
 8006550:	b113      	cbz	r3, 8006558 <__kernel_rem_pio2+0x590>
 8006552:	f101 4300 	add.w	r3, r1, #2147483648	; 0x80000000
 8006556:	4619      	mov	r1, r3
 8006558:	9b01      	ldr	r3, [sp, #4]
 800655a:	e9c3 0100 	strd	r0, r1, [r3]
 800655e:	9b06      	ldr	r3, [sp, #24]
 8006560:	f003 0007 	and.w	r0, r3, #7
 8006564:	f50d 7d1b 	add.w	sp, sp, #620	; 0x26c
 8006568:	ecbd 8b02 	vpop	{d8}
 800656c:	e8bd 8ff0 	ldmia.w	sp!, {r4, r5, r6, r7, r8, r9, sl, fp, pc}
 8006570:	e974 2302 	ldrd	r2, r3, [r4, #-8]!
 8006574:	f7f9 fe2e 	bl	80001d4 <__adddf3>
 8006578:	3d01      	subs	r5, #1
 800657a:	e7e6      	b.n	800654a <__kernel_rem_pio2+0x582>
 800657c:	e974 2302 	ldrd	r2, r3, [r4, #-8]!
 8006580:	f7f9 fe28 	bl	80001d4 <__adddf3>
 8006584:	3e01      	subs	r6, #1
 8006586:	e7bc      	b.n	8006502 <__kernel_rem_pio2+0x53a>
 8006588:	4602      	mov	r2, r0
 800658a:	460b      	mov	r3, r1
 800658c:	e7c1      	b.n	8006512 <__kernel_rem_pio2+0x54a>
 800658e:	e8f6 2302 	ldrd	r2, r3, [r6], #8
 8006592:	f7f9 fe1f 	bl	80001d4 <__adddf3>
 8006596:	3401      	adds	r4, #1
 8006598:	e7c6      	b.n	8006528 <__kernel_rem_pio2+0x560>
 800659a:	e95a 8904 	ldrd	r8, r9, [sl, #-16]
 800659e:	ed3a 7b02 	vldmdb	sl!, {d7}
 80065a2:	4640      	mov	r0, r8
 80065a4:	ec53 2b17 	vmov	r2, r3, d7
 80065a8:	4649      	mov	r1, r9
 80065aa:	ed8d 7b04 	vstr	d7, [sp, #16]
 80065ae:	f7f9 fe11 	bl	80001d4 <__adddf3>
 80065b2:	4602      	mov	r2, r0
 80065b4:	460b      	mov	r3, r1
 80065b6:	4606      	mov	r6, r0
 80065b8:	460f      	mov	r7, r1
 80065ba:	4640      	mov	r0, r8
 80065bc:	4649      	mov	r1, r9
 80065be:	f7f9 fe07 	bl	80001d0 <__aeabi_dsub>
 80065c2:	e9dd 2304 	ldrd	r2, r3, [sp, #16]
 80065c6:	f7f9 fe05 	bl	80001d4 <__adddf3>
 80065ca:	f10b 3bff 	add.w	fp, fp, #4294967295
 80065ce:	e9ca 0100 	strd	r0, r1, [sl]
 80065d2:	e94a 6702 	strd	r6, r7, [sl, #-8]
 80065d6:	e770      	b.n	80064ba <__kernel_rem_pio2+0x4f2>
 80065d8:	e95a 6704 	ldrd	r6, r7, [sl, #-16]
 80065dc:	ed3a 7b02 	vldmdb	sl!, {d7}
 80065e0:	4630      	mov	r0, r6
 80065e2:	ec53 2b17 	vmov	r2, r3, d7
 80065e6:	4639      	mov	r1, r7
 80065e8:	ed8d 7b04 	vstr	d7, [sp, #16]
 80065ec:	f7f9 fdf2 	bl	80001d4 <__adddf3>
 80065f0:	4602      	mov	r2, r0
 80065f2:	460b      	mov	r3, r1
 80065f4:	4680      	mov	r8, r0
 80065f6:	4689      	mov	r9, r1
 80065f8:	4630      	mov	r0, r6
 80065fa:	4639      	mov	r1, r7
 80065fc:	f7f9 fde8 	bl	80001d0 <__aeabi_dsub>
 8006600:	e9dd 2304 	ldrd	r2, r3, [sp, #16]
 8006604:	f7f9 fde6 	bl	80001d4 <__adddf3>
 8006608:	f10b 3bff 	add.w	fp, fp, #4294967295
 800660c:	e9ca 0100 	strd	r0, r1, [sl]
 8006610:	e94a 8902 	strd	r8, r9, [sl, #-8]
 8006614:	e756      	b.n	80064c4 <__kernel_rem_pio2+0x4fc>
 8006616:	e974 2302 	ldrd	r2, r3, [r4, #-8]!
 800661a:	f7f9 fddb 	bl	80001d4 <__adddf3>
 800661e:	3d01      	subs	r5, #1
 8006620:	e756      	b.n	80064d0 <__kernel_rem_pio2+0x508>
 8006622:	9b01      	ldr	r3, [sp, #4]
 8006624:	9a01      	ldr	r2, [sp, #4]
 8006626:	601f      	str	r7, [r3, #0]
 8006628:	f108 4400 	add.w	r4, r8, #2147483648	; 0x80000000
 800662c:	605c      	str	r4, [r3, #4]
 800662e:	609d      	str	r5, [r3, #8]
 8006630:	f106 4300 	add.w	r3, r6, #2147483648	; 0x80000000
 8006634:	60d3      	str	r3, [r2, #12]
 8006636:	f101 4300 	add.w	r3, r1, #2147483648	; 0x80000000
 800663a:	6110      	str	r0, [r2, #16]
 800663c:	6153      	str	r3, [r2, #20]
 800663e:	e78e      	b.n	800655e <__kernel_rem_pio2+0x596>
 8006640:	41700000 	.word	0x41700000
 8006644:	3e700000 	.word	0x3e700000

08006648 <__kernel_sin>:
 8006648:	e92d 4ff0 	stmdb	sp!, {r4, r5, r6, r7, r8, r9, sl, fp, lr}
 800664c:	ec55 4b10 	vmov	r4, r5, d0
 8006650:	b085      	sub	sp, #20
 8006652:	f025 4300 	bic.w	r3, r5, #2147483648	; 0x80000000
 8006656:	f1b3 5f79 	cmp.w	r3, #1044381696	; 0x3e400000
 800665a:	ed8d 1b00 	vstr	d1, [sp]
 800665e:	9002      	str	r0, [sp, #8]
 8006660:	da06      	bge.n	8006670 <__kernel_sin+0x28>
 8006662:	ee10 0a10 	vmov	r0, s0
 8006666:	4629      	mov	r1, r5
 8006668:	f7fa fa04 	bl	8000a74 <__aeabi_d2iz>
 800666c:	2800      	cmp	r0, #0
 800666e:	d051      	beq.n	8006714 <__kernel_sin+0xcc>
 8006670:	4622      	mov	r2, r4
 8006672:	462b      	mov	r3, r5
 8006674:	4620      	mov	r0, r4
 8006676:	4629      	mov	r1, r5
 8006678:	f7f9 ff62 	bl	8000540 <__aeabi_dmul>
 800667c:	4682      	mov	sl, r0
 800667e:	468b      	mov	fp, r1
 8006680:	4602      	mov	r2, r0
 8006682:	460b      	mov	r3, r1
 8006684:	4620      	mov	r0, r4
 8006686:	4629      	mov	r1, r5
 8006688:	f7f9 ff5a 	bl	8000540 <__aeabi_dmul>
 800668c:	a341      	add	r3, pc, #260	; (adr r3, 8006794 <__kernel_sin+0x14c>)
 800668e:	e9d3 2300 	ldrd	r2, r3, [r3]
 8006692:	4680      	mov	r8, r0
 8006694:	4689      	mov	r9, r1
 8006696:	4650      	mov	r0, sl
 8006698:	4659      	mov	r1, fp
 800669a:	f7f9 ff51 	bl	8000540 <__aeabi_dmul>
 800669e:	a33f      	add	r3, pc, #252	; (adr r3, 800679c <__kernel_sin+0x154>)
 80066a0:	e9d3 2300 	ldrd	r2, r3, [r3]
 80066a4:	f7f9 fd94 	bl	80001d0 <__aeabi_dsub>
 80066a8:	4652      	mov	r2, sl
 80066aa:	465b      	mov	r3, fp
 80066ac:	f7f9 ff48 	bl	8000540 <__aeabi_dmul>
 80066b0:	a33c      	add	r3, pc, #240	; (adr r3, 80067a4 <__kernel_sin+0x15c>)
 80066b2:	e9d3 2300 	ldrd	r2, r3, [r3]
 80066b6:	f7f9 fd8d 	bl	80001d4 <__adddf3>
 80066ba:	4652      	mov	r2, sl
 80066bc:	465b      	mov	r3, fp
 80066be:	f7f9 ff3f 	bl	8000540 <__aeabi_dmul>
 80066c2:	a33a      	add	r3, pc, #232	; (adr r3, 80067ac <__kernel_sin+0x164>)
 80066c4:	e9d3 2300 	ldrd	r2, r3, [r3]
 80066c8:	f7f9 fd82 	bl	80001d0 <__aeabi_dsub>
 80066cc:	4652      	mov	r2, sl
 80066ce:	465b      	mov	r3, fp
 80066d0:	f7f9 ff36 	bl	8000540 <__aeabi_dmul>
 80066d4:	a337      	add	r3, pc, #220	; (adr r3, 80067b4 <__kernel_sin+0x16c>)
 80066d6:	e9d3 2300 	ldrd	r2, r3, [r3]
 80066da:	f7f9 fd7b 	bl	80001d4 <__adddf3>
 80066de:	9b02      	ldr	r3, [sp, #8]
 80066e0:	4606      	mov	r6, r0
 80066e2:	460f      	mov	r7, r1
 80066e4:	b9db      	cbnz	r3, 800671e <__kernel_sin+0xd6>
 80066e6:	4602      	mov	r2, r0
 80066e8:	460b      	mov	r3, r1
 80066ea:	4650      	mov	r0, sl
 80066ec:	4659      	mov	r1, fp
 80066ee:	f7f9 ff27 	bl	8000540 <__aeabi_dmul>
 80066f2:	a325      	add	r3, pc, #148	; (adr r3, 8006788 <__kernel_sin+0x140>)
 80066f4:	e9d3 2300 	ldrd	r2, r3, [r3]
 80066f8:	f7f9 fd6a 	bl	80001d0 <__aeabi_dsub>
 80066fc:	4642      	mov	r2, r8
 80066fe:	464b      	mov	r3, r9
 8006700:	f7f9 ff1e 	bl	8000540 <__aeabi_dmul>
 8006704:	4602      	mov	r2, r0
 8006706:	460b      	mov	r3, r1
 8006708:	4620      	mov	r0, r4
 800670a:	4629      	mov	r1, r5
 800670c:	f7f9 fd62 	bl	80001d4 <__adddf3>
 8006710:	4604      	mov	r4, r0
 8006712:	460d      	mov	r5, r1
 8006714:	ec45 4b10 	vmov	d0, r4, r5
 8006718:	b005      	add	sp, #20
 800671a:	e8bd 8ff0 	ldmia.w	sp!, {r4, r5, r6, r7, r8, r9, sl, fp, pc}
 800671e:	2200      	movs	r2, #0
 8006720:	4b1b      	ldr	r3, [pc, #108]	; (8006790 <__kernel_sin+0x148>)
 8006722:	e9dd 0100 	ldrd	r0, r1, [sp]
 8006726:	f7f9 ff0b 	bl	8000540 <__aeabi_dmul>
 800672a:	4632      	mov	r2, r6
 800672c:	e9cd 0102 	strd	r0, r1, [sp, #8]
 8006730:	463b      	mov	r3, r7
 8006732:	4640      	mov	r0, r8
 8006734:	4649      	mov	r1, r9
 8006736:	f7f9 ff03 	bl	8000540 <__aeabi_dmul>
 800673a:	4602      	mov	r2, r0
 800673c:	460b      	mov	r3, r1
 800673e:	e9dd 0102 	ldrd	r0, r1, [sp, #8]
 8006742:	f7f9 fd45 	bl	80001d0 <__aeabi_dsub>
 8006746:	4652      	mov	r2, sl
 8006748:	465b      	mov	r3, fp
 800674a:	f7f9 fef9 	bl	8000540 <__aeabi_dmul>
 800674e:	e9dd 2300 	ldrd	r2, r3, [sp]
 8006752:	f7f9 fd3d 	bl	80001d0 <__aeabi_dsub>
 8006756:	a30c      	add	r3, pc, #48	; (adr r3, 8006788 <__kernel_sin+0x140>)
 8006758:	e9d3 2300 	ldrd	r2, r3, [r3]
 800675c:	4606      	mov	r6, r0
 800675e:	460f      	mov	r7, r1
 8006760:	4640      	mov	r0, r8
 8006762:	4649      	mov	r1, r9
 8006764:	f7f9 feec 	bl	8000540 <__aeabi_dmul>
 8006768:	4602      	mov	r2, r0
 800676a:	460b      	mov	r3, r1
 800676c:	4630      	mov	r0, r6
 800676e:	4639      	mov	r1, r7
 8006770:	f7f9 fd30 	bl	80001d4 <__adddf3>
 8006774:	4602      	mov	r2, r0
 8006776:	460b      	mov	r3, r1
 8006778:	4620      	mov	r0, r4
 800677a:	4629      	mov	r1, r5
 800677c:	f7f9 fd28 	bl	80001d0 <__aeabi_dsub>
 8006780:	e7c6      	b.n	8006710 <__kernel_sin+0xc8>
 8006782:	bf00      	nop
 8006784:	f3af 8000 	nop.w
 8006788:	55555549 	.word	0x55555549
 800678c:	3fc55555 	.word	0x3fc55555
 8006790:	3fe00000 	.word	0x3fe00000
 8006794:	5acfd57c 	.word	0x5acfd57c
 8006798:	3de5d93a 	.word	0x3de5d93a
 800679c:	8a2b9ceb 	.word	0x8a2b9ceb
 80067a0:	3e5ae5e6 	.word	0x3e5ae5e6
 80067a4:	57b1fe7d 	.word	0x57b1fe7d
 80067a8:	3ec71de3 	.word	0x3ec71de3
 80067ac:	19c161d5 	.word	0x19c161d5
 80067b0:	3f2a01a0 	.word	0x3f2a01a0
 80067b4:	1110f8a6 	.word	0x1110f8a6
 80067b8:	3f811111 	.word	0x3f811111

080067bc <fabs>:
 80067bc:	ec51 0b10 	vmov	r0, r1, d0
 80067c0:	ee10 2a10 	vmov	r2, s0
 80067c4:	f021 4300 	bic.w	r3, r1, #2147483648	; 0x80000000
 80067c8:	ec43 2b10 	vmov	d0, r2, r3
 80067cc:	4770      	bx	lr
	...

080067d0 <floor>:
 80067d0:	ec51 0b10 	vmov	r0, r1, d0
 80067d4:	e92d 41f0 	stmdb	sp!, {r4, r5, r6, r7, r8, lr}
 80067d8:	f3c1 570a 	ubfx	r7, r1, #20, #11
 80067dc:	f2a7 36ff 	subw	r6, r7, #1023	; 0x3ff
 80067e0:	2e13      	cmp	r6, #19
 80067e2:	460c      	mov	r4, r1
 80067e4:	ee10 5a10 	vmov	r5, s0
 80067e8:	4680      	mov	r8, r0
 80067ea:	dc34      	bgt.n	8006856 <floor+0x86>
 80067ec:	2e00      	cmp	r6, #0
 80067ee:	da16      	bge.n	800681e <floor+0x4e>
 80067f0:	a335      	add	r3, pc, #212	; (adr r3, 80068c8 <floor+0xf8>)
 80067f2:	e9d3 2300 	ldrd	r2, r3, [r3]
 80067f6:	f7f9 fced 	bl	80001d4 <__adddf3>
 80067fa:	2200      	movs	r2, #0
 80067fc:	2300      	movs	r3, #0
 80067fe:	f7fa f92f 	bl	8000a60 <__aeabi_dcmpgt>
 8006802:	b148      	cbz	r0, 8006818 <floor+0x48>
 8006804:	2c00      	cmp	r4, #0
 8006806:	da59      	bge.n	80068bc <floor+0xec>
 8006808:	f024 4300 	bic.w	r3, r4, #2147483648	; 0x80000000
 800680c:	4a30      	ldr	r2, [pc, #192]	; (80068d0 <floor+0x100>)
 800680e:	432b      	orrs	r3, r5
 8006810:	2500      	movs	r5, #0
 8006812:	42ab      	cmp	r3, r5
 8006814:	bf18      	it	ne
 8006816:	4614      	movne	r4, r2
 8006818:	4621      	mov	r1, r4
 800681a:	4628      	mov	r0, r5
 800681c:	e025      	b.n	800686a <floor+0x9a>
 800681e:	4f2d      	ldr	r7, [pc, #180]	; (80068d4 <floor+0x104>)
 8006820:	4137      	asrs	r7, r6
 8006822:	ea01 0307 	and.w	r3, r1, r7
 8006826:	4303      	orrs	r3, r0
 8006828:	d01f      	beq.n	800686a <floor+0x9a>
 800682a:	a327      	add	r3, pc, #156	; (adr r3, 80068c8 <floor+0xf8>)
 800682c:	e9d3 2300 	ldrd	r2, r3, [r3]
 8006830:	f7f9 fcd0 	bl	80001d4 <__adddf3>
 8006834:	2200      	movs	r2, #0
 8006836:	2300      	movs	r3, #0
 8006838:	f7fa f912 	bl	8000a60 <__aeabi_dcmpgt>
 800683c:	2800      	cmp	r0, #0
 800683e:	d0eb      	beq.n	8006818 <floor+0x48>
 8006840:	2c00      	cmp	r4, #0
 8006842:	bfbe      	ittt	lt
 8006844:	f44f 1380 	movlt.w	r3, #1048576	; 0x100000
 8006848:	fa43 f606 	asrlt.w	r6, r3, r6
 800684c:	19a4      	addlt	r4, r4, r6
 800684e:	ea24 0407 	bic.w	r4, r4, r7
 8006852:	2500      	movs	r5, #0
 8006854:	e7e0      	b.n	8006818 <floor+0x48>
 8006856:	2e33      	cmp	r6, #51	; 0x33
 8006858:	dd0b      	ble.n	8006872 <floor+0xa2>
 800685a:	f5b6 6f80 	cmp.w	r6, #1024	; 0x400
 800685e:	d104      	bne.n	800686a <floor+0x9a>
 8006860:	ee10 2a10 	vmov	r2, s0
 8006864:	460b      	mov	r3, r1
 8006866:	f7f9 fcb5 	bl	80001d4 <__adddf3>
 800686a:	ec41 0b10 	vmov	d0, r0, r1
 800686e:	e8bd 81f0 	ldmia.w	sp!, {r4, r5, r6, r7, r8, pc}
 8006872:	f2a7 4713 	subw	r7, r7, #1043	; 0x413
 8006876:	f04f 33ff 	mov.w	r3, #4294967295
 800687a:	fa23 f707 	lsr.w	r7, r3, r7
 800687e:	4207      	tst	r7, r0
 8006880:	d0f3      	beq.n	800686a <floor+0x9a>
 8006882:	a311      	add	r3, pc, #68	; (adr r3, 80068c8 <floor+0xf8>)
 8006884:	e9d3 2300 	ldrd	r2, r3, [r3]
 8006888:	f7f9 fca4 	bl	80001d4 <__adddf3>
 800688c:	2200      	movs	r2, #0
 800688e:	2300      	movs	r3, #0
 8006890:	f7fa f8e6 	bl	8000a60 <__aeabi_dcmpgt>
 8006894:	2800      	cmp	r0, #0
 8006896:	d0bf      	beq.n	8006818 <floor+0x48>
 8006898:	2c00      	cmp	r4, #0
 800689a:	da02      	bge.n	80068a2 <floor+0xd2>
 800689c:	2e14      	cmp	r6, #20
 800689e:	d103      	bne.n	80068a8 <floor+0xd8>
 80068a0:	3401      	adds	r4, #1
 80068a2:	ea25 0507 	bic.w	r5, r5, r7
 80068a6:	e7b7      	b.n	8006818 <floor+0x48>
 80068a8:	2301      	movs	r3, #1
 80068aa:	f1c6 0634 	rsb	r6, r6, #52	; 0x34
 80068ae:	fa03 f606 	lsl.w	r6, r3, r6
 80068b2:	4435      	add	r5, r6
 80068b4:	4545      	cmp	r5, r8
 80068b6:	bf38      	it	cc
 80068b8:	18e4      	addcc	r4, r4, r3
 80068ba:	e7f2      	b.n	80068a2 <floor+0xd2>
 80068bc:	2500      	movs	r5, #0
 80068be:	462c      	mov	r4, r5
 80068c0:	e7aa      	b.n	8006818 <floor+0x48>
 80068c2:	bf00      	nop
 80068c4:	f3af 8000 	nop.w
 80068c8:	8800759c 	.word	0x8800759c
 80068cc:	7e37e43c 	.word	0x7e37e43c
 80068d0:	bff00000 	.word	0xbff00000
 80068d4:	000fffff 	.word	0x000fffff

080068d8 <scalbn>:
 80068d8:	b570      	push	{r4, r5, r6, lr}
 80068da:	ec55 4b10 	vmov	r4, r5, d0
 80068de:	f3c5 520a 	ubfx	r2, r5, #20, #11
 80068e2:	4606      	mov	r6, r0
 80068e4:	462b      	mov	r3, r5
 80068e6:	b9aa      	cbnz	r2, 8006914 <scalbn+0x3c>
 80068e8:	f025 4300 	bic.w	r3, r5, #2147483648	; 0x80000000
 80068ec:	4323      	orrs	r3, r4
 80068ee:	d03b      	beq.n	8006968 <scalbn+0x90>
 80068f0:	4b31      	ldr	r3, [pc, #196]	; (80069b8 <scalbn+0xe0>)
 80068f2:	4629      	mov	r1, r5
 80068f4:	2200      	movs	r2, #0
 80068f6:	ee10 0a10 	vmov	r0, s0
 80068fa:	f7f9 fe21 	bl	8000540 <__aeabi_dmul>
 80068fe:	4b2f      	ldr	r3, [pc, #188]	; (80069bc <scalbn+0xe4>)
 8006900:	429e      	cmp	r6, r3
 8006902:	4604      	mov	r4, r0
 8006904:	460d      	mov	r5, r1
 8006906:	da12      	bge.n	800692e <scalbn+0x56>
 8006908:	a327      	add	r3, pc, #156	; (adr r3, 80069a8 <scalbn+0xd0>)
 800690a:	e9d3 2300 	ldrd	r2, r3, [r3]
 800690e:	f7f9 fe17 	bl	8000540 <__aeabi_dmul>
 8006912:	e009      	b.n	8006928 <scalbn+0x50>
 8006914:	f240 71ff 	movw	r1, #2047	; 0x7ff
 8006918:	428a      	cmp	r2, r1
 800691a:	d10c      	bne.n	8006936 <scalbn+0x5e>
 800691c:	ee10 2a10 	vmov	r2, s0
 8006920:	4620      	mov	r0, r4
 8006922:	4629      	mov	r1, r5
 8006924:	f7f9 fc56 	bl	80001d4 <__adddf3>
 8006928:	4604      	mov	r4, r0
 800692a:	460d      	mov	r5, r1
 800692c:	e01c      	b.n	8006968 <scalbn+0x90>
 800692e:	f3c1 520a 	ubfx	r2, r1, #20, #11
 8006932:	460b      	mov	r3, r1
 8006934:	3a36      	subs	r2, #54	; 0x36
 8006936:	4432      	add	r2, r6
 8006938:	f240 71fe 	movw	r1, #2046	; 0x7fe
 800693c:	428a      	cmp	r2, r1
 800693e:	dd0b      	ble.n	8006958 <scalbn+0x80>
 8006940:	ec45 4b11 	vmov	d1, r4, r5
 8006944:	ed9f 0b1a 	vldr	d0, [pc, #104]	; 80069b0 <scalbn+0xd8>
 8006948:	f000 f83c 	bl	80069c4 <copysign>
 800694c:	a318      	add	r3, pc, #96	; (adr r3, 80069b0 <scalbn+0xd8>)
 800694e:	e9d3 2300 	ldrd	r2, r3, [r3]
 8006952:	ec51 0b10 	vmov	r0, r1, d0
 8006956:	e7da      	b.n	800690e <scalbn+0x36>
 8006958:	2a00      	cmp	r2, #0
 800695a:	dd08      	ble.n	800696e <scalbn+0x96>
 800695c:	f023 43ff 	bic.w	r3, r3, #2139095040	; 0x7f800000
 8006960:	f423 03e0 	bic.w	r3, r3, #7340032	; 0x700000
 8006964:	ea43 5502 	orr.w	r5, r3, r2, lsl #20
 8006968:	ec45 4b10 	vmov	d0, r4, r5
 800696c:	bd70      	pop	{r4, r5, r6, pc}
 800696e:	f112 0f35 	cmn.w	r2, #53	; 0x35
 8006972:	da0d      	bge.n	8006990 <scalbn+0xb8>
 8006974:	f24c 3350 	movw	r3, #50000	; 0xc350
 8006978:	429e      	cmp	r6, r3
 800697a:	ec45 4b11 	vmov	d1, r4, r5
 800697e:	dce1      	bgt.n	8006944 <scalbn+0x6c>
 8006980:	ed9f 0b09 	vldr	d0, [pc, #36]	; 80069a8 <scalbn+0xd0>
 8006984:	f000 f81e 	bl	80069c4 <copysign>
 8006988:	a307      	add	r3, pc, #28	; (adr r3, 80069a8 <scalbn+0xd0>)
 800698a:	e9d3 2300 	ldrd	r2, r3, [r3]
 800698e:	e7e0      	b.n	8006952 <scalbn+0x7a>
 8006990:	f023 43ff 	bic.w	r3, r3, #2139095040	; 0x7f800000
 8006994:	3236      	adds	r2, #54	; 0x36
 8006996:	f423 03e0 	bic.w	r3, r3, #7340032	; 0x700000
 800699a:	ea43 5502 	orr.w	r5, r3, r2, lsl #20
 800699e:	4620      	mov	r0, r4
 80069a0:	4629      	mov	r1, r5
 80069a2:	2200      	movs	r2, #0
 80069a4:	4b06      	ldr	r3, [pc, #24]	; (80069c0 <scalbn+0xe8>)
 80069a6:	e7b2      	b.n	800690e <scalbn+0x36>
 80069a8:	c2f8f359 	.word	0xc2f8f359
 80069ac:	01a56e1f 	.word	0x01a56e1f
 80069b0:	8800759c 	.word	0x8800759c
 80069b4:	7e37e43c 	.word	0x7e37e43c
 80069b8:	43500000 	.word	0x43500000
 80069bc:	ffff3cb0 	.word	0xffff3cb0
 80069c0:	3c900000 	.word	0x3c900000

080069c4 <copysign>:
 80069c4:	ec51 0b10 	vmov	r0, r1, d0
 80069c8:	ee11 0a90 	vmov	r0, s3
 80069cc:	ee10 2a10 	vmov	r2, s0
 80069d0:	f021 4100 	bic.w	r1, r1, #2147483648	; 0x80000000
 80069d4:	f000 4000 	and.w	r0, r0, #2147483648	; 0x80000000
 80069d8:	ea41 0300 	orr.w	r3, r1, r0
 80069dc:	ec43 2b10 	vmov	d0, r2, r3
 80069e0:	4770      	bx	lr

080069e2 <abort>:
 80069e2:	b508      	push	{r3, lr}
 80069e4:	2006      	movs	r0, #6
 80069e6:	f000 f93f 	bl	8006c68 <raise>
 80069ea:	2001      	movs	r0, #1
 80069ec:	f7fe fbed 	bl	80051ca <_exit>

080069f0 <__errno>:
 80069f0:	4b01      	ldr	r3, [pc, #4]	; (80069f8 <__errno+0x8>)
 80069f2:	6818      	ldr	r0, [r3, #0]
 80069f4:	4770      	bx	lr
 80069f6:	bf00      	nop
 80069f8:	2000000c 	.word	0x2000000c

080069fc <__libc_init_array>:
 80069fc:	b570      	push	{r4, r5, r6, lr}
 80069fe:	4e0d      	ldr	r6, [pc, #52]	; (8006a34 <__libc_init_array+0x38>)
 8006a00:	4c0d      	ldr	r4, [pc, #52]	; (8006a38 <__libc_init_array+0x3c>)
 8006a02:	1ba4      	subs	r4, r4, r6
 8006a04:	10a4      	asrs	r4, r4, #2
 8006a06:	2500      	movs	r5, #0
 8006a08:	42a5      	cmp	r5, r4
 8006a0a:	d109      	bne.n	8006a20 <__libc_init_array+0x24>
 8006a0c:	4e0b      	ldr	r6, [pc, #44]	; (8006a3c <__libc_init_array+0x40>)
 8006a0e:	4c0c      	ldr	r4, [pc, #48]	; (8006a40 <__libc_init_array+0x44>)
 8006a10:	f000 f948 	bl	8006ca4 <_init>
 8006a14:	1ba4      	subs	r4, r4, r6
 8006a16:	10a4      	asrs	r4, r4, #2
 8006a18:	2500      	movs	r5, #0
 8006a1a:	42a5      	cmp	r5, r4
 8006a1c:	d105      	bne.n	8006a2a <__libc_init_array+0x2e>
 8006a1e:	bd70      	pop	{r4, r5, r6, pc}
 8006a20:	f856 3025 	ldr.w	r3, [r6, r5, lsl #2]
 8006a24:	4798      	blx	r3
 8006a26:	3501      	adds	r5, #1
 8006a28:	e7ee      	b.n	8006a08 <__libc_init_array+0xc>
 8006a2a:	f856 3025 	ldr.w	r3, [r6, r5, lsl #2]
 8006a2e:	4798      	blx	r3
 8006a30:	3501      	adds	r5, #1
 8006a32:	e7f2      	b.n	8006a1a <__libc_init_array+0x1e>
 8006a34:	08006f08 	.word	0x08006f08
 8006a38:	08006f08 	.word	0x08006f08
 8006a3c:	08006f08 	.word	0x08006f08
 8006a40:	08006f0c 	.word	0x08006f0c

08006a44 <malloc>:
 8006a44:	4b02      	ldr	r3, [pc, #8]	; (8006a50 <malloc+0xc>)
 8006a46:	4601      	mov	r1, r0
 8006a48:	6818      	ldr	r0, [r3, #0]
 8006a4a:	f000 b87b 	b.w	8006b44 <_malloc_r>
 8006a4e:	bf00      	nop
 8006a50:	2000000c 	.word	0x2000000c

08006a54 <free>:
 8006a54:	4b02      	ldr	r3, [pc, #8]	; (8006a60 <free+0xc>)
 8006a56:	4601      	mov	r1, r0
 8006a58:	6818      	ldr	r0, [r3, #0]
 8006a5a:	f000 b825 	b.w	8006aa8 <_free_r>
 8006a5e:	bf00      	nop
 8006a60:	2000000c 	.word	0x2000000c

08006a64 <memmove>:
 8006a64:	4288      	cmp	r0, r1
 8006a66:	b510      	push	{r4, lr}
 8006a68:	eb01 0302 	add.w	r3, r1, r2
 8006a6c:	d807      	bhi.n	8006a7e <memmove+0x1a>
 8006a6e:	1e42      	subs	r2, r0, #1
 8006a70:	4299      	cmp	r1, r3
 8006a72:	d00a      	beq.n	8006a8a <memmove+0x26>
 8006a74:	f811 4b01 	ldrb.w	r4, [r1], #1
 8006a78:	f802 4f01 	strb.w	r4, [r2, #1]!
 8006a7c:	e7f8      	b.n	8006a70 <memmove+0xc>
 8006a7e:	4283      	cmp	r3, r0
 8006a80:	d9f5      	bls.n	8006a6e <memmove+0xa>
 8006a82:	1881      	adds	r1, r0, r2
 8006a84:	1ad2      	subs	r2, r2, r3
 8006a86:	42d3      	cmn	r3, r2
 8006a88:	d100      	bne.n	8006a8c <memmove+0x28>
 8006a8a:	bd10      	pop	{r4, pc}
 8006a8c:	f813 4d01 	ldrb.w	r4, [r3, #-1]!
 8006a90:	f801 4d01 	strb.w	r4, [r1, #-1]!
 8006a94:	e7f7      	b.n	8006a86 <memmove+0x22>

08006a96 <memset>:
 8006a96:	4402      	add	r2, r0
 8006a98:	4603      	mov	r3, r0
 8006a9a:	4293      	cmp	r3, r2
 8006a9c:	d100      	bne.n	8006aa0 <memset+0xa>
 8006a9e:	4770      	bx	lr
 8006aa0:	f803 1b01 	strb.w	r1, [r3], #1
 8006aa4:	e7f9      	b.n	8006a9a <memset+0x4>
	...

08006aa8 <_free_r>:
 8006aa8:	b538      	push	{r3, r4, r5, lr}
 8006aaa:	4605      	mov	r5, r0
 8006aac:	2900      	cmp	r1, #0
 8006aae:	d045      	beq.n	8006b3c <_free_r+0x94>
 8006ab0:	f851 3c04 	ldr.w	r3, [r1, #-4]
 8006ab4:	1f0c      	subs	r4, r1, #4
 8006ab6:	2b00      	cmp	r3, #0
 8006ab8:	bfb8      	it	lt
 8006aba:	18e4      	addlt	r4, r4, r3
 8006abc:	f000 f8f0 	bl	8006ca0 <__malloc_lock>
 8006ac0:	4a1f      	ldr	r2, [pc, #124]	; (8006b40 <_free_r+0x98>)
 8006ac2:	6813      	ldr	r3, [r2, #0]
 8006ac4:	4610      	mov	r0, r2
 8006ac6:	b933      	cbnz	r3, 8006ad6 <_free_r+0x2e>
 8006ac8:	6063      	str	r3, [r4, #4]
 8006aca:	6014      	str	r4, [r2, #0]
 8006acc:	4628      	mov	r0, r5
 8006ace:	e8bd 4038 	ldmia.w	sp!, {r3, r4, r5, lr}
 8006ad2:	f000 b8e6 	b.w	8006ca2 <__malloc_unlock>
 8006ad6:	42a3      	cmp	r3, r4
 8006ad8:	d90c      	bls.n	8006af4 <_free_r+0x4c>
 8006ada:	6821      	ldr	r1, [r4, #0]
 8006adc:	1862      	adds	r2, r4, r1
 8006ade:	4293      	cmp	r3, r2
 8006ae0:	bf04      	itt	eq
 8006ae2:	681a      	ldreq	r2, [r3, #0]
 8006ae4:	685b      	ldreq	r3, [r3, #4]
 8006ae6:	6063      	str	r3, [r4, #4]
 8006ae8:	bf04      	itt	eq
 8006aea:	1852      	addeq	r2, r2, r1
 8006aec:	6022      	streq	r2, [r4, #0]
 8006aee:	6004      	str	r4, [r0, #0]
 8006af0:	e7ec      	b.n	8006acc <_free_r+0x24>
 8006af2:	4613      	mov	r3, r2
 8006af4:	685a      	ldr	r2, [r3, #4]
 8006af6:	b10a      	cbz	r2, 8006afc <_free_r+0x54>
 8006af8:	42a2      	cmp	r2, r4
 8006afa:	d9fa      	bls.n	8006af2 <_free_r+0x4a>
 8006afc:	6819      	ldr	r1, [r3, #0]
 8006afe:	1858      	adds	r0, r3, r1
 8006b00:	42a0      	cmp	r0, r4
 8006b02:	d10b      	bne.n	8006b1c <_free_r+0x74>
 8006b04:	6820      	ldr	r0, [r4, #0]
 8006b06:	4401      	add	r1, r0
 8006b08:	1858      	adds	r0, r3, r1
 8006b0a:	4282      	cmp	r2, r0
 8006b0c:	6019      	str	r1, [r3, #0]
 8006b0e:	d1dd      	bne.n	8006acc <_free_r+0x24>
 8006b10:	6810      	ldr	r0, [r2, #0]
 8006b12:	6852      	ldr	r2, [r2, #4]
 8006b14:	605a      	str	r2, [r3, #4]
 8006b16:	4401      	add	r1, r0
 8006b18:	6019      	str	r1, [r3, #0]
 8006b1a:	e7d7      	b.n	8006acc <_free_r+0x24>
 8006b1c:	d902      	bls.n	8006b24 <_free_r+0x7c>
 8006b1e:	230c      	movs	r3, #12
 8006b20:	602b      	str	r3, [r5, #0]
 8006b22:	e7d3      	b.n	8006acc <_free_r+0x24>
 8006b24:	6820      	ldr	r0, [r4, #0]
 8006b26:	1821      	adds	r1, r4, r0
 8006b28:	428a      	cmp	r2, r1
 8006b2a:	bf04      	itt	eq
 8006b2c:	6811      	ldreq	r1, [r2, #0]
 8006b2e:	6852      	ldreq	r2, [r2, #4]
 8006b30:	6062      	str	r2, [r4, #4]
 8006b32:	bf04      	itt	eq
 8006b34:	1809      	addeq	r1, r1, r0
 8006b36:	6021      	streq	r1, [r4, #0]
 8006b38:	605c      	str	r4, [r3, #4]
 8006b3a:	e7c7      	b.n	8006acc <_free_r+0x24>
 8006b3c:	bd38      	pop	{r3, r4, r5, pc}
 8006b3e:	bf00      	nop
 8006b40:	20000094 	.word	0x20000094

08006b44 <_malloc_r>:
 8006b44:	b570      	push	{r4, r5, r6, lr}
 8006b46:	1ccd      	adds	r5, r1, #3
 8006b48:	f025 0503 	bic.w	r5, r5, #3
 8006b4c:	3508      	adds	r5, #8
 8006b4e:	2d0c      	cmp	r5, #12
 8006b50:	bf38      	it	cc
 8006b52:	250c      	movcc	r5, #12
 8006b54:	2d00      	cmp	r5, #0
 8006b56:	4606      	mov	r6, r0
 8006b58:	db01      	blt.n	8006b5e <_malloc_r+0x1a>
 8006b5a:	42a9      	cmp	r1, r5
 8006b5c:	d903      	bls.n	8006b66 <_malloc_r+0x22>
 8006b5e:	230c      	movs	r3, #12
 8006b60:	6033      	str	r3, [r6, #0]
 8006b62:	2000      	movs	r0, #0
 8006b64:	bd70      	pop	{r4, r5, r6, pc}
 8006b66:	f000 f89b 	bl	8006ca0 <__malloc_lock>
 8006b6a:	4a21      	ldr	r2, [pc, #132]	; (8006bf0 <_malloc_r+0xac>)
 8006b6c:	6814      	ldr	r4, [r2, #0]
 8006b6e:	4621      	mov	r1, r4
 8006b70:	b991      	cbnz	r1, 8006b98 <_malloc_r+0x54>
 8006b72:	4c20      	ldr	r4, [pc, #128]	; (8006bf4 <_malloc_r+0xb0>)
 8006b74:	6823      	ldr	r3, [r4, #0]
 8006b76:	b91b      	cbnz	r3, 8006b80 <_malloc_r+0x3c>
 8006b78:	4630      	mov	r0, r6
 8006b7a:	f000 f83d 	bl	8006bf8 <_sbrk_r>
 8006b7e:	6020      	str	r0, [r4, #0]
 8006b80:	4629      	mov	r1, r5
 8006b82:	4630      	mov	r0, r6
 8006b84:	f000 f838 	bl	8006bf8 <_sbrk_r>
 8006b88:	1c43      	adds	r3, r0, #1
 8006b8a:	d124      	bne.n	8006bd6 <_malloc_r+0x92>
 8006b8c:	230c      	movs	r3, #12
 8006b8e:	6033      	str	r3, [r6, #0]
 8006b90:	4630      	mov	r0, r6
 8006b92:	f000 f886 	bl	8006ca2 <__malloc_unlock>
 8006b96:	e7e4      	b.n	8006b62 <_malloc_r+0x1e>
 8006b98:	680b      	ldr	r3, [r1, #0]
 8006b9a:	1b5b      	subs	r3, r3, r5
 8006b9c:	d418      	bmi.n	8006bd0 <_malloc_r+0x8c>
 8006b9e:	2b0b      	cmp	r3, #11
 8006ba0:	d90f      	bls.n	8006bc2 <_malloc_r+0x7e>
 8006ba2:	600b      	str	r3, [r1, #0]
 8006ba4:	50cd      	str	r5, [r1, r3]
 8006ba6:	18cc      	adds	r4, r1, r3
 8006ba8:	4630      	mov	r0, r6
 8006baa:	f000 f87a 	bl	8006ca2 <__malloc_unlock>
 8006bae:	f104 000b 	add.w	r0, r4, #11
 8006bb2:	1d23      	adds	r3, r4, #4
 8006bb4:	f020 0007 	bic.w	r0, r0, #7
 8006bb8:	1ac3      	subs	r3, r0, r3
 8006bba:	d0d3      	beq.n	8006b64 <_malloc_r+0x20>
 8006bbc:	425a      	negs	r2, r3
 8006bbe:	50e2      	str	r2, [r4, r3]
 8006bc0:	e7d0      	b.n	8006b64 <_malloc_r+0x20>
 8006bc2:	428c      	cmp	r4, r1
 8006bc4:	684b      	ldr	r3, [r1, #4]
 8006bc6:	bf16      	itet	ne
 8006bc8:	6063      	strne	r3, [r4, #4]
 8006bca:	6013      	streq	r3, [r2, #0]
 8006bcc:	460c      	movne	r4, r1
 8006bce:	e7eb      	b.n	8006ba8 <_malloc_r+0x64>
 8006bd0:	460c      	mov	r4, r1
 8006bd2:	6849      	ldr	r1, [r1, #4]
 8006bd4:	e7cc      	b.n	8006b70 <_malloc_r+0x2c>
 8006bd6:	1cc4      	adds	r4, r0, #3
 8006bd8:	f024 0403 	bic.w	r4, r4, #3
 8006bdc:	42a0      	cmp	r0, r4
 8006bde:	d005      	beq.n	8006bec <_malloc_r+0xa8>
 8006be0:	1a21      	subs	r1, r4, r0
 8006be2:	4630      	mov	r0, r6
 8006be4:	f000 f808 	bl	8006bf8 <_sbrk_r>
 8006be8:	3001      	adds	r0, #1
 8006bea:	d0cf      	beq.n	8006b8c <_malloc_r+0x48>
 8006bec:	6025      	str	r5, [r4, #0]
 8006bee:	e7db      	b.n	8006ba8 <_malloc_r+0x64>
 8006bf0:	20000094 	.word	0x20000094
 8006bf4:	20000098 	.word	0x20000098

08006bf8 <_sbrk_r>:
 8006bf8:	b538      	push	{r3, r4, r5, lr}
 8006bfa:	4c06      	ldr	r4, [pc, #24]	; (8006c14 <_sbrk_r+0x1c>)
 8006bfc:	2300      	movs	r3, #0
 8006bfe:	4605      	mov	r5, r0
 8006c00:	4608      	mov	r0, r1
 8006c02:	6023      	str	r3, [r4, #0]
 8006c04:	f7fe faec 	bl	80051e0 <_sbrk>
 8006c08:	1c43      	adds	r3, r0, #1
 8006c0a:	d102      	bne.n	8006c12 <_sbrk_r+0x1a>
 8006c0c:	6823      	ldr	r3, [r4, #0]
 8006c0e:	b103      	cbz	r3, 8006c12 <_sbrk_r+0x1a>
 8006c10:	602b      	str	r3, [r5, #0]
 8006c12:	bd38      	pop	{r3, r4, r5, pc}
 8006c14:	20000110 	.word	0x20000110

08006c18 <_raise_r>:
 8006c18:	291f      	cmp	r1, #31
 8006c1a:	b538      	push	{r3, r4, r5, lr}
 8006c1c:	4604      	mov	r4, r0
 8006c1e:	460d      	mov	r5, r1
 8006c20:	d904      	bls.n	8006c2c <_raise_r+0x14>
 8006c22:	2316      	movs	r3, #22
 8006c24:	6003      	str	r3, [r0, #0]
 8006c26:	f04f 30ff 	mov.w	r0, #4294967295
 8006c2a:	bd38      	pop	{r3, r4, r5, pc}
 8006c2c:	6c42      	ldr	r2, [r0, #68]	; 0x44
 8006c2e:	b112      	cbz	r2, 8006c36 <_raise_r+0x1e>
 8006c30:	f852 3021 	ldr.w	r3, [r2, r1, lsl #2]
 8006c34:	b94b      	cbnz	r3, 8006c4a <_raise_r+0x32>
 8006c36:	4620      	mov	r0, r4
 8006c38:	f000 f830 	bl	8006c9c <_getpid_r>
 8006c3c:	462a      	mov	r2, r5
 8006c3e:	4601      	mov	r1, r0
 8006c40:	4620      	mov	r0, r4
 8006c42:	e8bd 4038 	ldmia.w	sp!, {r3, r4, r5, lr}
 8006c46:	f000 b817 	b.w	8006c78 <_kill_r>
 8006c4a:	2b01      	cmp	r3, #1
 8006c4c:	d00a      	beq.n	8006c64 <_raise_r+0x4c>
 8006c4e:	1c59      	adds	r1, r3, #1
 8006c50:	d103      	bne.n	8006c5a <_raise_r+0x42>
 8006c52:	2316      	movs	r3, #22
 8006c54:	6003      	str	r3, [r0, #0]
 8006c56:	2001      	movs	r0, #1
 8006c58:	e7e7      	b.n	8006c2a <_raise_r+0x12>
 8006c5a:	2400      	movs	r4, #0
 8006c5c:	f842 4025 	str.w	r4, [r2, r5, lsl #2]
 8006c60:	4628      	mov	r0, r5
 8006c62:	4798      	blx	r3
 8006c64:	2000      	movs	r0, #0
 8006c66:	e7e0      	b.n	8006c2a <_raise_r+0x12>

08006c68 <raise>:
 8006c68:	4b02      	ldr	r3, [pc, #8]	; (8006c74 <raise+0xc>)
 8006c6a:	4601      	mov	r1, r0
 8006c6c:	6818      	ldr	r0, [r3, #0]
 8006c6e:	f7ff bfd3 	b.w	8006c18 <_raise_r>
 8006c72:	bf00      	nop
 8006c74:	2000000c 	.word	0x2000000c

08006c78 <_kill_r>:
 8006c78:	b538      	push	{r3, r4, r5, lr}
 8006c7a:	4c07      	ldr	r4, [pc, #28]	; (8006c98 <_kill_r+0x20>)
 8006c7c:	2300      	movs	r3, #0
 8006c7e:	4605      	mov	r5, r0
 8006c80:	4608      	mov	r0, r1
 8006c82:	4611      	mov	r1, r2
 8006c84:	6023      	str	r3, [r4, #0]
 8006c86:	f7fe fa90 	bl	80051aa <_kill>
 8006c8a:	1c43      	adds	r3, r0, #1
 8006c8c:	d102      	bne.n	8006c94 <_kill_r+0x1c>
 8006c8e:	6823      	ldr	r3, [r4, #0]
 8006c90:	b103      	cbz	r3, 8006c94 <_kill_r+0x1c>
 8006c92:	602b      	str	r3, [r5, #0]
 8006c94:	bd38      	pop	{r3, r4, r5, pc}
 8006c96:	bf00      	nop
 8006c98:	20000110 	.word	0x20000110

08006c9c <_getpid_r>:
 8006c9c:	f7fe ba7d 	b.w	800519a <_getpid>

08006ca0 <__malloc_lock>:
 8006ca0:	4770      	bx	lr

08006ca2 <__malloc_unlock>:
 8006ca2:	4770      	bx	lr

08006ca4 <_init>:
 8006ca4:	b5f8      	push	{r3, r4, r5, r6, r7, lr}
 8006ca6:	bf00      	nop
 8006ca8:	bcf8      	pop	{r3, r4, r5, r6, r7}
 8006caa:	bc08      	pop	{r3}
 8006cac:	469e      	mov	lr, r3
 8006cae:	4770      	bx	lr

08006cb0 <_fini>:
 8006cb0:	b5f8      	push	{r3, r4, r5, r6, r7, lr}
 8006cb2:	bf00      	nop
 8006cb4:	bcf8      	pop	{r3, r4, r5, r6, r7}
 8006cb6:	bc08      	pop	{r3}
 8006cb8:	469e      	mov	lr, r3
 8006cba:	4770      	bx	lr
